ccollections
defaultdict
p1
(cpymarkovchain.MarkovChain
_one_dict
p2
tRp3
(S'Medicaid'
p4
S'budget'
p5
tp6
g1
(cpymarkovchain.MarkovChain
_one
p7
tRp8
S''
F1
ss(S'at'
p9
tp10
g1
(g7
tRp11
S''
F0.11333333333333333
sS'what'
p12
F0.11333333333333333
sS'that'
p13
F0.11333333333333333
sS'us,'
p14
F0.11333333333333333
sS'the'
p15
F0.43333333333333329
sS'your'
p16
F0.11333333333333333
ss(S'America'
p17
tp18
g1
(g7
tRp19
S'and'
p20
F0.37373737373737376
sS'to'
p21
F0.13131313131313133
sS''
F0.49494949494949503
ss(S'courts'
p22
tp23
g1
(g7
tRp24
S'and'
p25
F1
ss(S'do'
p26
S'in'
p27
tp28
g1
(g7
tRp29
S'Medicare'
p30
F1
ss(S'you'
p31
S'have'
p32
tp33
g1
(g7
tRp34
S'a'
F1
ss(S'me,'
p35
tp36
g1
(g7
tRp37
S'please'
p38
F1
ss(S'I'
S"don't"
p39
tp40
g1
(g7
tRp41
S'fear'
p42
F0.34999999999999998
sS'get'
p43
F0.65000000000000002
ss(S'it'
p44
tp45
g1
(g7
tRp46
S''
F0.26754385964912286
sS'on'
p47
F0.092105263157894759
sS'with'
p48
F0.092105263157894759
sS'is'
p49
F0.092105263157894759
sS'will'
p50
F0.092105263157894759
sS'to'
p51
F0.17982456140350883
sS'makes'
p52
F0.092105263157894759
sS'gives'
p53
F0.092105263157894759
ss(S'go'
p54
tp55
g1
(g7
tRp56
S'there'
p57
F0.34999999999999998
sS'through'
p58
F0.65000000000000002
ss(S'does'
p59
tp60
g1
(g7
tRp61
S''
F0.5
sS'understand'
p62
F0.5
ss(S'honest'
p63
S'person'
p64
tp65
g1
(g7
tRp66
S''
F1
ss(S'to'
p67
S'live'
p68
tp69
g1
(g7
tRp70
S'underground'
p71
F1
ss(S'80'
p72
tp73
g1
(g7
tRp74
S'million'
p75
F1
ss(S'said'
p76
S'we'
p77
tp78
g1
(g7
tRp79
S'just'
p80
F1
ss(S'now'
p81
tp82
g1
(g7
tRp83
S''
F0.5
sS'because'
p84
F0.5
ss(S'they'
p85
S"didn't"
p86
tp87
g1
(g7
tRp88
S'find'
p89
F1
ss(S'know,'
S'they'
p90
tp91
g1
(g7
tRp92
S'are'
p93
F1
ss(S'and'
p94
S'Mexico'
p95
tp96
g1
(g7
tRp97
S'that'
p98
F1
ss(S'done'
p99
tp100
g1
(g7
tRp101
S''
F0.5
sS'in'
p102
F0.5
ss(S'emulate'
p103
tp104
g1
(g7
tRp105
S''
F1
ss(S'drug'
p106
S'care'
p107
tp108
g1
(g7
tRp109
S'and'
p110
F1
ss(S'absolutely,'
p111
tp112
g1
(g7
tRp113
S'I'
F1
ss(S'lastly,'
p114
tp115
g1
(g7
tRp116
S'we'
p117
F1
ss(S'child'
p118
tp119
g1
(g7
tRp120
S''
F1
ss(S'going'
p121
S'to'
p122
tp123
g1
(g7
tRp124
S'be'
p125
F0.12698412698412698
sS'hide'
p126
F0.12698412698412698
sS'whine'
p127
F0.12698412698412698
sS'an'
p128
F0.12698412698412698
sS'cost'
p129
F0.12698412698412698
sS'have'
p130
F0.36507936507936506
ss(S'and'
p131
S'that'
p132
tp133
g1
(g7
tRp134
S'will'
p135
F1
ss(S'let'
p136
S'me'
p137
tp138
g1
(g7
tRp139
S'just'
p140
F1
ss(S'winners'
p141
S'and'
p142
tp143
g1
(g7
tRp144
S'losers'
p145
F1
ss(S'When'
p146
tp147
g1
(g7
tRp148
S'we'
p149
F1
ss(S'of'
p150
S'17'
p151
tp152
g1
(g7
tRp153
S'Republican'
p154
F1
ss(S'give'
p155
S'them'
p156
tp157
g1
(g7
tRp158
S'a'
F1
ss(S'way'
p159
tp160
g1
(g7
tRp161
S'do'
p162
F0.25
sS'the'
p163
F0.25
sS'too'
p164
F0.25
sS'that'
p165
F0.25
ss(S'protects'
p166
S'all'
p167
tp168
g1
(g7
tRp169
S'of'
p170
F1
ss(S'What'
S'could'
p171
tp172
g1
(g7
tRp173
S'you'
p174
F1
ss(S'if'
p175
tp176
g1
(g7
tRp177
S'not'
p178
F0.25
sS'Uncle'
p179
F0.25
sS'anybody'
p180
F0.25
sS'he'
p181
F0.25
ss(S'estate'
p182
tp183
g1
(g7
tRp184
S'dealings'
p185
F1
ss(S'large'
p186
S'deductible,'
p187
tp188
g1
(g7
tRp189
S'versus'
p190
F1
ss(S"they're"
p191
tp192
g1
(g7
tRp193
S'all'
p194
F1
ss(S'believe'
p195
S'it'
p196
tp197
g1
(g7
tRp198
g49
F1
ss(S'could'
p199
S'still'
p200
tp201
g1
(g7
tRp202
S'have'
p203
F1
ss(S'would'
p204
g155
tp205
g1
(g7
tRp206
g156
F1
ss(S'And'
S'we'
p207
tp208
g1
(g7
tRp209
S'need'
p210
F0.20370370370370372
sS'also'
p211
F0.20370370370370372
sS'have'
p212
F0.38888888888888884
sS'give'
p213
F0.20370370370370372
ss(S'Joe'
p214
tp215
g1
(g7
tRp216
S'is'
p217
F1
ss(S'the'
p218
S'Constitution'
p219
tp220
g1
(g7
tRp221
g166
F1
ss(S'talk'
p222
S'that'
p223
tp224
g1
(g7
tRp225
S'much'
p226
F1
ss(S'about'
p227
S'us,'
p228
tp229
g1
(g7
tRp230
S"it's"
p231
F1
ss(S'anything'
p232
S'and'
p233
tp234
g1
(g7
tRp235
S'they'
p236
F1
ss(S'It'
S'guards'
p237
tp238
g1
(g7
tRp239
S'us'
p240
F1
ss(S'we'
p241
S'had'
p242
tp243
g1
(g7
tRp244
S'turned'
p245
F1
ss(S'other'
p246
S'people'
p247
tp248
g1
(g7
tRp249
S''
F1
ss(S'not'
p250
S'us,'
p251
tp252
g1
(g7
tRp253
S'who'
p254
F1
ss(S'woman'
p255
S'and'
p256
tp257
g1
(g7
tRp258
S'child,'
p259
F1
ss(S'math'
p260
tp261
g1
(g7
tRp262
S''
F1
ss(S'ways'
p263
S'of'
p264
tp265
g1
(g7
tRp266
S'--'
p267
F1
ss(g211
S'need'
p268
tp269
g1
(g7
tRp270
S'to'
p271
F1
ss(S'terrorists'
p272
S'who'
p273
tp274
g1
(g7
tRp275
S'want'
p276
F1
ss(S'which'
p277
S'is'
p278
tp279
g1
(g7
tRp280
S'way'
p281
F1
ss(S'seizure'
p282
tp283
g1
(g7
tRp284
S''
F1
ss(S'lot'
p285
S'because'
p286
tp287
g1
(g7
tRp288
S'I'
F1
ss(g146
g149
tp289
g1
(g7
tRp290
S'begin'
p291
F1
ss(S'You'
S'can'
p292
tp293
g1
(g7
tRp294
S'buy'
p295
F1
ss(S'over'
p296
tp297
g1
(g7
tRp298
S''
F0.33333333333333331
sS'to'
p299
F0.33333333333333331
sS'here'
p300
F0.33333333333333331
ss(S'If'
g250
tp301
g1
(g7
tRp302
g251
F1
ss(S'no'
p303
S'bureaucrats'
p304
tp305
g1
(g7
tRp306
S''
F1
ss(S'he'
p307
g59
tp308
g1
(g7
tRp309
g62
F1
ss(S'per'
p310
tp311
g1
(g7
tRp312
S'capita'
p313
F1
ss(S'to'
p314
S'say'
p315
tp316
g1
(g7
tRp317
S'about'
p318
F1
ss(S'expect'
p319
tp320
g1
(g7
tRp321
S'Apple'
p322
F1
ss(S'everybody'
p323
tp324
g1
(g7
tRp325
S''
F0.20370370370370372
sS'has'
p326
F0.20370370370370372
sS'from'
p327
F0.20370370370370372
sS'else'
p328
F0.38888888888888884
ss(S'they'
p329
tp330
g1
(g7
tRp331
S'do'
p332
F0.090579710144927508
sS'made'
p333
F0.045893719806763281
sS'want'
p334
F0.045893719806763281
sS"don't"
p335
F0.13526570048309178
sS'die'
p336
F0.045893719806763281
sg86
F0.090579710144927508
sS'will'
p337
F0.045893719806763281
sg76
F0.13526570048309178
sS'done'
p338
F0.045893719806763281
sg93
F0.045893719806763281
sS'have'
p339
F0.13526570048309178
sg54
F0.045893719806763281
sS"won't"
p340
F0.045893719806763281
sS'came'
p341
F0.045893719806763281
ss(S'savings'
p342
S'account'
p343
tp344
g1
(g7
tRp345
S'with'
p346
F1
ss(S'group'
p347
tp348
g1
(g7
tRp349
S''
F1
ss(g186
tp350
g1
(g7
tRp351
g187
F1
ss(S'are'
p352
S'like'
p353
tp354
g1
(g7
tRp355
S'a'
F1
ss(S'for'
p356
S'us'
p357
tp358
g1
(g7
tRp359
S'but'
p360
F1
ss(S'one'
p361
tp362
g1
(g7
tRp363
S''
F0.20370370370370372
sg150
F0.38888888888888884
sS'costs'
p364
F0.20370370370370372
sS'who'
p365
F0.20370370370370372
ss(S'saved'
p366
tp367
g1
(g7
tRp368
S'many'
p369
F1
ss(S'illegal'
p370
tp371
g1
(g7
tRp372
S'and'
p373
F0.5
sS'immigration,'
p374
F0.5
ss(S'is'
p375
S'actually'
p376
tp377
g1
(g7
tRp378
S'fair'
p379
F1
ss(S'responsibility'
p380
S'for'
p381
tp382
g1
(g7
tRp383
S'a'
F1
ss(S'at'
p384
g14
tp385
g1
(g7
tRp386
S'it'
p387
F1
ss(S'of'
p388
S'75'
p389
tp390
g1
(g7
tRp391
S'percent'
p392
F1
ss(S'a'
S'year'
p393
tp394
g1
(g7
tRp395
S''
F1
ss(S'de-fund'
p396
S'it'
p397
tp398
g1
(g7
tRp399
S''
F1
ss(S'about'
p400
S'these'
p401
tp402
g1
(g7
tRp403
S'hands'
p404
F1
ss(S'join'
p405
tp406
g1
(g7
tRp407
S'hands'
p408
F1
ss(S'gets'
p409
S'to'
p410
tp411
g1
(g7
tRp412
S'redefine'
p413
F1
ss(g68
tp414
g1
(g7
tRp415
g71
F1
ss(S'fruit'
p416
S'salad'
p417
tp418
g1
(g7
tRp419
S'of'
p420
F1
ss(g128
S'organization'
p421
tp422
g1
(g7
tRp423
S'like'
p424
F1
ss(g212
S'to'
p425
tp426
g1
(g7
tRp427
S'conform'
p428
F0.12592592592592594
sS'remember'
p429
F0.12592592592592594
sS'pay'
p430
F0.24444444444444452
sS'stop'
p431
F0.12592592592592594
sg68
F0.12592592592592594
sS'encourage'
p432
F0.12592592592592594
sS'present'
p433
F0.12592592592592594
ss(g263
tp434
g1
(g7
tRp435
g264
F1
ss(S'Supreme'
p436
tp437
g1
(g7
tRp438
S'Court'
p439
F1
ss(S'within'
p440
S'their'
p441
tp442
g1
(g7
tRp443
S'health'
p444
F0.5
sS'family'
p445
F0.5
ss(S'and'
p446
S'choose'
p447
tp448
g1
(g7
tRp449
g141
F1
ss(S'easily'
p450
tp451
g1
(g7
tRp452
S''
F1
ss(S'these'
p453
S'problems'
p454
tp455
g1
(g7
tRp456
S'by'
p457
F1
ss(S'rights,'
p458
tp459
g1
(g7
tRp460
S'nobody'
p461
F1
ss(S'God'
p462
S'have'
p463
tp464
g1
(g7
tRp465
g366
F1
ss(S'only'
p466
S'the'
p467
tp468
g1
(g7
tRp469
S'North'
p470
F1
ss(S'not'
S'vote'
p471
tp472
g1
(g7
tRp473
S''
F1
ss(S'--'
p474
S'your'
p475
tp476
g1
(g7
tRp477
S'catastrophic'
p478
F1
ss(S'citizens,'
p479
tp480
g1
(g7
tRp481
S'they'
p482
F1
ss(S"let's"
p483
S'look'
p484
tp485
g1
(g7
tRp486
S'at'
p487
F1
ss(S'than'
p488
S'an'
p489
tp490
g1
(g7
tRp491
S'interview'
p492
F1
ss(g22
g25
tp493
g1
(g7
tRp494
S'things'
p495
F1
ss(S'just'
S'add'
p496
tp497
g1
(g7
tRp498
S'my'
p499
F1
ss(S'I'
S'do'
p500
tp501
g1
(g7
tRp502
g195
F1
ss(S'they'
p503
g336
tp504
g1
(g7
tRp505
S''
F1
ss(S'backs'
p506
tp507
g1
(g7
tRp508
S'on'
p509
F1
ss(S'policy'
p510
tp511
g1
(g7
tRp512
S'with'
p513
F0.5
sS'where'
p514
F0.5
ss(S'is'
p515
S'catastrophic'
p516
tp517
g1
(g7
tRp518
S'healthcare'
p519
F1
ss(S'well,'
p520
tp521
g1
(g7
tRp522
S'first'
p523
F1
ss(S'foundation,'
p524
S'and'
p525
tp526
g1
(g7
tRp527
S'the'
p528
F1
ss(S'them'
p529
S'have'
p530
tp531
g1
(g7
tRp532
S'to'
p533
F1
ss(S"didn't"
p534
tp535
g1
(g7
tRp536
S'ask'
p537
F0.12820512820512819
sS'get'
p538
F0.24786324786324787
sS'hear'
p539
F0.12820512820512819
sS'think'
p540
F0.12820512820512819
sg89
F0.36752136752136749
ss(g432
tp541
g1
(g7
tRp542
S'them'
p543
F1
ss(g335
S'have'
p544
tp545
g1
(g7
tRp546
g67
F1
ss(S'less'
S'money'
p547
tp548
g1
(g7
tRp549
g81
F1
ss(S'associations'
p550
S'do'
p551
tp552
g1
(g7
tRp553
S'they'
p554
F1
ss(S'have'
p555
S'fashioned'
p556
tp557
g1
(g7
tRp558
S'virtually'
p559
F1
ss(S'Secondly,'
p560
tp561
g1
(g7
tRp562
S'several'
p563
F1
ss(S'I'
S"couldn't"
p564
tp565
g1
(g7
tRp566
S'find'
p567
F1
ss(S'person,'
p568
S'but'
p569
tp570
g1
(g7
tRp571
g307
F1
ss(S'be'
p572
S'fair'
p573
tp574
g1
(g7
tRp575
S''
F0.21428571428571427
sS'to'
p576
F0.7857142857142857
ss(S'are'
p577
g272
tp578
g1
(g7
tRp579
g273
F1
ss(S'something'
p580
tp581
g1
(g7
tRp582
g314
F1
ss(S'Elected'
p583
tp584
g1
(g7
tRp585
S'Officials,'
p586
F1
ss(S'to'
p587
S'come'
p588
tp589
g1
(g7
tRp590
g296
F0.5
sS'back'
p591
F0.5
ss(S'healthcare'
p592
S'with'
p593
tp594
g1
(g7
tRp595
S''
F1
ss(S'of'
p596
g453
tp597
g1
(g7
tRp598
g454
F1
ss(S'Japan'
p599
S'and'
p600
tp601
g1
(g7
tRp602
S'South'
p603
F1
ss(S'it,'
p604
S'although'
p605
tp606
g1
(g7
tRp607
S'if'
p608
F1
ss(S'solutions'
p609
S'tonight'
p610
tp611
g1
(g7
tRp612
S''
F1
ss(S'Justice'
p613
S'Scalia'
p614
tp615
g1
(g7
tRp616
S''
F1
ss(S'A'
tp617
g1
(g7
tRp618
S'tremendous'
p619
F0.5
sS'concierge'
p620
F0.5
ss(S'the'
p621
S'message'
p622
tp623
g1
(g7
tRp624
S'that'
p625
F1
ss(S'Think'
p626
tp627
g1
(g7
tRp628
S'about'
p629
F1
ss(S'Kim'
p630
S'Jung'
p631
tp632
g1
(g7
tRp633
S'Un'
p634
F1
ss(S'say'
p635
S'that'
p636
tp637
g1
(g7
tRp638
S'I'
F1
ss(S'buy'
p639
S'your'
p640
tp641
g1
(g7
tRp642
S'catastrophic'
p643
F1
ss(S"we're"
p644
S'going'
p645
tp646
g1
(g7
tRp647
S'to'
p648
F1
ss(S'are'
p649
S'here'
p650
tp651
g1
(g7
tRp652
S'already,'
p653
F1
ss(S'everybody'
p654
g326
tp655
g1
(g7
tRp656
S'the'
p657
F1
ss(g429
S'is'
p658
tp659
g1
(g7
tRp660
S'even'
p661
F1
ss(S'for'
p662
S'your'
p663
tp664
g1
(g7
tRp665
S'own'
p666
F1
ss(S'said'
p667
tp668
g1
(g7
tRp669
g483
F0.48571428571428577
sS"you're"
p670
F0.25714285714285712
sg77
F0.25714285714285712
ss(S'Association'
p671
tp672
g1
(g7
tRp673
S'for'
p674
F1
ss(S'first'
p675
tp676
g1
(g7
tRp677
S'of'
p678
F0.69999999999999996
sS'part'
p679
F0.14999999999999999
sS'met'
p680
F0.14999999999999999
ss(S'our'
p681
S'system'
p682
tp683
g1
(g7
tRp684
S''
F1
ss(S'fabric'
p685
tp686
g1
(g7
tRp687
S'of'
p688
F1
ss(S"That's"
p689
S'unfair'
p690
tp691
g1
(g7
tRp692
S''
F1
ss(g232
tp693
g1
(g7
tRp694
g233
F0.5
sS'because'
p695
F0.5
ss(S'in'
p696
S'disbelief'
p697
tp698
g1
(g7
tRp699
S''
F1
ss(g313
S'on'
p700
tp701
g1
(g7
tRp702
S'healthcare'
p703
F1
ss(S'else'
p704
tp705
g1
(g7
tRp706
S''
F0.48571428571428577
sS'and'
p707
F0.25714285714285712
sS'goes'
p708
F0.25714285714285712
ss(S'they'
p709
g338
tp710
g1
(g7
tRp711
g102
F1
ss(g533
g428
tp712
g1
(g7
tRp713
S'to'
p714
F1
ss(g38
tp715
g1
(g7
tRp716
S''
F1
ss(S'that'
p717
tp718
g1
(g7
tRp719
S''
F0.1529661016949152
sS'area,'
p720
F0.025847457627118632
sS'we'
p721
F0.12754237288135589
sS'last'
p722
F0.025847457627118632
sS'give'
p723
F0.025847457627118632
sS'I'
F0.10211864406779657
sg375
F0.12754237288135589
sS'nobody'
p724
F0.025847457627118632
sS'seems'
p725
F0.025847457627118632
sS'anybody'
p726
F0.025847457627118632
sS'improve'
p727
F0.025847457627118632
sg135
F0.076694915254237259
sg226
F0.025847457627118632
sS'are'
p728
F0.025847457627118632
sg329
F0.051271186440677942
sS'our'
p729
F0.025847457627118632
sg218
F0.025847457627118632
sS'he'
p730
F0.025847457627118632
sS'nature'
p731
F0.025847457627118632
sS'if'
p732
F0.025847457627118632
ss(S'wrong'
p733
tp734
g1
(g7
tRp735
S''
F1
ss(S'long'
p736
tp737
g1
(g7
tRp738
S'time'
p739
F1
ss(S'every'
p740
tp741
g1
(g7
tRp742
S'policy,'
p743
F0.25
sg347
F0.25
sS'family'
p744
F0.25
sS'scratch'
p745
F0.25
ss(S'after'
p746
S'we'
p747
tp748
g1
(g7
tRp749
S'--'
p750
F0.5
sS'stop'
p751
F0.5
ss(S'take'
p752
S'care'
p753
tp754
g1
(g7
tRp755
g388
F1
ss(S'all,'
p756
g136
tp757
g1
(g7
tRp758
g137
F1
ss(S'sure'
p759
S'that'
p760
tp761
g1
(g7
tRp762
g730
F1
ss(S'$10,000'
p763
tp764
g1
(g7
tRp765
S'a'
F1
ss(S'any'
p766
g596
tp767
g1
(g7
tRp768
g453
F1
ss(S'And'
S'as'
p769
tp770
g1
(g7
tRp771
S'far'
p772
F0.5
sS'president,'
p773
F0.5
ss(S'state'
p774
S'of'
p775
tp776
g1
(g7
tRp777
S'dependence'
p778
F1
ss(g155
tp779
g1
(g7
tRp780
S'it'
p781
F0.28125
sg156
F0.28125
sS'is'
p782
F0.14583333333333334
sS'liberty'
p783
F0.14583333333333334
sS'people'
p784
F0.14583333333333334
ss(S'chaos'
p785
tp786
g1
(g7
tRp787
S'in'
p788
F1
ss(g332
S'not'
p789
tp790
g1
(g7
tRp791
g471
F0.5
sS'become'
p792
F0.5
ss(S'be'
p793
S'reasonable'
p794
tp795
g1
(g7
tRp796
S''
F1
ss(S'as'
p797
S'well'
p798
tp799
g1
(g7
tRp800
S''
F1
ss(S'borders'
p801
S'fairly'
p802
tp803
g1
(g7
tRp804
g450
F1
ss(g666
g118
tp805
g1
(g7
tRp806
S''
F1
ss(S'IRS'
p807
tp808
g1
(g7
tRp809
S'is'
p810
F1
ss(S'people'
p811
S'to'
p812
tp813
g1
(g7
tRp814
S'think'
p815
F1
ss(g25
g495
tp816
g1
(g7
tRp817
S'of'
p818
F1
ss(S'which'
p819
g352
tp820
g1
(g7
tRp821
g353
F1
ss(S'all'
p822
tp823
g1
(g7
tRp824
S''
F0.12698412698412698
sS'people'
p825
F0.12698412698412698
sS'--'
p826
F0.12698412698412698
sg170
F0.24603174603174605
sS'interested'
p827
F0.12698412698412698
sS'the'
p828
F0.24603174603174605
ss(S'ourselves'
p829
tp830
g1
(g7
tRp831
S''
F1
ss(g20
S'Mexico,'
p832
tp833
g1
(g7
tRp834
S'but'
p835
F1
ss(g725
tp836
g1
(g7
tRp837
S'to'
p838
F1
ss(g731
tp839
g1
(g7
tRp840
S''
F1
ss(S'people'
p841
S'coming'
p842
tp843
g1
(g7
tRp844
S'in'
p845
F1
ss(S'My'
p846
S'name'
p847
tp848
g1
(g7
tRp849
S'was'
p850
F1
ss(g387
g50
tp851
g1
(g7
tRp852
S'be'
p853
F1
ss(g27
g30
tp854
g1
(g7
tRp855
S'Part'
p856
F1
ss(S'for'
p857
tp858
g1
(g7
tRp859
S'everybody'
p860
F0.090909090909090925
sS'a'
F0.090909090909090925
sg822
F0.090909090909090925
sS'Latino'
p861
F0.090909090909090925
sS'it'
p862
F0.090909090909090925
sg357
F0.090909090909090925
sS'traditional'
p863
F0.090909090909090925
sg609
F0.090909090909090925
sS'each'
p864
F0.090909090909090925
sS'America'
p865
F0.090909090909090925
sg663
F0.090909090909090925
ss(S'other'
p866
tp867
g1
(g7
tRp868
S''
F0.19999999999999998
sg263
F0.19999999999999998
sS'nations'
p869
F0.19999999999999998
sS'people,'
p870
F0.19999999999999998
sg247
F0.19999999999999998
ss(S'you'
p871
S'tonight,'
p872
tp873
g1
(g7
tRp874
S'America,'
p875
F1
ss(S'in'
p876
S'which'
p877
tp878
g1
(g7
tRp879
S'to'
p880
F0.5
sS'we'
p881
F0.5
ss(S'to'
p882
S'do'
p883
tp884
g1
(g7
tRp885
S'is'
p886
F1
ss(S'secondary'
p887
tp888
g1
(g7
tRp889
S'to'
p890
F1
ss(S'National'
p891
tp892
g1
(g7
tRp893
g671
F0.5
sS'Prayer'
p894
F0.5
ss(S'it'
g52
tp895
g1
(g7
tRp896
S'every'
p897
F1
ss(g678
g756
tp898
g1
(g7
tRp899
S'I'
F0.20370370370370372
sS'healthcare'
p900
F0.20370370370370372
sg136
F0.38888888888888884
sS'people'
p901
F0.20370370370370372
ss(S'responsibility'
p902
S'of'
p903
tp904
g1
(g7
tRp905
S'Congress'
p906
F1
ss(S'together'
p907
tp908
g1
(g7
tRp909
S'a'
F1
ss(S'other'
g870
tp910
g1
(g7
tRp911
S'but,'
p912
F1
ss(g801
tp913
g1
(g7
tRp914
g802
F1
ss(S'Korea'
p915
S'is'
p916
tp917
g1
(g7
tRp918
S'concerned,'
p919
F1
ss(S'way'
g163
tp920
g1
(g7
tRp921
S'Republican'
p922
F1
ss(S"that's"
p923
tp924
g1
(g7
tRp925
S'probably'
p926
F0.17142857142857143
sS'the'
p927
F0.48571428571428571
sS'why'
p928
F0.17142857142857143
sS'left'
p929
F0.17142857142857143
ss(S'I'
S'think'
p930
tp931
g1
(g7
tRp932
S'everything'
p933
F0.12820512820512819
sS'we'
p934
F0.36752136752136749
sS'allowing'
p935
F0.12820512820512819
sS'they'
p936
F0.12820512820512819
sg923
F0.24786324786324787
ss(g907
S'a'
tp937
g1
(g7
tRp938
g736
F1
ss(S'in'
p939
S'same-sex'
p940
tp941
g1
(g7
tRp942
S'marriage'
p943
F1
ss(S'That'
p944
tp945
g1
(g7
tRp946
S'will'
p947
F0.65000000000000002
sS'would'
p948
F0.34999999999999998
ss(S'almost'
p949
g72
tp950
g1
(g7
tRp951
g75
F1
ss(g704
g708
tp952
g1
(g7
tRp953
S'through'
p954
F1
ss(S'--'
p955
S'we'
p956
tp957
g1
(g7
tRp958
S'have'
p959
F1
ss(S'to'
p960
S'talk'
p961
tp962
g1
(g7
tRp963
S'about'
p964
F0.5
sg223
F0.5
ss(S'to'
S'have'
p965
tp966
g1
(g7
tRp967
S'a'
F0.16666666666666666
sS'long-range'
p968
F0.16666666666666666
sS'catastrophic'
p969
F0.16666666666666666
sS'to'
p970
F0.16666666666666666
sS'policies'
p971
F0.16666666666666666
sS'nuclear'
p972
F0.16666666666666666
ss(g940
g943
tp973
g1
(g7
tRp974
S'the'
p975
F1
ss(S'able'
p976
tp977
g1
(g7
tRp978
S'to'
p979
F1
ss(g883
g886
tp980
g1
(g7
tRp981
S'be'
p982
F0.5
sS'to'
p983
F0.5
ss(S"It's"
p984
S'not'
p985
tp986
g1
(g7
tRp987
g227
F1
ss(g538
S'asked'
p988
tp989
g1
(g7
tRp990
S'about'
p991
F1
ss(S'though'
p992
g654
tp993
g1
(g7
tRp994
g326
F1
ss(S'participate,'
p995
g277
tp996
g1
(g7
tRp997
g278
F1
ss(S'this'
p998
S'man'
p999
tp1000
g1
(g7
tRp1001
S'is'
p1002
F1
ss(S'court'
p1003
tp1004
g1
(g7
tRp1005
S'order'
p1006
F1
ss(S'Breakfast,'
p1007
tp1008
g1
(g7
tRp1009
S'and'
p1010
F1
ss(S'the'
S'placement'
p1011
tp1012
g1
(g7
tRp1013
S'of'
p1014
F1
ss(S'by'
p1015
S'the'
p1016
tp1017
g1
(g7
tRp1018
S'grace'
p1019
F1
ss(g752
tp1020
g1
(g7
tRp1021
g753
F1
ss(S'real'
p1022
tp1023
g1
(g7
tRp1024
S'compassion'
p1025
F0.5
sg182
F0.5
ss(S'last'
p1026
S'thing'
p1027
tp1028
g1
(g7
tRp1029
S'we'
p1030
F0.5
sS'he'
p1031
F0.5
ss(S'know,'
p1032
S"it's"
p1033
tp1034
g1
(g7
tRp1035
S'like'
p1036
F1
ss(S'in,'
p1037
S'they'
p1038
tp1039
g1
(g7
tRp1040
g76
F1
ss(S'there'
p1041
tp1042
g1
(g7
tRp1043
S''
F0.48571428571428577
sS'several'
p1044
F0.25714285714285712
sg577
F0.25714285714285712
ss(g30
g856
tp1045
g1
(g7
tRp1046
S'C,'
p1047
F1
ss(g690
tp1048
g1
(g7
tRp1049
S''
F1
ss(S'anything,'
p1050
S'so'
p1051
tp1052
g1
(g7
tRp1053
S'they'
p1054
F1
ss(S'know,'
g630
tp1055
g1
(g7
tRp1056
g631
F1
ss(S'still'
p1057
g396
tp1058
g1
(g7
tRp1059
g397
F1
ss(S'the'
p1060
g370
tp1061
g1
(g7
tRp1062
g374
F1
ss(g722
tp1063
g1
(g7
tRp1064
g1027
F0.65000000000000002
sS'year'
p1065
F0.34999999999999998
ss(S'providing'
p1066
S'people'
p1067
tp1068
g1
(g7
tRp1069
S'with'
p1070
F1
ss(g923
g927
tp1071
g1
(g7
tRp1072
S'kind'
p1073
F0.34999999999999998
sg159
F0.65000000000000002
ss(g774
tp1074
g1
(g7
tRp1075
g775
F1
ss(S'less'
p1076
S'than'
p1077
tp1078
g1
(g7
tRp1079
S'borrowing'
p1080
F1
ss(g470
S'Koreans'
p1081
tp1082
g1
(g7
tRp1083
S'but'
p1084
F1
ss(S'the'
p1085
S'community'
p1086
tp1087
g1
(g7
tRp1088
S'as'
p1089
F1
ss(g62
S'strength'
p1090
tp1091
g1
(g7
tRp1092
S''
F1
ss(S'you'
p1093
S'know,'
p1094
tp1095
g1
(g7
tRp1096
g1033
F0.14285714285714288
sS'when'
p1097
F0.14285714285714288
sS"let's"
p1098
F0.14285714285714288
sS'how'
p1099
F0.14285714285714288
sg630
F0.14285714285714288
sS'you'
p1100
F0.14285714285714288
sg175
F0.14285714285714288
ss(S'most'
p1101
S'importantly,'
p1102
tp1103
g1
(g7
tRp1104
S'we'
p1105
F1
ss(S'the'
p1106
S'past'
p1107
tp1108
g1
(g7
tRp1109
S''
F1
ss(g194
g827
tp1110
g1
(g7
tRp1111
S'in'
p1112
F1
ss(S'the'
p1113
S'THAAD,'
p1114
tp1115
g1
(g7
tRp1116
S'the'
p1117
F1
ss(S'because'
p1118
g998
tp1119
g1
(g7
tRp1120
g999
F1
ss(g237
tp1121
g1
(g7
tRp1122
g240
F1
ss(g440
tp1123
g1
(g7
tRp1124
g441
F1
ss(S'do'
p1125
S'we'
p1126
tp1127
g1
(g7
tRp1128
S'take'
p1129
F1
ss(g688
S'America'
p1130
tp1131
g1
(g7
tRp1132
S''
F1
ss(S'to'
p1133
g430
tp1134
g1
(g7
tRp1135
S'a'
F0.5
sS'taxes'
p1136
F0.5
ss(S'FISA'
p1137
tp1138
g1
(g7
tRp1139
g22
F1
ss(S'through'
p1140
S'and'
p1141
tp1142
g1
(g7
tRp1143
S'I'
F1
ss(S'because'
p1144
S"it's"
p1145
tp1146
g1
(g7
tRp1147
S'not'
p1148
F1
ss(S'billion;'
p1149
tp1150
g1
(g7
tRp1151
g949
F1
ss(S'system'
p1152
tp1153
g1
(g7
tRp1154
S''
F0.25
sS'of'
p1155
F0.25
sS'in'
p1156
F0.25
sS'that'
p1157
F0.25
ss(S"that's"
p1158
g929
tp1159
g1
(g7
tRp1160
S'over'
p1161
F1
ss(S'paying'
p1162
tp1163
g1
(g7
tRp1164
S'interest'
p1165
F1
ss(S'search'
p1166
S'and'
p1167
tp1168
g1
(g7
tRp1169
g282
F1
ss(S'described'
p1170
tp1171
g1
(g7
tRp1172
S'--'
p1173
F1
ss(S'What'
p1174
tp1175
g1
(g7
tRp1176
S'have'
p1177
F0.20370370370370372
sg171
F0.20370370370370372
sS'we'
p1178
F0.20370370370370372
sS'kind'
p1179
F0.38888888888888884
ss(S'a'
S'chimney,'
p1180
tp1181
g1
(g7
tRp1182
S"everybody's"
p1183
F1
ss(S'to'
p1184
g740
tp1185
g1
(g7
tRp1186
g347
F1
ss(S'best'
p1187
S'way'
p1188
tp1189
g1
(g7
tRp1190
g162
F1
ss(g219
g166
tp1191
g1
(g7
tRp1192
g167
F1
ss(g739
S'ago'
p1193
tp1194
g1
(g7
tRp1195
S''
F1
ss(g983
S'reject'
p1196
tp1197
g1
(g7
tRp1198
S'Israel'
p1199
F1
ss(g743
S'looking'
p1200
tp1201
g1
(g7
tRp1202
S'at'
p1203
F1
ss(S'not'
p1204
S'a'
tp1205
g1
(g7
tRp1206
S'right'
p1207
F1
ss(g631
tp1208
g1
(g7
tRp1209
g634
F1
ss(S'just'
p1210
S'like'
p1211
tp1212
g1
(g7
tRp1213
S'we'
p1214
F1
ss(g326
tp1215
g1
(g7
tRp1216
g657
F0.33333333333333331
sg99
F0.33333333333333331
sS'been'
p1217
F0.33333333333333331
ss(S'money'
p1218
tp1219
g1
(g7
tRp1220
g440
F0.25
sg81
F0.25
sS'from'
p1221
F0.25
sg1158
F0.25
ss(S'finish,'
p1222
tp1223
g1
(g7
tRp1224
S'because'
p1225
F1
ss(S'strategic'
p1226
S'defense'
p1227
tp1228
g1
(g7
tRp1229
S'initiative'
p1230
F1
ss(S'encouraging'
p1231
tp1232
g1
(g7
tRp1233
S'the'
p1234
F0.65000000000000002
sg785
F0.34999999999999998
ss(g845
S'from'
p1235
tp1236
g1
(g7
tRp1237
S'South'
p1238
F1
ss(g75
S'people'
p1239
tp1240
g1
(g7
tRp1241
g995
F1
ss(g1207
tp1242
g1
(g7
tRp1243
S''
F1
ss(g1196
g1199
tp1244
g1
(g7
tRp1245
S''
F1
ss(g457
S'trying'
p1246
tp1247
g1
(g7
tRp1248
S'to'
p1249
F1
ss(g343
tp1250
g1
(g7
tRp1251
S'within'
p1252
F0.5
sg346
F0.5
ss(S'they'
p1253
g337
tp1254
g1
(g7
tRp1255
S'have'
p1256
F1
ss(g901
g635
tp1257
g1
(g7
tRp1258
g636
F1
ss(g1011
tp1259
g1
(g7
tRp1260
g1014
F1
ss(g223
g226
tp1261
g1
(g7
tRp1262
S''
F1
ss(S'lot'
p1263
g1076
tp1264
g1
(g7
tRp1265
g547
F0.5
sg1077
F0.5
ss(S'want'
p1266
S'and'
p1267
tp1268
g1
(g7
tRp1269
S'what'
p1270
F1
ss(S'to'
p1271
g405
tp1272
g1
(g7
tRp1273
g408
F1
ss(S'a'
S'whole'
p1274
tp1275
g1
(g7
tRp1276
S''
F0.5
sS'or'
p1277
F0.5
ss(S'are'
p1278
S'getting'
p1279
tp1280
g1
(g7
tRp1281
S'across'
p1282
F1
ss(S'and'
p1283
tp1284
g1
(g7
tRp1285
S'all'
p1286
F0.028659611992945328
sg282
F0.028659611992945328
sS'healed'
p1287
F0.028659611992945328
sS'our'
p1288
F0.028659611992945328
sS'intellect'
p1289
F0.028659611992945328
sg1270
F0.028659611992945328
sS'justice'
p1290
F0.056878306878306882
sg495
F0.028659611992945328
sS'revive'
p1291
F0.028659611992945328
sS'everything'
p1292
F0.028659611992945328
sg447
F0.028659611992945328
sg145
F0.028659611992945328
sS'correct'
p1293
F0.028659611992945328
sS'then'
p1294
F0.056878306878306882
sS'we'
p1295
F0.056878306878306882
sS'Central'
p1296
F0.028659611992945328
sg132
F0.028659611992945328
sS'I'
F0.085097001763668439
sS'failure'
p1297
F0.028659611992945328
sS'they'
p1298
F0.056878306878306882
sg259
F0.028659611992945328
sg603
F0.028659611992945328
sg95
F0.028659611992945328
sS'unreasonable'
p1299
F0.028659611992945328
sg832
F0.028659611992945328
sS'become'
p1300
F0.028659611992945328
sS'the'
p1301
F0.056878306878306882
sS"that's"
p1302
F0.028659611992945328
ss(g853
S'the'
p1303
tp1304
g1
(g7
tRp1305
S'last'
p1306
F1
ss(g726
g704
tp1307
g1
(g7
tRp1308
g708
F1
ss(g405
g408
tp1309
g1
(g7
tRp1310
S'with'
p1311
F1
ss(S'But'
g1022
tp1312
g1
(g7
tRp1313
g1025
F1
ss(S'Defense,'
p1314
tp1315
g1
(g7
tRp1316
S'that'
p1317
F1
ss(S'sudden,'
p1318
tp1319
g1
(g7
tRp1320
S'they'
p1321
F1
ss(g620
S'practice'
p1322
tp1323
g1
(g7
tRp1324
S''
F1
ss(S'someone'
p1325
S'had'
p1326
tp1327
g1
(g7
tRp1328
S'tried'
p1329
F1
ss(S'access'
p1330
S'than'
p1331
tp1332
g1
(g7
tRp1333
S'we'
p1334
F1
ss(g643
S'insurance'
p1335
tp1336
g1
(g7
tRp1337
S''
F1
ss(S'and'
p1338
g1302
tp1339
g1
(g7
tRp1340
g926
F1
ss(S'the'
p1341
S'people'
p1342
tp1343
g1
(g7
tRp1344
S''
F0.5
sS'who'
p1345
F0.5
ss(g724
S'will'
p1346
tp1347
g1
(g7
tRp1348
S'want'
p1349
F1
ss(g689
tp1350
g1
(g7
tRp1351
g690
F0.5
sS'why'
p1352
F0.5
ss(S'acceptable'
p1353
S'record'
p1354
tp1355
g1
(g7
tRp1356
S''
F1
ss(S'extra'
p1357
S'rights'
p1358
tp1359
g1
(g7
tRp1360
S''
F1
ss(g1225
S'I'
tp1361
g1
(g7
tRp1362
S"didn't"
p1363
F0.34999999999999998
sS"don't"
p1364
F0.65000000000000002
ss(S'off'
p1365
S'the'
p1366
tp1367
g1
(g7
tRp1368
S'abyss'
p1369
F1
ss(S'many,'
p1370
g131
tp1371
g1
(g7
tRp1372
g132
F1
ss(g635
tp1373
g1
(g7
tRp1374
g318
F0.5
sg636
F0.5
ss(S'are'
p1375
S'that'
p1376
tp1377
g1
(g7
tRp1378
S''
F1
ss(S'menu,'
p1379
tp1380
g1
(g7
tRp1381
g1210
F1
ss(S"That's"
g1352
tp1382
g1
(g7
tRp1383
S'we'
p1384
F1
ss(S'strategic'
p1385
S'partner'
p1386
tp1387
g1
(g7
tRp1388
g356
F1
ss(S'that'
p1389
g726
tp1390
g1
(g7
tRp1391
g704
F1
ss(S'a'
S'guest'
p1392
tp1393
g1
(g7
tRp1394
S'worker,'
p1395
F1
ss(g98
g727
tp1396
g1
(g7
tRp1397
S'the'
p1398
F1
ss(S'our'
p1399
S'religious'
p1400
tp1401
g1
(g7
tRp1402
S'freedom'
p1403
F1
ss(S'had'
p1404
g580
tp1405
g1
(g7
tRp1406
g314
F1
ss(S'to'
p1407
S'secure'
p1408
tp1409
g1
(g7
tRp1410
S'all'
p1411
F1
ss(g52
g897
tp1412
g1
(g7
tRp1413
g744
F1
ss(S'did,'
p1414
S'I'
tp1415
g1
(g7
tRp1416
S'would'
p1417
F1
ss(S'terms'
p1418
S'of'
p1419
tp1420
g1
(g7
tRp1421
g1341
F1
ss(g784
S'the'
p1422
tp1423
g1
(g7
tRp1424
S'ability'
p1425
F1
ss(g1148
S'just'
p1426
tp1427
g1
(g7
tRp1428
g841
F1
ss(S'that'
p1429
g724
tp1430
g1
(g7
tRp1431
g1346
F1
ss(S'can'
p1432
S'always'
p1433
tp1434
g1
(g7
tRp1435
S'be'
p1436
F1
ss(g127
S'because'
p1437
tp1438
g1
(g7
tRp1439
S'I'
F1
ss(g723
g783
tp1440
g1
(g7
tRp1441
S'and'
p1442
F1
ss(S'attract'
p1443
tp1444
g1
(g7
tRp1445
g323
F1
ss(S"what's"
p1446
S'going'
p1447
tp1448
g1
(g7
tRp1449
S'on'
p1450
F1
ss(g95
g98
tp1451
g1
(g7
tRp1452
g727
F1
ss(S'movie'
p1453
S'was'
p1454
tp1455
g1
(g7
tRp1456
S'made'
p1457
F1
ss(S'We'
S'have'
p1458
tp1459
g1
(g7
tRp1460
S'a'
F1
ss(g708
g954
tp1461
g1
(g7
tRp1462
S''
F1
ss(S'a'
S'six-month'
p1463
tp1464
g1
(g7
tRp1465
S'period'
p1466
F1
ss(g75
tp1467
g1
(g7
tRp1468
g1239
F1
ss(S'society,'
p1469
tp1470
g1
(g7
tRp1471
S'and'
p1472
F1
ss(g564
g567
tp1473
g1
(g7
tRp1474
S'a'
F1
ss(S'everybody,'
p1475
tp1476
g1
(g7
tRp1477
S'you'
p1478
F1
ss(g142
g145
tp1479
g1
(g7
tRp1480
S''
F1
ss(S'rid'
p1481
S'of'
p1482
tp1483
g1
(g7
tRp1484
S'them'
p1485
F1
ss(g48
S'the'
p1486
tp1487
g1
(g7
tRp1488
S'judicial'
p1489
F0.33333333333333331
sg1003
F0.33333333333333331
sS'same'
p1490
F0.33333333333333331
ss(g778
tp1491
g1
(g7
tRp1492
S'and'
p1493
F1
ss(g1292
S'else'
p1494
tp1495
g1
(g7
tRp1496
S''
F1
ss(S'find'
p1497
g232
tp1498
g1
(g7
tRp1499
g233
F0.5
sg695
F0.5
ss(S'Almost'
p1500
tp1501
g1
(g7
tRp1502
S'$500'
p1503
F1
ss(S'of'
p1504
S'this'
p1505
tp1506
g1
(g7
tRp1507
S'nation,'
p1508
F1
ss(S'to'
p1509
S'become'
p1510
tp1511
g1
(g7
tRp1512
S'an'
p1513
F1
ss(S'such'
p1514
tp1515
g1
(g7
tRp1516
S'a'
F1
ss(g145
tp1517
g1
(g7
tRp1518
S''
F1
ss(g583
g586
tp1519
g1
(g7
tRp1520
S'I'
F1
ss(S'you'
p1521
S'would'
p1522
tp1523
g1
(g7
tRp1524
S'have'
p1525
F1
ss(g1433
g1436
tp1526
g1
(g7
tRp1527
S'fair'
p1528
F1
ss(g1196
tp1529
g1
(g7
tRp1530
g1199
F1
ss(S'have'
p1531
S'mechanisms'
p1532
tp1533
g1
(g7
tRp1534
S'in'
p1535
F1
ss(S'So'
g111
tp1536
g1
(g7
tRp1537
S'I'
F1
ss(S'much'
p1538
g310
tp1539
g1
(g7
tRp1540
g313
F1
ss(g838
S'disturb'
p1541
tp1542
g1
(g7
tRp1543
S'not'
p1544
F1
ss(S'costs'
p1545
S'$1,500'
p1546
tp1547
g1
(g7
tRp1548
S'a'
F1
ss(S'many'
p1549
S'other'
p1550
tp1551
g1
(g7
tRp1552
g869
F1
ss(S'against'
p1553
tp1554
g1
(g7
tRp1555
S'illegal'
p1556
F1
ss(S'of'
p1557
S'utilizing'
p1558
tp1559
g1
(g7
tRp1560
S'our'
p1561
F1
ss(S'next'
p1562
S'year'
p1563
tp1564
g1
(g7
tRp1565
S'and'
p1566
F0.5
sS''
F0.5
ss(S'man,'
p1567
tp1568
g1
(g7
tRp1569
g255
F1
ss(g927
g1073
tp1570
g1
(g7
tRp1571
S'of'
p1572
F1
ss(g21
S'you'
p1573
tp1574
g1
(g7
tRp1575
S'30'
p1576
F1
ss(g17
g21
tp1577
g1
(g7
tRp1578
g1573
F1
ss(S'Terminal'
p1579
S'High-Altitude'
p1580
tp1581
g1
(g7
tRp1582
S'Area'
p1583
F1
ss(g203
S'thousands'
p1584
tp1585
g1
(g7
tRp1586
S'of'
p1587
F1
ss(S'middle'
p1588
S'man'
p1589
tp1590
g1
(g7
tRp1591
S''
F1
ss(S'with'
p1592
g599
tp1593
g1
(g7
tRp1594
g600
F1
ss(S'missile'
p1595
tp1596
g1
(g7
tRp1597
g384
F1
ss(g1165
tp1598
g1
(g7
tRp1599
S'on'
p1600
F1
ss(g1155
S'taxation'
p1601
tp1602
g1
(g7
tRp1603
S'in'
p1604
F1
ss(g1425
tp1605
g1
(g7
tRp1606
S'to'
p1607
F1
ss(g30
tp1608
g1
(g7
tRp1609
g856
F1
ss(g63
tp1610
g1
(g7
tRp1611
S'and'
p1612
F0.5
sg64
F0.5
ss(S'whine'
p1613
S'a'
tp1614
g1
(g7
tRp1615
g285
F1
ss(g343
g346
tp1616
g1
(g7
tRp1617
g303
F1
ss(S'mention'
p1618
S'that'
p1619
tp1620
g1
(g7
tRp1621
g722
F1
ss(S'of'
S'them'
p1622
tp1623
g1
(g7
tRp1624
S''
F0.5
sS'now'
p1625
F0.5
ss(g1126
g1129
tp1626
g1
(g7
tRp1627
S'care'
p1628
F1
ss(g424
S'that'
p1629
tp1630
g1
(g7
tRp1631
S'is'
p1632
F1
ss(g745
tp1633
g1
(g7
tRp1634
S'covered'
p1635
F1
ss(S'life'
p1636
S'is'
p1637
tp1638
g1
(g7
tRp1639
S'what'
p1640
F1
ss(S'So'
S"dad's"
p1641
tp1642
g1
(g7
tRp1643
S'$500'
p1644
F1
ss(S'And'
S'this'
p1645
tp1646
g1
(g7
tRp1647
S'is'
p1648
F1
ss(g828
S'borders,'
p1649
tp1650
g1
(g7
tRp1651
g1144
F1
ss(g999
g1002
tp1652
g1
(g7
tRp1653
S'going'
p1654
F1
ss(S'citizen,'
p1655
S'they'
p1656
tp1657
g1
(g7
tRp1658
g54
F1
ss(g430
tp1659
g1
(g7
tRp1660
S'a'
F0.25714285714285712
sg1136
F0.25714285714285712
sS'for'
p1661
F0.48571428571428577
ss(g620
tp1662
g1
(g7
tRp1663
g1322
F1
ss(g185
tp1664
g1
(g7
tRp1665
S''
F1
ss(S'the'
p1666
g891
tp1667
g1
(g7
tRp1668
g671
F0.5
sg894
F0.5
ss(g463
g366
tp1669
g1
(g7
tRp1670
g369
F1
ss(S'the'
p1671
S'question'
p1672
tp1673
g1
(g7
tRp1674
S''
F1
ss(g447
g141
tp1675
g1
(g7
tRp1676
g142
F1
ss(g912
tp1677
g1
(g7
tRp1678
S'you'
p1679
F1
ss(S'Can'
p1680
tp1681
g1
(g7
tRp1682
S'somebody'
p1683
F1
ss(S'And'
S'now,'
p1684
tp1685
g1
(g7
tRp1686
S'as'
p1687
F1
ss(g564
tp1688
g1
(g7
tRp1689
g567
F1
ss(S'I'
g1404
tp1690
g1
(g7
tRp1691
g580
F1
ss(g1073
tp1692
g1
(g7
tRp1693
g1572
F1
ss(S'or'
p1694
S'a'
tp1695
g1
(g7
tRp1696
S'cousin'
p1697
F1
ss(g478
S'healthcare'
p1698
tp1699
g1
(g7
tRp1700
S''
F0.5
sS'is'
p1701
F0.5
ss(g697
tp1702
g1
(g7
tRp1703
S''
F1
ss(S'thing'
p1704
tp1705
g1
(g7
tRp1706
g1030
F0.33333333333333331
sS'coming'
p1707
F0.33333333333333331
sg1031
F0.33333333333333331
ss(g278
g281
tp1708
g1
(g7
tRp1709
g164
F1
ss(S'in'
p1710
S'that'
p1711
tp1712
g1
(g7
tRp1713
g720
F1
ss(S'Party'
p1714
tp1715
g1
(g7
tRp1716
S'generally'
p1717
F1
ss(S'candidates'
p1718
tp1719
g1
(g7
tRp1720
S'to'
p1721
F1
ss(S'need'
p1722
g882
tp1723
g1
(g7
tRp1724
g883
F0.19886363636363635
sg1408
F0.10227272727272728
sg793
F0.29545454545454547
sS'get'
p1725
F0.10227272727272728
sg965
F0.19886363636363635
sg588
F0.10227272727272728
ss(S"you're"
p1726
S'encouraging'
p1727
tp1728
g1
(g7
tRp1729
g785
F1
ss(S'insurance'
p1730
S'carrier'
p1731
tp1732
g1
(g7
tRp1733
S'with'
p1734
F1
ss(S'cigarettes'
p1735
S'because'
p1736
tp1737
g1
(g7
tRp1738
g191
F1
ss(g1505
g1508
tp1739
g1
(g7
tRp1740
S'and'
p1741
F1
ss(g170
S'our'
p1742
tp1743
g1
(g7
tRp1744
S'rights'
p1745
F1
ss(g1070
S'a'
tp1746
g1
(g7
tRp1747
g186
F0.5
sS'ladder'
p1748
F0.5
ss(S'And'
p1749
S"I've"
p1750
tp1751
g1
(g7
tRp1752
S'already'
p1753
F1
ss(S'things'
p1754
S'in'
p1755
tp1756
g1
(g7
tRp1757
S'South'
p1758
F1
ss(S'this'
p1759
S'country'
p1760
tp1761
g1
(g7
tRp1762
S'that'
p1763
F1
ss(S'would'
p1764
g319
tp1765
g1
(g7
tRp1766
g322
F1
ss(g591
tp1767
g1
(g7
tRp1768
S'and'
p1769
F1
ss(S'lot'
p1770
S'more'
p1771
tp1772
g1
(g7
tRp1773
S'flexibility'
p1774
F0.5
sg488
F0.5
ss(S'back-tax'
p1775
tp1776
g1
(g7
tRp1777
S'penalty,'
p1778
F1
ss(g943
tp1779
g1
(g7
tRp1780
g975
F1
ss(S'a'
S'Fourth'
p1781
tp1782
g1
(g7
tRp1783
S'Amendment'
p1784
F1
ss(S'know,'
p1785
g1100
tp1786
g1
(g7
tRp1787
S'want'
p1788
F1
ss(g576
g1475
tp1789
g1
(g7
tRp1790
g1478
F1
ss(S'do'
p1791
S'should'
p1792
tp1793
g1
(g7
tRp1794
g572
F1
ss(g979
S'defend'
p1795
tp1796
g1
(g7
tRp1797
g829
F1
ss(S'Ted,'
p1798
S'John,'
p1799
tp1800
g1
(g7
tRp1801
S'we'
p1802
F1
ss(g861
g583
tp1803
g1
(g7
tRp1804
g586
F1
ss(S'listened'
p1805
tp1806
g1
(g7
tRp1807
g696
F1
ss(S'that,'
p1808
S'I'
tp1809
g1
(g7
tRp1810
S'think'
p1811
F1
ss(g1781
g1784
tp1812
g1
(g7
tRp1813
S''
F1
ss(S'propose'
p1814
S'a'
tp1815
g1
(g7
tRp1816
g1152
F1
ss(S'These'
p1817
tp1818
g1
(g7
tRp1819
S'hands'
p1820
F1
ss(S'not'
p1821
S'only'
p1822
tp1823
g1
(g7
tRp1824
S'to'
p1825
F0.5
sg467
F0.5
ss(S'But'
g1101
tp1826
g1
(g7
tRp1827
g1102
F1
ss(S'only'
p1828
g1704
tp1829
g1
(g7
tRp1830
g1707
F1
ss(S'left'
p1831
tp1832
g1
(g7
tRp1833
S'over'
p1834
F1
ss(g72
g75
tp1835
g1
(g7
tRp1836
g1239
F1
ss(S'twice'
p1837
tp1838
g1
(g7
tRp1839
S'as'
p1840
F1
ss(S'be'
S'developing'
p1841
tp1842
g1
(g7
tRp1843
g1226
F1
ss(g86
g89
tp1844
g1
(g7
tRp1845
g232
F0.34999999999999998
sg1050
F0.65000000000000002
ss(g42
g121
tp1846
g1
(g7
tRp1847
g122
F1
ss(g534
g539
tp1848
g1
(g7
tRp1849
S'the'
p1850
F1
ss(S'Yes,'
p1851
S'amen,'
p1852
tp1853
g1
(g7
tRp1854
S'amen'
p1855
F1
ss(g1546
tp1856
g1
(g7
tRp1857
S'a'
F0.5
sS'one'
p1858
F0.5
ss(g89
tp1859
g1
(g7
tRp1860
S'a'
F0.20833333333333334
sg232
F0.39583333333333331
sg1050
F0.39583333333333331
ss(S'think'
g923
tp1861
g1
(g7
tRp1862
g927
F1
ss(S'situation'
p1863
S'that'
p1864
tp1865
g1
(g7
tRp1866
g375
F1
ss(S'ago,'
p1867
S'I'
tp1868
g1
(g7
tRp1869
S'talked'
p1870
F1
ss(g744
S'their'
p1871
tp1872
g1
(g7
tRp1873
S'own'
p1874
F1
ss(S'And'
S'then'
p1875
tp1876
g1
(g7
tRp1877
g85
F1
ss(S'when'
p1878
S'we'
p1879
tp1880
g1
(g7
tRp1881
S'got'
p1882
F0.5
sS'fix'
p1883
F0.5
ss(g661
tp1884
g1
(g7
tRp1885
g992
F1
ss(S'opportunity'
p1886
S'to'
p1887
tp1888
g1
(g7
tRp1889
S'climb'
p1890
F1
ss(S'an'
p1891
S'honorary'
p1892
tp1893
g1
(g7
tRp1894
S'degree'
p1895
F1
ss(S'look'
p1896
tp1897
g1
(g7
tRp1898
S'at'
p1899
F1
ss(S'But'
S'what'
p1900
tp1901
g1
(g7
tRp1902
S'we'
p1903
F1
ss(S'destroy'
p1904
S'each'
p1905
tp1906
g1
(g7
tRp1907
g866
F1
ss(g1580
tp1908
g1
(g7
tRp1909
g1583
F1
ss(g900
S'is'
p1910
tp1911
g1
(g7
tRp1912
g1204
F0.5
sS'going'
p1913
F0.5
ss(S'border'
p1914
tp1915
g1
(g7
tRp1916
S''
F1
ss(g631
g634
tp1917
g1
(g7
tRp1918
S'is'
p1919
F1
ss(g1077
tp1920
g1
(g7
tRp1921
g1334
F0.33333333333333331
sg1080
F0.33333333333333331
sg489
F0.33333333333333331
ss(g667
g670
tp1922
g1
(g7
tRp1923
S'going'
p1924
F1
ss(S'to'
g793
tp1925
g1
(g7
tRp1926
g976
F0.20370370370370372
sg794
F0.20370370370370372
sS'fair'
p1927
F0.38888888888888884
sg1841
F0.20370370370370372
ss(g1302
g926
tp1928
g1
(g7
tRp1929
S'the'
p1930
F1
ss(S'a'
S'special'
p1931
tp1932
g1
(g7
tRp1933
S'attention'
p1934
F1
ss(S'So,'
p1935
tp1936
g1
(g7
tRp1937
S"it's"
p1938
F1
ss(S'still'
p1939
g1414
tp1940
g1
(g7
tRp1941
S'I'
F1
ss(g166
tp1942
g1
(g7
tRp1943
g167
F1
ss(S'a'
g1263
tp1944
g1
(g7
tRp1945
S'better'
p1946
F0.14583333333333334
sS'of'
p1947
F0.14583333333333334
sg1076
F0.28125
sg286
F0.14583333333333334
sg1771
F0.28125
ss(S'can'
p1948
S'pass'
p1949
tp1950
g1
(g7
tRp1951
S'it'
p1952
F1
ss(S'for'
p1953
g864
tp1954
g1
(g7
tRp1955
g1567
F1
ss(g126
S'his'
p1956
tp1957
g1
(g7
tRp1958
g1735
F1
ss(g1935
g1938
tp1959
g1
(g7
tRp1960
S'like'
p1961
F1
ss(g179
tp1962
g1
(g7
tRp1963
g214
F1
ss(g1778
tp1964
g1
(g7
tRp1965
S'have'
p1966
F1
ss(S'a'
S'much'
p1967
tp1968
g1
(g7
tRp1969
S'more'
p1970
F1
ss(S'will'
p1971
g1443
tp1972
g1
(g7
tRp1973
g323
F1
ss(S'things'
p1974
S'is'
p1975
tp1976
g1
(g7
tRp1977
S'bad'
p1978
F1
ss(g1978
S'for'
p1979
tp1980
g1
(g7
tRp1981
g865
F1
ss(g1563
g1566
tp1982
g1
(g7
tRp1983
g1301
F1
ss(S'that'
p1984
S'I'
tp1985
g1
(g7
tRp1986
g39
F0.25
sg1613
F0.25
sg555
F0.25
sS'give'
p1987
F0.25
ss(S'the'
p1988
S'reason'
p1989
tp1990
g1
(g7
tRp1991
g1984
F1
ss(g191
g194
tp1992
g1
(g7
tRp1993
g827
F1
ss(S'be'
g976
tp1994
g1
(g7
tRp1995
g979
F1
ss(S'should'
p1996
S'make'
p1997
tp1998
g1
(g7
tRp1999
g759
F1
ss(g1532
tp2000
g1
(g7
tRp2001
g1535
F1
ss(g1745
tp2002
g1
(g7
tRp2003
S''
F0.65000000000000002
sS'as'
p2004
F0.34999999999999998
ss(S'the'
g1562
tp2005
g1
(g7
tRp2006
g1563
F1
ss(g1802
S'will'
p2007
tp2008
g1
(g7
tRp2009
S'not'
p2010
F0.33333333333333331
sg1443
F0.33333333333333331
sS'lose'
p2011
F0.33333333333333331
ss(g190
S'a'
tp2012
g1
(g7
tRp2013
S'homeowners'
p2014
F1
ss(g1286
g826
tp2015
g1
(g7
tRp2016
g1253
F1
ss(g1414
tp2017
g1
(g7
tRp2018
S'I'
F1
ss(S'after'
p2019
S'that,'
p2020
tp2021
g1
(g7
tRp2022
g1338
F1
ss(S'I'
S'hope'
p2023
tp2024
g1
(g7
tRp2025
S'we'
p2026
F1
ss(g80
S'want'
p2027
tp2028
g1
(g7
tRp2029
S'to'
p2030
F1
ss(g335
tp2031
g1
(g7
tRp2032
g43
F0.27884615384615391
sS'feel'
p2033
F0.14423076923076925
sg544
F0.14423076923076925
sS'pick'
p2034
F0.14423076923076925
sg42
F0.14423076923076925
sS'comply'
p2035
F0.14423076923076925
ss(S'presence'
p2036
g1710
tp2037
g1
(g7
tRp2038
g1711
F1
ss(S'policy'
g514
tp2039
g1
(g7
tRp2040
S'you'
p2041
F1
ss(S'know,'
S'we'
p2042
tp2043
g1
(g7
tRp2044
S'have'
p2045
F1
ss(g1680
g1683
tp2046
g1
(g7
tRp2047
S'attack'
p2048
F1
ss(g2034
g446
tp2049
g1
(g7
tRp2050
g447
F1
ss(g303
tp2051
g1
(g7
tRp2052
g1588
F0.5
sg304
F0.5
ss(g1545
tp2053
g1
(g7
tRp2054
g1546
F0.5
sg763
F0.5
ss(S'about'
p2055
S'the'
p2056
tp2057
g1
(g7
tRp2058
S'American'
p2059
F1
ss(g2004
S'everybody'
p2060
tp2061
g1
(g7
tRp2062
g328
F1
ss(g1051
g1054
tp2063
g1
(g7
tRp2064
S'said'
p2065
F1
ss(g259
tp2066
g1
(g7
tRp2067
S'and'
p2068
F0.5
sS'you'
p2069
F0.5
ss(S'act'
p2070
tp2071
g1
(g7
tRp2072
S'in'
p2073
F1
ss(g1956
tp2074
g1
(g7
tRp2075
g1735
F1
ss(S'chance'
p2076
g960
tp2077
g1
(g7
tRp2078
g961
F1
ss(S'around'
p2079
S'but'
p2080
tp2081
g1
(g7
tRp2082
S'you'
p2083
F1
ss(g129
S'a'
tp2084
g1
(g7
tRp2085
S'lot'
p2086
F1
ss(g1870
S'to'
p2087
tp2088
g1
(g7
tRp2089
S'a'
F1
ss(g1904
tp2090
g1
(g7
tRp2091
S'us,'
p2092
F0.5
sg1905
F0.5
ss(S'anymore'
p2093
tp2094
g1
(g7
tRp2095
S''
F1
ss(g1419
g1341
tp2096
g1
(g7
tRp2097
g685
F0.14423076923076925
sg1342
F0.27884615384615391
sg1672
F0.14423076923076925
sS'matter'
p2098
F0.14423076923076925
sS'basic'
p2099
F0.14423076923076925
sg1114
F0.14423076923076925
ss(g685
g688
tp2100
g1
(g7
tRp2101
g1130
F1
ss(S'to'
g429
tp2102
g1
(g7
tRp2103
g658
F1
ss(S'They'
S"didn't"
p2104
tp2105
g1
(g7
tRp2106
g1497
F1
ss(g1282
tp2107
g1
(g7
tRp2108
S'our'
p2109
F1
ss(g174
S'buy'
p2110
tp2111
g1
(g7
tRp2112
S'with'
p2113
F1
ss(g1099
tp2114
g1
(g7
tRp2115
g1125
F0.5
sS'we'
p2116
F0.5
ss(g431
tp2117
g1
(g7
tRp2118
g1060
F0.5
sS'that'
p2119
F0.5
ss(g1718
g1721
tp2120
g1
(g7
tRp2121
S'go'
p2122
F1
ss(S'get'
S'time'
p2123
tp2124
g1
(g7
tRp2125
S''
F1
ss(S'smoking'
p2126
tp2127
g1
(g7
tRp2128
S'like'
p2129
F1
ss(g1038
g76
tp2130
g1
(g7
tRp2131
g483
F0.65000000000000002
sg77
F0.34999999999999998
ss(g1905
g866
tp2132
g1
(g7
tRp2133
S''
F1
ss(g1294
S'have'
p2134
tp2135
g1
(g7
tRp2136
g529
F1
ss(S'also,'
p2137
tp2138
g1
(g7
tRp2139
S'you'
p2140
F1
ss(g2099
tp2141
g1
(g7
tRp2142
S'tenets'
p2143
F1
ss(S'taxes,'
p2144
tp2145
g1
(g7
tRp2146
S'I'
F1
ss(g1080
tp2147
g1
(g7
tRp2148
g1218
F1
ss(S'As'
p2149
S'far'
p2150
tp2151
g1
(g7
tRp2152
S'as'
p2153
F1
ss(S'process'
p2154
tp2155
g1
(g7
tRp2156
g1389
F1
ss(S'mean'
p2157
tp2158
g1
(g7
tRp2159
S'that'
p2160
F1
ss(g1369
S'of'
p2161
tp2162
g1
(g7
tRp2163
S'destruction,'
p2164
F1
ss(g175
g179
tp2165
g1
(g7
tRp2166
g214
F1
ss(g906
S'to'
p2167
tp2168
g1
(g7
tRp2169
S'come'
p2170
F1
ss(S'And'
g1988
tp2171
g1
(g7
tRp2172
g1989
F1
ss(g551
g554
tp2173
g1
(g7
tRp2174
S'have'
p2175
F1
ss(g708
tp2176
g1
(g7
tRp2177
g954
F1
ss(g1886
tp2178
g1
(g7
tRp2179
g1887
F1
ss(g1231
g1234
tp2180
g1
(g7
tRp2181
S'alliance'
p2182
F0.5
sg1011
F0.5
ss(S'comply'
p2183
tp2184
g1
(g7
tRp2185
S'with'
p2186
F1
ss(S'will'
p2187
S'allow'
p2188
tp2189
g1
(g7
tRp2190
S'them'
p2191
F0.5
sS'us'
p2192
F0.5
ss(S'or'
p2193
S'we'
p2194
tp2195
g1
(g7
tRp2196
S'will'
p2197
F1
ss(g341
g1037
tp2198
g1
(g7
tRp2199
g1038
F1
ss(S'empowerment'
p2200
S'account'
p2201
tp2202
g1
(g7
tRp2203
g1252
F1
ss(S'And'
S'if'
p2204
tp2205
g1
(g7
tRp2206
g178
F1
ss(g475
g478
tp2207
g1
(g7
tRp2208
g1335
F0.5
sg1698
F0.5
ss(g961
tp2209
g1
(g7
tRp2210
g964
F0.5
sg223
F0.5
ss(g1077
g1080
tp2211
g1
(g7
tRp2212
g1218
F1
ss(S'which'
p2213
g881
tp2214
g1
(g7
tRp2215
S'use'
p2216
F1
ss(S'their'
p2217
tp2218
g1
(g7
tRp2219
g1636
F0.25
sg1874
F0.25
sg444
F0.25
sg445
F0.25
ss(g1601
g1604
tp2220
g1
(g7
tRp2221
g1759
F1
ss(g1296
tp2222
g1
(g7
tRp2223
S'America'
p2224
F1
ss(S'to'
p2225
g126
tp2226
g1
(g7
tRp2227
g1956
F1
ss(g1946
S'when'
p2228
tp2229
g1
(g7
tRp2230
S'we'
p2231
F1
ss(S'we'
g213
tp2232
g1
(g7
tRp2233
S'them'
p2234
F0.5
sg781
F0.5
ss(S'assuming'
p2235
tp2236
g1
(g7
tRp2237
S'that'
p2238
F1
ss(g1641
tp2239
g1
(g7
tRp2240
g1644
F1
ss(g1931
tp2241
g1
(g7
tRp2242
g1934
F1
ss(g1930
g1187
tp2243
g1
(g7
tRp2244
g1188
F1
ss(g1165
g1600
tp2245
g1
(g7
tRp2246
g44
F1
ss(g539
g1850
tp2247
g1
(g7
tRp2248
g675
F1
ss(g1707
S'out'
p2249
tp2250
g1
(g7
tRp2251
S'of'
p2252
F1
ss(S'empowerment'
p2253
tp2254
g1
(g7
tRp2255
S'accounts,'
p2256
F0.5
sg2201
F0.5
ss(g2033
tp2257
g1
(g7
tRp2258
S'the'
p2259
F1
ss(g1027
g1030
tp2260
g1
(g7
tRp2261
S'need'
p2262
F1
ss(g156
S'a'
tp2263
g1
(g7
tRp2264
g1463
F0.5
sg1379
F0.5
ss(g1576
S'years'
p2265
tp2266
g1
(g7
tRp2267
S'ago,'
p2268
F1
ss(S"can't"
p2269
S'be'
p2270
tp2271
g1
(g7
tRp2272
S'fair'
p2273
F1
ss(S'of'
p2274
S'judgments'
p2275
tp2276
g1
(g7
tRp2277
S'have'
p2278
F1
ss(S'who'
p2279
S'have'
p2280
tp2281
g1
(g7
tRp2282
S'actually'
p2283
F1
ss(g1989
tp2284
g1
(g7
tRp2285
g1984
F1
ss(S'know'
p2286
g717
tp2287
g1
(g7
tRp2288
g729
F1
ss(S"don't"
p2289
g2033
tp2290
g1
(g7
tRp2291
g2259
F1
ss(g62
tp2292
g1
(g7
tRp2293
g1090
F1
ss(g318
S'that'
p2294
tp2295
g1
(g7
tRp2296
S''
F1
ss(g326
g657
tp2297
g1
(g7
tRp2298
S'same'
p2299
F1
ss(g1162
g1165
tp2300
g1
(g7
tRp2301
g1600
F1
ss(g751
g1060
tp2302
g1
(g7
tRp2303
g370
F1
ss(S'have'
p2304
g969
tp2305
g1
(g7
tRp2306
S'health'
p2307
F1
ss(g1293
S'what'
p2308
tp2309
g1
(g7
tRp2310
S'the'
p2311
F1
ss(S'message'
p2312
g1184
tp2313
g1
(g7
tRp2314
g740
F1
ss(g1978
tp2315
g1
(g7
tRp2316
g1979
F1
ss(g1450
S'there'
p2317
tp2318
g1
(g7
tRp2319
S''
F1
ss(g970
g432
tp2320
g1
(g7
tRp2321
g543
F1
ss(S'praise'
p2322
tp2323
g1
(g7
tRp2324
S'to'
p2325
F1
ss(S'for'
p2326
g822
tp2327
g1
(g7
tRp2328
S''
F1
ss(g1200
g1203
tp2329
g1
(g7
tRp2330
g13
F1
ss(S'inspire'
p2331
S'and'
p2332
tp2333
g1
(g7
tRp2334
g1291
F1
ss(g1979
g865
tp2335
g1
(g7
tRp2336
S''
F1
ss(S'flexibility'
p2337
tp2338
g1
(g7
tRp2339
S''
F1
ss(g421
tp2340
g1
(g7
tRp2341
g424
F1
ss(g1607
S'shift'
p2342
tp2343
g1
(g7
tRp2344
S'money'
p2345
F1
ss(S'have'
g1137
tp2346
g1
(g7
tRp2347
g22
F1
ss(g1952
g47
tp2348
g1
(g7
tRp2349
S'when'
p2350
F1
ss(g1556
g373
tp2351
g1
(g7
tRp2352
g1299
F1
ss(S'a'
tp2353
g1
(g7
tRp2354
g1207
F0.022784810126582289
sS'Constitution'
p2355
F0.022784810126582289
sg1385
F0.022784810126582289
sS'single'
p2356
F0.022784810126582289
sg1781
F0.022784810126582289
sg393
F0.022784810126582289
sg1931
F0.022784810126582289
sg186
F0.022784810126582289
sg1392
F0.022784810126582289
sg1453
F0.022784810126582289
sS'responsible'
p2357
F0.022784810126582289
sg1152
F0.045288326300984554
sg736
F0.022784810126582289
sg774
F0.022784810126582289
sg1967
F0.022784810126582289
sS'health'
p2358
F0.022784810126582289
sg1263
F0.15780590717299586
sS'Judeo'
p2359
F0.022784810126582289
sS'good'
p2360
F0.022784810126582289
sS'year;'
p2361
F0.022784810126582289
sS'very'
p2362
F0.022784810126582289
sg1748
F0.022784810126582289
sg1595
F0.022784810126582289
sg2076
F0.022784810126582289
sg1318
F0.022784810126582289
sg1697
F0.022784810126582289
sg1775
F0.022784810126582289
sS'child,'
p2363
F0.022784810126582289
sS'homeowners'
p2364
F0.045288326300984554
sg1379
F0.022784810126582289
sg1180
F0.022784810126582289
sg1463
F0.022784810126582289
sg380
F0.022784810126582289
sg1274
F0.045288326300984554
sS"person's"
p2365
F0.022784810126582289
ss(S'was'
p2366
tp2367
g1
(g7
tRp2368
S'mentioned'
p2369
F0.25
sS'the'
p2370
F0.25
sS'there'
p2371
F0.25
sg1457
F0.25
ss(S'you'
p2372
g199
tp2373
g1
(g7
tRp2374
g200
F1
ss(S'A'
g620
tp2375
g1
(g7
tRp2376
g1322
F1
ss(g1331
g1334
tp2377
g1
(g7
tRp2378
S'do'
p2379
F1
ss(g726
tp2380
g1
(g7
tRp2381
g1939
F0.5
sg704
F0.5
ss(g2259
S'need'
p2382
tp2383
g1
(g7
tRp2384
g587
F1
ss(S'to'
p2385
S'lead'
p2386
tp2387
g1
(g7
tRp2388
S''
F1
ss(g846
tp2389
g1
(g7
tRp2390
g847
F1
ss(g1081
g1084
tp2391
g1
(g7
tRp2392
S'the'
p2393
F1
ss(S'knows'
p2394
S'that'
p2395
tp2396
g1
(g7
tRp2397
g732
F1
ss(S'one'
p2398
g365
tp2399
g1
(g7
tRp2400
S"didn't"
p2401
F1
ss(g1426
tp2402
g1
(g7
tRp2403
g1222
F0.16666666666666666
sg1211
F0.16666666666666666
sg841
F0.16666666666666666
sg1618
F0.16666666666666666
sg496
F0.16666666666666666
sg2027
F0.16666666666666666
ss(g353
S'a'
tp2404
g1
(g7
tRp2405
g2364
F0.33333333333333331
sg2358
F0.33333333333333331
sg1180
F0.33333333333333331
ss(g1500
g1503
tp2406
g1
(g7
tRp2407
g1149
F1
ss(g1180
tp2408
g1
(g7
tRp2409
g1183
F1
ss(g679
S'of'
p2410
tp2411
g1
(g7
tRp2412
g1671
F1
ss(g1566
g1301
tp2413
g1
(g7
tRp2414
g1026
F0.5
sS'next'
p2415
F0.5
ss(g496
tp2416
g1
(g7
tRp2417
g499
F1
ss(g2065
g483
tp2418
g1
(g7
tRp2419
g484
F1
ss(g164
tp2420
g1
(g7
tRp2421
g1370
F1
ss(S'Donald,'
p2422
g1798
tp2423
g1
(g7
tRp2424
g1799
F1
ss(S'health'
p2425
g2253
tp2426
g1
(g7
tRp2427
g2256
F0.5
sg2201
F0.5
ss(g653
g746
tp2428
g1
(g7
tRp2429
g747
F1
ss(S'me'
p2430
S'to'
p2431
tp2432
g1
(g7
tRp2433
S'heal,'
p2434
F1
ss(g2345
g440
tp2435
g1
(g7
tRp2436
g441
F1
ss(g1101
tp2437
g1
(g7
tRp2438
g1102
F1
ss(g1230
tp2439
g1
(g7
tRp2440
g1118
F1
ss(S'get'
p2441
S'a'
tp2442
g1
(g7
tRp2443
g2076
F0.5
sS'lot'
p2444
F0.5
ss(g556
tp2445
g1
(g7
tRp2446
g559
F1
ss(S'heading'
p2447
tp2448
g1
(g7
tRp2449
g1365
F1
ss(g1386
g356
tp2450
g1
(g7
tRp2451
g357
F1
ss(g441
g444
tp2452
g1
(g7
tRp2453
g2200
F1
ss(g789
g792
tp2454
g1
(g7
tRp2455
S'American'
p2456
F1
ss(S'describe'
p2457
S"today's"
p2458
tp2459
g1
(g7
tRp2460
g17
F1
ss(S'economy,'
p2461
tp2462
g1
(g7
tRp2463
S'which'
p2464
F1
ss(g187
tp2465
g1
(g7
tRp2466
g190
F1
ss(S'want'
p2467
S'every'
p2468
tp2469
g1
(g7
tRp2470
g745
F1
ss(g720
tp2471
g1
(g7
tRp2472
S'and'
p2473
F1
ss(g114
g117
tp2474
g1
(g7
tRp2475
g1996
F1
ss(g2422
tp2476
g1
(g7
tRp2477
g1798
F1
ss(g2360
S'program'
p2478
tp2479
g1
(g7
tRp2480
g1429
F1
ss(g151
g154
tp2481
g1
(g7
tRp2482
g1718
F1
ss(S'cost'
p2483
tp2484
g1
(g7
tRp2485
S'a'
F0.5
sS'us'
p2486
F0.5
ss(g90
g93
tp2487
g1
(g7
tRp2488
S'a'
F1
ss(g2216
g2425
tp2489
g1
(g7
tRp2490
g2253
F1
ss(g1099
g2116
tp2491
g1
(g7
tRp2492
S'can'
p2493
F1
ss(S'Obamacare'
p2494
g2019
tp2495
g1
(g7
tRp2496
g2020
F1
ss(S'solve'
p2497
tp2498
g1
(g7
tRp2499
g766
F1
ss(g1778
g1966
tp2500
g1
(g7
tRp2501
S'to'
p2502
F1
ss(S'I'
g534
tp2503
g1
(g7
tRp2504
g539
F0.34999999999999998
sg538
F0.65000000000000002
ss(g753
tp2505
g1
(g7
tRp2506
g110
F0.34999999999999998
sg388
F0.65000000000000002
ss(S'Hugh,'
p2507
S'you'
p2508
tp2509
g1
(g7
tRp2510
g667
F1
ss(g732
g181
tp2511
g1
(g7
tRp2512
S'ever'
p2513
F1
ss(g560
g563
tp2514
g1
(g7
tRp2515
S'years'
p2516
F1
ss(S'better'
p2517
g1330
tp2518
g1
(g7
tRp2519
g1331
F1
ss(g1066
tp2520
g1
(g7
tRp2521
g1067
F1
ss(g499
g2322
tp2522
g1
(g7
tRp2523
g2325
F1
ss(S'If'
S'they'
p2524
tp2525
g1
(g7
tRp2526
g334
F0.5
sS"don't"
p2527
F0.5
ss(g1221
S'China,'
p2528
tp2529
g1
(g7
tRp2530
g1162
F1
ss(g2486
S'a'
tp2531
g1
(g7
tRp2532
g1263
F1
ss(g2362
g63
tp2533
g1
(g7
tRp2534
g64
F1
ss(g891
g671
tp2535
g1
(g7
tRp2536
g674
F1
ss(g1875
g85
tp2537
g1
(g7
tRp2538
g86
F1
ss(g2458
g17
tp2539
g1
(g7
tRp2540
g21
F1
ss(S'thinks'
p2541
tp2542
g1
(g7
tRp2543
S''
F1
ss(S'--'
p2544
S'that'
p2545
tp2546
g1
(g7
tRp2547
g723
F1
ss(g1326
tp2548
g1
(g7
tRp2549
g580
F0.25
sg245
F0.25
sg1329
F0.25
sS'an'
p2550
F0.25
ss(g1855
tp2551
g1
(g7
tRp2552
S''
F1
ss(g379
S'to'
p2553
tp2554
g1
(g7
tRp2555
S'all'
p2556
F0.20370370370370372
sg246
F0.38888888888888884
sg1475
F0.20370370370370372
sS'people'
p2557
F0.20370370370370372
ss(g499
tp2558
g1
(g7
tRp2559
g2322
F1
ss(g812
g815
tp2560
g1
(g7
tRp2561
S'about'
p2562
F1
ss(g264
g267
tp2563
g1
(g7
tRp2564
g1557
F1
ss(g357
g360
tp2565
g1
(g7
tRp2566
S'also'
p2567
F1
ss(g341
tp2568
g1
(g7
tRp2569
g1037
F1
ss(g1353
tp2570
g1
(g7
tRp2571
g1354
F1
ss(g2386
tp2572
g1
(g7
tRp2573
S''
F1
ss(g1510
g1513
tp2574
g1
(g7
tRp2575
S'American'
p2576
F1
ss(S'NALEO,'
p2577
g1666
tp2578
g1
(g7
tRp2579
g891
F1
ss(S'horribly'
p2580
g733
tp2581
g1
(g7
tRp2582
S''
F1
ss(g2447
g1365
tp2583
g1
(g7
tRp2584
g1366
F1
ss(S'that'
p2585
g721
tp2586
g1
(g7
tRp2587
g1791
F0.19999999999999998
sg242
F0.19999999999999998
sS'have'
p2588
F0.19999999999999998
sg2269
F0.19999999999999998
sS'pay'
p2589
F0.19999999999999998
ss(g2011
g1399
tp2590
g1
(g7
tRp2591
g1400
F1
ss(g2188
tp2592
g1
(g7
tRp2593
g2191
F0.5
sg2192
F0.5
ss(g401
g404
tp2594
g1
(g7
tRp2595
S''
F1
ss(S'a'
g2356
tp2596
g1
(g7
tRp2597
g2398
F1
ss(g171
tp2598
g1
(g7
tRp2599
g174
F0.5
sg200
F0.5
ss(S'what'
p2600
S'kind'
p2601
tp2602
g1
(g7
tRp2603
S'of'
p2604
F1
ss(g2401
g540
tp2605
g1
(g7
tRp2606
S'that'
p2607
F1
ss(S'unstable'
p2608
g568
tp2609
g1
(g7
tRp2610
g569
F1
ss(g614
tp2611
g1
(g7
tRp2612
S''
F1
ss(g1239
g995
tp2613
g1
(g7
tRp2614
g277
F1
ss(g404
tp2615
g1
(g7
tRp2616
S''
F0.33333333333333331
sg1311
F0.33333333333333331
sg1015
F0.33333333333333331
ss(g1166
tp2617
g1
(g7
tRp2618
g1167
F1
ss(g922
g1714
tp2619
g1
(g7
tRp2620
g1717
F1
ss(g1090
tp2621
g1
(g7
tRp2622
S''
F0.5
sS'to'
p2623
F0.5
ss(g1454
g1457
tp2624
g1
(g7
tRp2625
g400
F1
ss(g1330
tp2626
g1
(g7
tRp2627
g1331
F1
ss(S'I'
S'first'
p2628
tp2629
g1
(g7
tRp2630
g680
F1
ss(g2048
tp2631
g1
(g7
tRp2632
g35
F1
ss(g727
g1398
tp2633
g1
(g7
tRp2634
S'economy'
p2635
F1
ss(g2249
tp2636
g1
(g7
tRp2637
g2252
F1
ss(S'the'
p2638
g474
tp2639
g1
(g7
tRp2640
g956
F0.5
sg475
F0.5
ss(g2528
tp2641
g1
(g7
tRp2642
g1162
F1
ss(g782
S'the'
p2643
tp2644
g1
(g7
tRp2645
g807
F0.33333333333333331
sg902
F0.33333333333333331
sS'same'
p2646
F0.33333333333333331
ss(S'do'
p2647
S'you'
p2648
tp2649
g1
(g7
tRp2650
g1266
F1
ss(S'We'
S'spend'
p2651
tp2652
g1
(g7
tRp2653
S'almost'
p2654
F1
ss(g1949
tp2655
g1
(g7
tRp2656
g1952
F1
ss(g890
S'divisiveness,'
p2657
tp2658
g1
(g7
tRp2659
S'fiscal'
p2660
F1
ss(S'whole'
p2661
S'year'
p2662
tp2663
g1
(g7
tRp2664
S''
F1
ss(g1025
tp2665
g1
(g7
tRp2666
S'is'
p2667
F1
ss(g1114
g1117
tp2668
g1
(g7
tRp2669
g1579
F1
ss(g461
S'get'
p2670
tp2671
g1
(g7
tRp2672
g1357
F1
ss(S'will'
p2673
S'look'
p2674
tp2675
g1
(g7
tRp2676
S'at'
p2677
F1
ss(g1725
g1481
tp2678
g1
(g7
tRp2679
g1482
F1
ss(g510
g513
tp2680
g1
(g7
tRp2681
S'a'
F1
ss(S"I'm"
p2682
S'a'
tp2683
g1
(g7
tRp2684
g2362
F1
ss(g870
tp2685
g1
(g7
tRp2686
g912
F1
ss(S'allow'
g2192
tp2687
g1
(g7
tRp2688
S'to'
p2689
F1
ss(g2122
g57
tp2690
g1
(g7
tRp2691
S''
F1
ss(g982
S'looking'
p2692
tp2693
g1
(g7
tRp2694
g857
F1
ss(S'of'
g550
tp2695
g1
(g7
tRp2696
g551
F1
ss(S'their'
p2697
g445
tp2698
g1
(g7
tRp2699
S''
F1
ss(S'that'
p2700
g218
tp2701
g1
(g7
tRp2702
g219
F1
ss(g1136
S'going'
p2703
tp2704
g1
(g7
tRp2705
S'forward,'
p2706
F1
ss(g1300
S'part'
p2707
tp2708
g1
(g7
tRp2709
S'of'
p2710
F1
ss(S'religious'
p2711
S'freedom'
p2712
tp2713
g1
(g7
tRp2714
S''
F0.5
sS'is'
p2715
F0.5
ss(g1619
g722
tp2716
g1
(g7
tRp2717
g1065
F1
ss(g760
g730
tp2718
g1
(g7
tRp2719
g2394
F1
ss(S'then'
p2720
S'all'
p2721
tp2722
g1
(g7
tRp2723
S'of'
p2724
F1
ss(g39
g42
tp2725
g1
(g7
tRp2726
g121
F1
ss(g1852
g1855
tp2727
g1
(g7
tRp2728
S''
F1
ss(g2660
S'irresponsibility,'
p2729
tp2730
g1
(g7
tRp2731
g1283
F1
ss(g1098
tp2732
g1
(g7
tRp2733
S''
F0.34999999999999998
sg484
F0.65000000000000002
ss(g992
tp2734
g1
(g7
tRp2735
g654
F1
ss(g461
tp2736
g1
(g7
tRp2737
g1346
F0.33333333333333331
sg409
F0.33333333333333331
sg2670
F0.33333333333333331
ss(g136
tp2738
g1
(g7
tRp2739
g137
F1
ss(S'And'
g2137
tp2740
g1
(g7
tRp2741
g2140
F1
ss(g1457
g400
tp2742
g1
(g7
tRp2743
g401
F1
ss(S'to'
g246
tp2744
g1
(g7
tRp2745
g870
F0.5
sg247
F0.5
ss(g1841
g1226
tp2746
g1
(g7
tRp2747
g1227
F1
ss(S'asking'
p2748
g871
tp2749
g1
(g7
tRp2750
g872
F1
ss(S'we'
p2751
g2269
tp2752
g1
(g7
tRp2753
g2270
F1
ss(g863
g592
tp2754
g1
(g7
tRp2755
g593
F1
ss(g361
g150
tp2756
g1
(g7
tRp2757
S'the'
p2758
F0.5
sg151
F0.5
ss(S'indigent,'
p2759
tp2760
g1
(g7
tRp2761
S'how'
p2762
F1
ss(S'know,'
p2763
g1097
tp2764
g1
(g7
tRp2765
S'I'
F1
ss(S'he'
p2766
S'is'
p2767
tp2768
g1
(g7
tRp2769
S'going'
p2770
F1
ss(g2567
S'recognize'
p2771
tp2772
g1
(g7
tRp2773
S'that'
p2774
F1
ss(S'is'
p2775
g2580
tp2776
g1
(g7
tRp2777
g733
F1
ss(g604
tp2778
g1
(g7
tRp2779
g605
F1
ss(g2059
S'people'
p2780
tp2781
g1
(g7
tRp2782
S''
F1
ss(g2356
g2398
tp2783
g1
(g7
tRp2784
g365
F1
ss(g2080
g2083
tp2785
g1
(g7
tRp2786
S'have'
p2787
F1
ss(g2363
g2069
tp2788
g1
(g7
tRp2789
g1785
F1
ss(g1291
tp2790
g1
(g7
tRp2791
S'America'
p2792
F1
ss(g1203
g13
tp2793
g1
(g7
tRp2794
S''
F1
ss(g788
g681
tp2795
g1
(g7
tRp2796
g682
F1
ss(g1296
g2224
tp2797
g1
(g7
tRp2798
g94
F1
ss(g1274
g1277
tp2799
g1
(g7
tRp2800
g1085
F1
ss(g322
S'to'
p2801
tp2802
g1
(g7
tRp2803
g2183
F1
ss(S'Chinese'
p2804
tp2805
g1
(g7
tRp2806
g797
F1
ss(g1354
tp2807
g1
(g7
tRp2808
S''
F1
ss(g1704
g1707
tp2809
g1
(g7
tRp2810
g2249
F1
ss(S'ever'
p2811
S'does'
p2812
tp2813
g1
(g7
tRp2814
S''
F1
ss(g1003
g1006
tp2815
g1
(g7
tRp2816
S''
F1
ss(g475
tp2817
g1
(g7
tRp2818
S'real'
p2819
F0.20370370370370372
sg478
F0.38888888888888884
sg666
F0.20370370370370372
sS'kids'
p2820
F0.20370370370370372
ss(g1489
tp2821
g1
(g7
tRp2822
S'system'
p2823
F1
ss(S'facilities'
p2824
tp2825
g1
(g7
tRp2826
S'and'
p2827
F1
ss(g2759
g2762
tp2828
g1
(g7
tRp2829
g1125
F1
ss(g389
tp2830
g1
(g7
tRp2831
g392
F1
ss(g276
S'to'
p2832
tp2833
g1
(g7
tRp2834
S'destroy'
p2835
F0.25
sg1510
F0.25
sS'look'
p2836
F0.25
sS'be'
p2837
F0.25
ss(g2651
g2654
tp2838
g1
(g7
tRp2839
g1837
F1
ss(S'the'
p2840
S'children'
p2841
tp2842
g1
(g7
tRp2843
g2079
F1
ss(S'nation'
p2844
S'is'
p2845
tp2846
g1
(g7
tRp2847
g2447
F1
ss(g1661
g862
tp2848
g1
(g7
tRp2849
g48
F1
ss(g650
g653
tp2850
g1
(g7
tRp2851
g746
F1
ss(g1727
g785
tp2852
g1
(g7
tRp2853
g788
F1
ss(g2249
g2252
tp2854
g1
(g7
tRp2855
S'that'
p2856
F1
ss(g1144
tp2857
g1
(g7
tRp2858
g191
F0.11333333333333333
sS'I'
F0.32666666666666666
sg1145
F0.11333333333333333
sg998
F0.11333333333333333
sg621
F0.22000000000000003
sg2682
F0.11333333333333333
ss(g826
g1253
tp2859
g1
(g7
tRp2860
g337
F1
ss(g1379
g1210
tp2861
g1
(g7
tRp2862
g1211
F1
ss(g727
tp2863
g1
(g7
tRp2864
g1398
F1
ss(g219
tp2865
g1
(g7
tRp2866
S''
F0.5
sg166
F0.5
ss(g1579
tp2867
g1
(g7
tRp2868
g1580
F1
ss(g1297
tp2869
g1
(g7
tRp2870
g2385
F1
ss(g798
tp2871
g1
(g7
tRp2872
S''
F1
ss(S'ago,'
p2873
S'a'
tp2874
g1
(g7
tRp2875
g1453
F1
ss(g1136
tp2876
g1
(g7
tRp2877
S''
F0.5
sg2703
F0.5
ss(g2654
tp2878
g1
(g7
tRp2879
g1837
F0.5
sg72
F0.5
ss(S'a'
g1595
tp2880
g1
(g7
tRp2881
g384
F1
ss(g2689
S'gain'
p2882
tp2883
g1
(g7
tRp2884
S'material'
p2885
F1
ss(S'as'
p2886
g1549
tp2887
g1
(g7
tRp2888
g1550
F1
ss(g1750
tp2889
g1
(g7
tRp2890
g1753
F1
ss(g2283
S'much'
p2891
tp2892
g1
(g7
tRp2893
g2517
F1
ss(g2307
S'care,'
p2894
tp2895
g1
(g7
tRp2896
S'but'
p2897
F1
ss(g2161
tp2898
g1
(g7
tRp2899
g2275
F0.025757575757575746
sS'people'
p2900
F0.025757575757575746
sg462
F0.025757575757575746
sg1742
F0.025757575757575746
sg453
F0.025757575757575746
sg906
F0.025757575757575746
sS'person'
p2901
F0.025757575757575746
sg1886
F0.025757575757575746
sg2217
F0.025757575757575746
sg1558
F0.025757575757575746
sg1130
F0.025757575757575746
sS'leader'
p2902
F0.025757575757575746
sg550
F0.025757575757575746
sg1622
F0.051136363636363619
sg2856
F0.051136363636363619
sg1601
F0.025757575757575746
sg389
F0.025757575757575746
sg2164
F0.025757575757575746
sS'a'
F0.025757575757575746
sg151
F0.025757575757575746
sg267
F0.025757575757575746
sS'dollars'
p2903
F0.025757575757575746
sg756
F0.12727272727272723
sg778
F0.025757575757575746
sg1505
F0.025757575757575746
sg1863
F0.025757575757575746
sg1341
F0.17803030303030296
ss(S'registered'
p2904
S'as'
p2905
tp2906
g1
(g7
tRp2907
S'a'
F1
ss(g1811
g934
tp2908
g1
(g7
tRp2909
g1971
F0.33333333333333331
sS'need'
p2910
F0.33333333333333331
sS'have'
p2911
F0.33333333333333331
ss(g591
g1769
tp2912
g1
(g7
tRp2913
g1293
F1
ss(g850
g2369
tp2914
g1
(g7
tRp2915
S''
F1
ss(g1890
tp2916
g1
(g7
tRp2917
S'up'
p2918
F1
ss(S'there,'
p2919
tp2920
g1
(g7
tRp2921
S'so'
p2922
F1
ss(S'mom'
p2923
tp2924
g1
(g7
tRp2925
S'can'
p2926
F1
ss(S'a'
g774
tp2927
g1
(g7
tRp2928
g775
F1
ss(g462
tp2929
g1
(g7
tRp2930
g463
F1
ss(g1919
S'an'
p2931
tp2932
g1
(g7
tRp2933
g2608
F1
ss(g1047
tp2934
g1
(g7
tRp2935
S'and'
p2936
F1
ss(g322
tp2937
g1
(g7
tRp2938
g2801
F1
ss(g15
g2577
tp2939
g1
(g7
tRp2940
g1666
F1
ss(g471
tp2941
g1
(g7
tRp2942
S''
F1
ss(S'concerned,'
p2943
tp2944
g1
(g7
tRp2945
S'you'
p2946
F0.65000000000000002
sS'one'
p2947
F0.34999999999999998
ss(S'a'
g1318
tp2948
g1
(g7
tRp2949
g1321
F1
ss(S'I'
S'want'
p2950
tp2951
g1
(g7
tRp2952
g811
F1
ss(g842
g845
tp2953
g1
(g7
tRp2954
g1235
F1
ss(S'money'
p2955
g1158
tp2956
g1
(g7
tRp2957
g929
F1
ss(g679
tp2958
g1
(g7
tRp2959
g2410
F1
ss(g1837
g1840
tp2960
g1
(g7
tRp2961
g1538
F1
ss(g670
tp2962
g1
(g7
tRp2963
g1924
F0.5
sg1727
F0.5
ss(S'to'
p2964
g2457
tp2965
g1
(g7
tRp2966
g2458
F1
ss(S'terrorist'
p2967
tp2968
g1
(g7
tRp2969
S'to'
p2970
F1
ss(g237
g240
tp2971
g1
(g7
tRp2972
g1553
F1
ss(g1267
g1270
tp2973
g1
(g7
tRp2974
S'kind'
p2975
F1
ss(g556
g559
tp2976
g1
(g7
tRp2977
S'every'
p2978
F1
ss(g2844
tp2979
g1
(g7
tRp2980
g2845
F0.5
sS'as'
p2981
F0.5
ss(g236
g340
tp2982
g1
(g7
tRp2983
S'find'
p2984
F1
ss(g900
tp2985
g1
(g7
tRp2986
S''
F0.20370370370370372
sg1910
F0.38888888888888884
sg593
F0.20370370370370372
sg2886
F0.20370370370370372
ss(g1183
S'going'
p2987
tp2988
g1
(g7
tRp2989
g2225
F1
ss(S"didn't"
p2990
g537
tp2991
g1
(g7
tRp2992
S'me'
p2993
F1
ss(g1874
g1730
tp2994
g1
(g7
tRp2995
g1731
F1
ss(S'he'
p2996
S'fact'
p2997
tp2998
g1
(g7
tRp2999
S'of'
p3000
F1
ss(g1956
g1735
tp3001
g1
(g7
tRp3002
g1736
F1
ss(g1882
tp3003
g1
(g7
tRp3004
g1891
F1
ss(g2661
tp3005
g1
(g7
tRp3006
S''
F0.33333333333333331
sg1277
F0.33333333333333331
sg2662
F0.33333333333333331
ss(g1065
tp3007
g1
(g7
tRp3008
S''
F0.58333333333333337
sg1566
F0.20833333333333334
sg9
F0.20833333333333334
ss(g1036
S'when'
p3009
tp3010
g1
(g7
tRp3011
g31
F1
ss(S'Christian'
p3012
tp3013
g1
(g7
tRp3014
g524
F1
ss(g2457
tp3015
g1
(g7
tRp3016
g2458
F1
ss(S'Well'
p3017
tp3018
g1
(g7
tRp3019
S'first'
p3020
F1
ss(S'Israel'
p3021
S'is'
p3022
tp3023
g1
(g7
tRp3024
S'concerned,'
p3025
F1
ss(g1632
S'because'
p3026
tp3027
g1
(g7
tRp3028
g621
F1
ss(S'place'
p3029
tp3030
g1
(g7
tRp3031
S'with'
p3032
F1
ss(S'that,'
p3033
g1726
tp3034
g1
(g7
tRp3035
g1727
F1
ss(S'shoots'
p3036
tp3037
g1
(g7
tRp3038
S'a'
F1
ss(g971
tp3039
g1
(g7
tRp3040
S'that'
p3041
F1
ss(g1086
g1089
tp3042
g1
(g7
tRp3043
S'a'
F1
ss(g2331
tp3044
g1
(g7
tRp3045
g2332
F1
ss(g1246
g1249
tp3046
g1
(g7
tRp3047
g1904
F1
ss(S'liberty'
p3048
S'and'
p3049
tp3050
g1
(g7
tRp3051
g1290
F1
ss(g2780
tp3052
g1
(g7
tRp3053
S''
F0.3940217391304347
sg1345
F0.19836956521739124
sg812
F0.067934782608695635
sg635
F0.067934782608695635
sg995
F0.067934782608695635
sg842
F0.067934782608695635
sg1422
F0.067934782608695635
sg1070
F0.067934782608695635
ss(g1892
tp3054
g1
(g7
tRp3055
g1895
F1
ss(g2943
g2947
tp3056
g1
(g7
tRp3057
S'of'
p3058
F1
ss(g376
tp3059
g1
(g7
tRp3060
g2891
F0.5
sg379
F0.5
ss(g769
g773
tp3061
g1
(g7
tRp3062
S'I'
F1
ss(g1781
tp3063
g1
(g7
tRp3064
g1784
F1
ss(g965
g971
tp3065
g1
(g7
tRp3066
g3041
F1
ss(g2801
g2183
tp3067
g1
(g7
tRp3068
g2186
F1
ss(g2332
g1291
tp3069
g1
(g7
tRp3070
g2792
F1
ss(S'gives'
p3071
S'you'
p3072
tp3073
g1
(g7
tRp3074
S'enormous'
p3075
F1
ss(g137
g140
tp3076
g1
(g7
tRp3077
g1618
F0.33333333333333331
sg496
F0.33333333333333331
sg1222
F0.33333333333333331
ss(g190
tp3078
g1
(g7
tRp3079
S'a'
F1
ss(g417
tp3080
g1
(g7
tRp3081
g420
F1
ss(S'Well,'
p3082
tp3083
g1
(g7
tRp3084
S'first'
p3085
F1
ss(g2026
S'get'
p3086
tp3087
g1
(g7
tRp3088
S'a'
F1
ss(g1466
g876
tp3089
g1
(g7
tRp3090
g877
F1
ss(S'They'
p3091
tp3092
g1
(g7
tRp3093
g2104
F0.33333333333333331
sg1948
F0.33333333333333331
sS'have'
p3094
F0.33333333333333331
ss(g2268
tp3095
g1
(g7
tRp3096
S'I'
F0.33333333333333331
sS'a'
F0.33333333333333331
sg1521
F0.33333333333333331
ss(g1395
g2235
tp3097
g1
(g7
tRp3098
g2238
F1
ss(g439
tp3099
g1
(g7
tRp3100
S'has'
p3101
F1
ss(S'away'
p3102
tp3103
g1
(g7
tRp3104
S'with'
p3105
F1
ss(g2365
S'life'
p3106
tp3107
g1
(g7
tRp3108
S'has'
p3109
F1
ss(S'the'
p3110
g2098
tp3111
g1
(g7
tRp3112
S'is'
p3113
F1
ss(g622
g625
tp3114
g1
(g7
tRp3115
S'I'
F1
ss(g2894
tp3116
g1
(g7
tRp3117
g2897
F1
ss(S'America'
p3118
g20
tp3119
g1
(g7
tRp3120
g832
F0.33333333333333331
sg1296
F0.33333333333333331
sg95
F0.33333333333333331
ss(S'the'
p3121
S'same'
p3122
tp3123
g1
(g7
tRp3124
g2154
F0.19999999999999998
sg458
F0.19999999999999998
sg2312
F0.19999999999999998
sS'dollars'
p3125
F0.19999999999999998
sS'rights'
p3126
F0.19999999999999998
ss(S'a'
g1385
tp3127
g1
(g7
tRp3128
g1386
F1
ss(S'all,'
S'I'
tp3129
g1
(g7
tRp3130
g2950
F1
ss(g2041
g2467
tp3131
g1
(g7
tRp3132
g1267
F0.25
sS'to'
p3133
F0.25
sg2468
F0.25
sS'your'
p3134
F0.25
ss(S'honest'
p3135
g1612
tp3136
g1
(g7
tRp3137
S'we'
p3138
F1
ss(g1822
g1825
tp3139
g1
(g7
tRp3140
g2304
F1
ss(g862
g48
tp3141
g1
(g7
tRp3142
g1486
F1
ss(g1805
g696
tp3143
g1
(g7
tRp3144
g697
F1
ss(g1094
g1099
tp3145
g1
(g7
tRp3146
g2116
F1
ss(g600
g603
tp3147
g1
(g7
tRp3148
S'Korea'
p3149
F1
ss(g856
tp3150
g1
(g7
tRp3151
g1047
F1
ss(g644
tp3152
g1
(g7
tRp3153
g645
F1
ss(g428
tp3154
g1
(g7
tRp3155
g714
F1
ss(S'this'
p3156
tp3157
g1
(g7
tRp3158
g1508
F0.20370370370370372
sg1760
F0.20370370370370372
sS'is'
p3159
F0.38888888888888884
sg999
F0.20370370370370372
ss(g2182
tp3160
g1
(g7
tRp3161
g1592
F1
ss(g926
g1930
tp3162
g1
(g7
tRp3163
g1187
F1
ss(g106
tp3164
g1
(g7
tRp3165
g107
F1
ss(S'OK,'
p3166
g520
tp3167
g1
(g7
tRp3168
g523
F1
ss(g417
g420
tp3169
g1
(g7
tRp3170
g2217
F1
ss(g872
g875
tp3171
g1
(g7
tRp3172
g1271
F1
ss(g1522
g1525
tp3173
g1
(g7
tRp3174
g1805
F1
ss(g2238
g329
tp3175
g1
(g7
tRp3176
g339
F0.5
sg2289
F0.5
ss(S'have'
p3177
S'divided'
p3178
tp3179
g1
(g7
tRp3180
S'government'
p3181
F1
ss(g256
g259
tp3182
g1
(g7
tRp3183
g2068
F1
ss(S''
tp3184
g1
(g7
tRp3185
S''
F0
sg1174
F0.04163030645244082
sg1851
F0.0083671269442020385
sg984
F0.0083671269442020385
sg146
F0.0083671269442020385
sS'You'
p3186
F0.04163030645244082
sg3166
F0.0083671269442020385
sS'We'
p3187
F0.099840870591858685
sg944
F0.024998716698321429
sS"What's"
p3188
F0.0083671269442020385
sg1935
F0.0083671269442020385
sS'But'
p3189
F0.066577691083619911
sS'The'
p3190
F0.016682921821261732
sg2507
F0.0083671269442020385
sS'Medicaid'
p3191
F0.0083671269442020385
sg3091
F0.024998716698321429
sS'you'
p3192
F0.0083671269442020385
sS'Now'
p3193
F0.0083671269442020385
sS'A'
F0.016682921821261732
sS'And,'
p3194
F0.0083671269442020385
sS'I'
F0.074893485960679587
sg3017
F0.016682921821261732
sS'So'
p3195
F0.024998716698321429
sg1680
F0.0083671269442020385
sS'Also,'
p3196
F0.0083671269442020385
sS'Marco,'
p3197
F0.0083671269442020385
sS"I'm"
p3198
F0.0083671269442020385
sg1817
F0.0083671269442020385
sg846
F0.0083671269442020385
sg626
F0.0083671269442020385
sg560
F0.0083671269442020385
sg689
F0.016682921821261732
sg1749
F0.2328935886248138
sS'OK'
p3199
F0.016682921821261732
sg1500
F0.0083671269442020385
sS'Over'
p3200
F0.0083671269442020385
sS'It'
p3201
F0.033314511575381123
sS'One'
p3202
F0.0083671269442020385
sg3082
F0.016682921821261732
sg2149
F0.0083671269442020385
sS'Americans'
p3203
F0.0083671269442020385
sS'If'
p3204
F0.033314511575381123
ss(g2164
tp3205
g1
(g7
tRp3206
g887
F1
ss(S'way,'
p3207
tp3208
g1
(g7
tRp3209
g2193
F1
ss(g3075
g2337
tp3210
g1
(g7
tRp3211
S''
F1
ss(g1325
tp3212
g1
(g7
tRp3213
g1326
F1
ss(g661
g992
tp3214
g1
(g7
tRp3215
g654
F1
ss(g2034
tp3216
g1
(g7
tRp3217
g446
F1
ss(g586
S'I'
tp3218
g1
(g7
tRp3219
g2366
F1
ss(g2364
tp3220
g1
(g7
tRp3221
g510
F1
ss(g1293
tp3222
g1
(g7
tRp3223
g2308
F1
ss(g528
g1026
tp3224
g1
(g7
tRp3225
g1027
F1
ss(S'who'
p3226
g1278
tp3227
g1
(g7
tRp3228
g1279
F0.33333333333333331
sg650
F0.33333333333333331
sg2759
F0.33333333333333331
ss(g1173
g1093
tp3229
g1
(g7
tRp3230
g1094
F1
ss(g902
tp3231
g1
(g7
tRp3232
g903
F0.5
sg381
F0.5
ss(S'more'
g1774
tp3233
g1
(g7
tRp3234
S''
F1
ss(g1883
tp3235
g1
(g7
tRp3236
S'the'
p3237
F1
ss(g1870
tp3238
g1
(g7
tRp3239
g2087
F1
ss(g1754
tp3240
g1
(g7
tRp3241
g818
F0.25
sg1975
F0.25
sS'for'
p3242
F0.25
sg1755
F0.25
ss(g1065
g9
tp3243
g1
(g7
tRp3244
g15
F1
ss(g985
g227
tp3245
g1
(g7
tRp3246
g228
F1
ss(g2350
g503
tp3247
g1
(g7
tRp3248
g336
F1
ss(g1562
tp3249
g1
(g7
tRp3250
g1563
F1
ss(g1006
tp3251
g1
(g7
tRp3252
S''
F1
ss(g1814
tp3253
g1
(g7
tRp3254
S'a'
F1
ss(g479
g482
tp3255
g1
(g7
tRp3256
S'do'
p3257
F1
ss(g200
g203
tp3258
g1
(g7
tRp3259
g1584
F1
ss(g1493
g1300
tp3260
g1
(g7
tRp3261
g2707
F1
ss(g1730
tp3262
g1
(g7
tRp3263
S''
F0.5
sg1731
F0.5
ss(g3195
S'nobody'
p3264
tp3265
g1
(g7
tRp3266
g409
F1
ss(g2628
g680
tp3267
g1
(g7
tRp3268
S'him'
p3269
F1
ss(g1989
g1984
tp3270
g1
(g7
tRp3271
S'I'
F1
ss(g2079
tp3272
g1
(g7
tRp3273
g2080
F1
ss(g445
tp3274
g1
(g7
tRp3275
S''
F0.5
sg1871
F0.5
ss(S'talents'
p3276
tp3277
g1
(g7
tRp3278
S'as'
p3279
F1
ss(g1050
tp3280
g1
(g7
tRp3281
g1051
F1
ss(g1044
tp3282
g1
(g7
tRp3283
S'months'
p3284
F0.5
sg2516
F0.5
ss(S'until'
p3285
S'I'
tp3286
g1
(g7
tRp3287
S'spoke'
p3288
F1
ss(g1899
g12
tp3289
g1
(g7
tRp3290
S'a'
F1
ss(S'or'
p3291
S'uncle'
p3292
tp3293
g1
(g7
tRp3294
S''
F1
ss(g2897
g106
tp3295
g1
(g7
tRp3296
g107
F1
ss(g2820
S'to'
p3297
tp3298
g1
(g7
tRp3299
g103
F1
ss(g365
g2401
tp3300
g1
(g7
tRp3301
g540
F1
ss(S'but'
p3302
S'they'
p3303
tp3304
g1
(g7
tRp3305
g335
F1
ss(S'It'
S"doesn't"
p3306
tp3307
g1
(g7
tRp3308
g2157
F1
ss(g447
tp3309
g1
(g7
tRp3310
g141
F1
ss(g231
g2055
tp3311
g1
(g7
tRp3312
g2056
F1
ss(g1683
g2048
tp3313
g1
(g7
tRp3314
g35
F1
ss(S'the'
p3315
g2955
tp3316
g1
(g7
tRp3317
g1158
F1
ss(g696
tp3318
g1
(g7
tRp3319
g940
F0.062618595825426948
sg1235
F0.062618595825426948
sg1418
F0.062618595825426948
sg697
F0.062618595825426948
sg1711
F0.062618595825426948
sg1759
F0.062618595825426948
sg1446
F0.062618595825426948
sg3048
F0.062618595825426948
sS'an'
p3320
F0.062618595825426948
sg30
F0.062618595825426948
sg877
F0.12333965844402277
sg681
F0.062618595825426948
sg3029
F0.062618595825426948
sg1106
F0.062618595825426948
sg1758
F0.062618595825426948
ss(g1218
g1221
tp3321
g1
(g7
tRp3322
g2528
F1
ss(g2036
tp3323
g1
(g7
tRp3324
g1710
F1
ss(g295
S'the'
p3325
tp3326
g1
(g7
tRp3327
S'$1,500'
p3328
F1
ss(S'We'
S'are'
p3329
tp3330
g1
(g7
tRp3331
S'compassionate'
p3332
F1
ss(g2827
g1288
tp3333
g1
(g7
tRp3334
g3276
F1
ss(g431
g2119
tp3335
g1
(g7
tRp3336
S''
F1
ss(g2550
S'audit'
p3337
tp3338
g1
(g7
tRp3339
g3285
F1
ss(g111
S'I'
tp3340
g1
(g7
tRp3341
S'would'
p3342
F1
ss(S'one'
p3343
g364
tp3344
g1
(g7
tRp3345
g763
F1
ss(g2845
g2447
tp3346
g1
(g7
tRp3347
g1365
F1
ss(g1731
tp3348
g1
(g7
tRp3349
g1734
F1
ss(g2252
g2856
tp3350
g1
(g7
tRp3351
g515
F0.5
sg731
F0.5
ss(g540
g2607
tp3352
g1
(g7
tRp3353
g241
F1
ss(S'the'
p3354
g902
tp3355
g1
(g7
tRp3356
g903
F1
ss(g1366
g1369
tp3357
g1
(g7
tRp3358
g2161
F1
ss(g2126
g2129
tp3359
g1
(g7
tRp3360
S'a'
F1
ss(g1238
tp3361
g1
(g7
tRp3362
g3118
F0.65000000000000002
sg3149
F0.34999999999999998
ss(g1433
tp3363
g1
(g7
tRp3364
g1436
F1
ss(g2823
g1157
tp3365
g1
(g7
tRp3366
S'will'
p3367
F1
ss(g1649
g1144
tp3368
g1
(g7
tRp3369
g1145
F1
ss(g2577
tp3370
g1
(g7
tRp3371
g1666
F1
ss(g1878
tp3372
g1
(g7
tRp3373
S'I'
F0.16883116883116883
sS''
F0.16883116883116883
sg1879
F0.32467532467532462
sg31
F0.16883116883116883
sg503
F0.16883116883116883
ss(g1282
g2109
tp3374
g1
(g7
tRp3375
g801
F1
ss(g2918
tp3376
g1
(g7
tRp3377
S'from'
p3378
F1
ss(g537
g2993
tp3379
g1
(g7
tRp3380
S'about'
p3381
F1
ss(g2068
g1286
tp3382
g1
(g7
tRp3383
g826
F1
ss(S'They'
g1948
tp3384
g1
(g7
tRp3385
g1949
F1
ss(g1808
tp3386
g1
(g7
tRp3387
S'I'
F0.33333333333333331
sg1338
F0.33333333333333331
sg1726
F0.33333333333333331
ss(g2395
g732
tp3388
g1
(g7
tRp3389
g181
F1
ss(g903
g906
tp3390
g1
(g7
tRp3391
g2167
F1
ss(g1094
tp3392
g1
(g7
tRp3393
g2042
F0.090909090909090925
sg90
F0.090909090909090925
sg1099
F0.090909090909090925
sS'I'
F0.090909090909090925
sg1033
F0.090909090909090925
sg1097
F0.090909090909090925
sg1098
F0.090909090909090925
sg3156
F0.090909090909090925
sg630
F0.090909090909090925
sg1100
F0.090909090909090925
sg175
F0.090909090909090925
ss(g3200
S'$5,000'
p3394
tp3395
g1
(g7
tRp3396
g1953
F1
ss(g3306
tp3397
g1
(g7
tRp3398
g2157
F1
ss(g329
g339
tp3399
g1
(g7
tRp3400
S''
F0.33333333333333331
sS'the'
p3401
F0.33333333333333331
sS'an'
p3402
F0.33333333333333331
ss(g242
g245
tp3403
g1
(g7
tRp3404
S'our'
p3405
F1
ss(g725
g838
tp3406
g1
(g7
tRp3407
g1541
F1
ss(S'birth'
p3408
S'until'
p3409
tp3410
g1
(g7
tRp3411
S'death'
p3412
F1
ss(S'appropriate'
p3413
tp3414
g1
(g7
tRp3415
g3207
F1
ss(g1820
g1015
tp3416
g1
(g7
tRp3417
g1016
F1
ss(g140
g1618
tp3418
g1
(g7
tRp3419
g1619
F1
ss(g3106
g3109
tp3420
g1
(g7
tRp3421
g1217
F1
ss(S"don't"
p3422
g2034
tp3423
g1
(g7
tRp3424
g446
F1
ss(g3191
tp3425
g1
(g7
tRp3426
S''
F0.65000000000000002
sg5
F0.34999999999999998
ss(g861
tp3427
g1
(g7
tRp3428
g583
F1
ss(g2361
g3343
tp3429
g1
(g7
tRp3430
g364
F1
ss(g1329
g2964
tp3431
g1
(g7
tRp3432
g2457
F1
ss(S'think'
g935
tp3433
g1
(g7
tRp3434
g2967
F1
ss(g1326
g1329
tp3435
g1
(g7
tRp3436
g2964
F1
ss(S'exactly'
p3437
g3121
tp3438
g1
(g7
tRp3439
g3122
F1
ss(g396
tp3440
g1
(g7
tRp3441
g397
F1
ss(g3190
g416
tp3442
g1
(g7
tRp3443
g417
F1
ss(g869
tp3444
g1
(g7
tRp3445
g2279
F1
ss(g77
g80
tp3446
g1
(g7
tRp3447
g2027
F1
ss(g71
g2093
tp3448
g1
(g7
tRp3449
S''
F1
ss(g1363
g538
tp3450
g1
(g7
tRp3451
g988
F1
ss(g1525
g1805
tp3452
g1
(g7
tRp3453
g696
F1
ss(g2007
tp3454
g1
(g7
tRp3455
S'be'
p3456
F0.14133333333333334
sg2674
F0.072000000000000008
sg1349
F0.072000000000000008
sg2441
F0.072000000000000008
sg1256
F0.072000000000000008
sg752
F0.072000000000000008
sg2188
F0.14133333333333334
sg2011
F0.072000000000000008
sg2010
F0.072000000000000008
sg1443
F0.072000000000000008
sS'tell'
p3457
F0.14133333333333334
ss(g2493
S'secure'
p3458
tp3459
g1
(g7
tRp3460
S'the'
p3461
F1
ss(g1475
g1478
tp3462
g1
(g7
tRp3463
g2990
F1
ss(g802
g450
tp3464
g1
(g7
tRp3465
S''
F1
ss(g943
g975
tp3466
g1
(g7
tRp3467
S'same'
p3468
F1
ss(g1137
g22
tp3469
g1
(g7
tRp3470
g25
F1
ss(g2996
tp3471
g1
(g7
tRp3472
g2767
F0.16883116883116883
sg59
F0.16883116883116883
sg2513
F0.32467532467532462
sg2394
F0.16883116883116883
sg2997
F0.16883116883116883
ss(g619
S'wit'
p3473
tp3474
g1
(g7
tRp3475
S'and'
p3476
F1
ss(g71
tp3477
g1
(g7
tRp3478
g2093
F1
ss(g3102
g3105
tp3479
g1
(g7
tRp3480
g1974
F1
ss(g1863
tp3481
g1
(g7
tRp3482
g1864
F1
ss(g930
g933
tp3483
g1
(g7
tRp3484
g2585
F1
ss(S'to'
p3485
g2070
tp3486
g1
(g7
tRp3487
g2073
F1
ss(g2706
g3302
tp3488
g1
(g7
tRp3489
g3303
F1
ss(S'have'
g968
tp3490
g1
(g7
tRp3491
S'missiles,'
p3492
F1
ss(g2098
tp3493
g1
(g7
tRp3494
g3113
F1
ss(g3202
g1545
tp3495
g1
(g7
tRp3496
g1546
F1
ss(g392
S'of'
p3497
tp3498
g1
(g7
tRp3499
S'the'
p3500
F1
ss(S'they'
p3501
g333
tp3502
g1
(g7
tRp3503
S''
F1
ss(g47
g2350
tp3504
g1
(g7
tRp3505
g503
F1
ss(g747
g750
tp3506
g1
(g7
tRp3507
S'after'
p3508
F1
ss(g1398
g2635
tp3509
g1
(g7
tRp3510
g2919
F1
ss(g2468
g745
tp3511
g1
(g7
tRp3512
g1635
F1
ss(g1864
g375
tp3513
g1
(g7
tRp3514
g516
F0.19999999999999998
sg3026
F0.19999999999999998
sS'necessary'
p3515
F0.19999999999999998
sg2580
F0.19999999999999998
sg376
F0.19999999999999998
ss(g3189
tp3516
g1
(g7
tRp3517
g1022
F0.125
sS'do'
p3518
F0.125
sg1900
F0.125
sS'I'
F0.125
sS'we'
p3519
F0.125
sg1101
F0.125
sS'in'
p3520
F0.125
sg2996
F0.125
ss(g1895
g907
tp3521
g1
(g7
tRp3522
S'a'
F1
ss(S'be'
p3523
g1231
tp3524
g1
(g7
tRp3525
g1234
F1
ss(g126
tp3526
g1
(g7
tRp3527
g1956
F1
ss(S'I'
g1814
tp3528
g1
(g7
tRp3529
S'a'
F1
ss(S'all,'
g900
tp3530
g1
(g7
tRp3531
g1910
F1
ss(g906
tp3532
g1
(g7
tRp3533
g2167
F1
ss(g887
g890
tp3534
g1
(g7
tRp3535
g2657
F1
ss(g1180
g1183
tp3536
g1
(g7
tRp3537
g2987
F1
ss(g506
g509
tp3538
g1
(g7
tRp3539
S'Israel'
p3540
F1
ss(g547
g81
tp3541
g1
(g7
tRp3542
g84
F1
ss(g563
g2516
tp3543
g1
(g7
tRp3544
g2873
F1
ss(g1683
tp3545
g1
(g7
tRp3546
g2048
F1
ss(g610
tp3547
g1
(g7
tRp3548
S''
F1
ss(g416
tp3549
g1
(g7
tRp3550
g417
F1
ss(S'naval'
p3551
g2036
tp3552
g1
(g7
tRp3553
g1710
F1
ss(g2670
g1357
tp3554
g1
(g7
tRp3555
g1358
F1
ss(g3269
g1878
tp3556
g1
(g7
tRp3557
g1879
F1
ss(S'pay'
p3558
g1661
tp3559
g1
(g7
tRp3560
g863
F0.5
sg862
F0.5
ss(g1086
tp3561
g1
(g7
tRp3562
g1089
F1
ss(g200
tp3563
g1
(g7
tRp3564
g1414
F0.33333333333333331
sg396
F0.33333333333333331
sg203
F0.33333333333333331
ss(g2087
S'a'
tp3565
g1
(g7
tRp3566
S'lot'
p3567
F1
ss(S'at'
p3568
g16
tp3569
g1
(g7
tRp3570
g2819
F1
ss(g1997
tp3571
g1
(g7
tRp3572
g759
F1
ss(g132
g135
tp3573
g1
(g7
tRp3574
g2188
F0.65000000000000002
sg2441
F0.34999999999999998
ss(S'everybody'
p3575
g327
tp3576
g1
(g7
tRp3577
g3408
F1
ss(g2059
tp3578
g1
(g7
tRp3579
g479
F0.33333333333333331
sg1655
F0.33333333333333331
sg2780
F0.33333333333333331
ss(g1080
g1218
tp3580
g1
(g7
tRp3581
g1221
F1
ss(g2235
g2238
tp3582
g1
(g7
tRp3583
g329
F1
ss(S'we'
g211
tp3584
g1
(g7
tRp3585
g268
F1
ss(g3196
tp3586
g1
(g7
tRp3587
g2638
F1
ss(g2758
g2099
tp3588
g1
(g7
tRp3589
g2143
F1
ss(S'a'
g736
tp3590
g1
(g7
tRp3591
g739
F1
ss(g3188
S'the'
p3592
tp3593
g1
(g7
tRp3594
g4
F1
ss(g2904
tp3595
g1
(g7
tRp3596
g2905
F1
ss(g1385
tp3597
g1
(g7
tRp3598
g1386
F0.5
sg1227
F0.5
ss(g360
g2567
tp3599
g1
(g7
tRp3600
g2771
F1
ss(g3456
g1514
tp3601
g1
(g7
tRp3602
S'a'
F1
ss(g2711
tp3603
g1
(g7
tRp3604
g2712
F1
ss(g2444
g1946
tp3605
g1
(g7
tRp3606
g2228
F1
ss(g58
g3437
tp3607
g1
(g7
tRp3608
g3121
F1
ss(g3394
g1953
tp3609
g1
(g7
tRp3610
g864
F1
ss(g2356
tp3611
g1
(g7
tRp3612
g2398
F1
ss(g2073
g3320
tp3613
g1
(g7
tRp3614
g3413
F1
ss(g2164
g887
tp3615
g1
(g7
tRp3616
g890
F1
ss(g227
tp3617
g1
(g7
tRp3618
S''
F0.10047846889952156
sS'Israel'
p3619
F0.10047846889952156
sg2144
F0.10047846889952156
sg2294
F0.19617224880382783
sg401
F0.10047846889952156
sg228
F0.10047846889952156
sg2600
F0.10047846889952156
sS'taxes'
p3620
F0.10047846889952156
sg2056
F0.10047846889952156
ss(g2342
g2345
tp3621
g1
(g7
tRp3622
g440
F1
ss(g3284
g1867
tp3623
g1
(g7
tRp3624
S'I'
F1
ss(g971
g3041
tp3625
g1
(g7
tRp3626
g728
F1
ss(g2393
g2804
tp3627
g1
(g7
tRp3628
g797
F1
ss(g2299
g458
tp3629
g1
(g7
tRp3630
g461
F1
ss(S'would'
p3631
g1896
tp3632
g1
(g7
tRp3633
g1899
F1
ss(S'And'
g2372
tp3634
g1
(g7
tRp3635
g199
F1
ss(g1084
g2393
tp3636
g1
(g7
tRp3637
g2804
F1
ss(g573
tp3638
g1
(g7
tRp3639
S''
F0.17857142857142858
sg2553
F0.8214285714285714
ss(S'We'
g1432
tp3640
g1
(g7
tRp3641
g1433
F1
ss(g2060
g328
tp3642
g1
(g7
tRp3643
S''
F0.5
sg707
F0.5
ss(g52
tp3644
g1
(g7
tRp3645
g897
F1
ss(g721
g1791
tp3646
g1
(g7
tRp3647
S''
F0.33333333333333331
sg1792
F0.33333333333333331
sg27
F0.33333333333333331
ss(g137
tp3648
g1
(g7
tRp3649
g2431
F0.20833333333333334
sg3381
F0.20833333333333334
sg140
F0.58333333333333337
ss(g2204
g178
tp3650
g1
(g7
tRp3651
S'now,'
p3652
F1
ss(g3203
tp3653
g1
(g7
tRp3654
g2286
F1
ss(g622
tp3655
g1
(g7
tRp3656
g1184
F0.5
sg625
F0.5
ss(g1317
g725
tp3657
g1
(g7
tRp3658
g838
F1
ss(g947
g3457
tp3659
g1
(g7
tRp3660
S'you'
p3661
F1
ss(g1931
g1934
tp3662
g1
(g7
tRp3663
g662
F1
ss(g2646
g2312
tp3664
g1
(g7
tRp3665
g1184
F1
ss(S'would'
p3666
S'go'
p3667
tp3668
g1
(g7
tRp3669
g1140
F1
ss(g2562
g2600
tp3670
g1
(g7
tRp3671
g2601
F1
ss(g1321
g341
tp3672
g1
(g7
tRp3673
g1037
F1
ss(g1649
tp3674
g1
(g7
tRp3675
g1144
F1
ss(g2486
tp3676
g1
(g7
tRp3677
S'a'
F0.25
sg2689
F0.25
sg360
F0.25
sg1553
F0.25
ss(S'can'
p3678
S'have'
p3679
tp3680
g1
(g7
tRp3681
g3315
F1
ss(g2193
tp3682
g1
(g7
tRp3683
S'a'
F0.25
sg2194
F0.25
sg3292
F0.25
sg1085
F0.25
ss(g366
g369
tp3684
g1
(g7
tRp3685
S'lives'
p3686
F1
ss(g2604
g2902
tp3687
g1
(g7
tRp3688
g2647
F1
ss(S'I'
g2673
tp3689
g1
(g7
tRp3690
g2674
F1
ss(g605
g608
tp3691
g1
(g7
tRp3692
g180
F1
ss(g315
g318
tp3693
g1
(g7
tRp3694
g2294
F1
ss(g428
g714
tp3695
g1
(g7
tRp3696
S'it'
p3697
F1
ss(g3048
tp3698
g1
(g7
tRp3699
g3049
F1
ss(g2497
g766
tp3700
g1
(g7
tRp3701
g596
F1
ss(g3332
tp3702
g1
(g7
tRp3703
S''
F1
ss(g102
g1106
tp3704
g1
(g7
tRp3705
g1107
F1
ss(g1041
g577
tp3706
g1
(g7
tRp3707
g272
F1
ss(g3122
tp3708
g1
(g7
tRp3709
g2154
F0.19999999999999998
sg458
F0.19999999999999998
sg2312
F0.19999999999999998
sg3125
F0.19999999999999998
sg3126
F0.19999999999999998
ss(S'choices'
p3710
tp3711
g1
(g7
tRp3712
S'that'
p3713
F1
ss(g2192
g2689
tp3714
g1
(g7
tRp3715
g2882
F1
ss(g773
tp3716
g1
(g7
tRp3717
S'I'
F1
ss(g2478
g1429
tp3718
g1
(g7
tRp3719
g724
F1
ss(g3551
tp3720
g1
(g7
tRp3721
g2036
F1
ss(g740
g347
tp3722
g1
(g7
tRp3723
S''
F1
ss(g835
tp3724
g1
(g7
tRp3725
g1041
F0.14285714285714288
sg106
F0.14285714285714288
sg2567
F0.14285714285714288
sg3303
F0.14285714285714288
sg2083
F0.14285714285714288
sg2393
F0.14285714285714288
sg307
F0.14285714285714288
ss(S'robust'
p3726
tp3727
g1
(g7
tRp3728
g3551
F1
ss(g3409
tp3729
g1
(g7
tRp3730
S'I'
F0.5
sg3412
F0.5
ss(g2456
g479
tp3731
g1
(g7
tRp3732
g482
F1
ss(g1600
g44
tp3733
g1
(g7
tRp3734
S''
F1
ss(g457
tp3735
g1
(g7
tRp3736
g1016
F0.5
sg1246
F0.5
ss(g453
tp3737
g1
(g7
tRp3738
g454
F0.5
sg404
F0.5
ss(g1753
tp3739
g1
(g7
tRp3740
g1170
F1
ss(g3458
g3461
tp3741
g1
(g7
tRp3742
g1914
F1
ss(g2033
g2259
tp3743
g1
(g7
tRp3744
g2382
F1
ss(S'all,'
g901
tp3745
g1
(g7
tRp3746
g635
F1
ss(g1490
g3125
tp3747
g1
(g7
tRp3748
S'that'
p3749
F1
ss(S'him'
p3750
g1694
tp3751
g1
(g7
tRp3752
S'a'
F1
ss(S'And'
S'they'
p3753
tp3754
g1
(g7
tRp3755
S"didn't"
p3756
F1
ss(S'I'
S'never'
p3757
tp3758
g1
(g7
tRp3759
S'had'
p3760
F1
ss(g259
g2068
tp3761
g1
(g7
tRp3762
g1286
F1
ss(g2545
g723
tp3763
g1
(g7
tRp3764
g783
F1
ss(S'know,'
p3765
g3156
tp3766
g1
(g7
tRp3767
g3159
F1
ss(S'only'
p3768
tp3769
g1
(g7
tRp3770
g1704
F0.25
sg467
F0.25
sg361
F0.25
sg1825
F0.25
ss(g364
g763
tp3771
g1
(g7
tRp3772
S'a'
F1
ss(g802
tp3773
g1
(g7
tRp3774
g450
F1
ss(g374
S'we'
p3775
tp3776
g1
(g7
tRp3777
S'need'
p3778
F1
ss(g3518
S'the'
p3779
tp3780
g1
(g7
tRp3781
g260
F1
ss(S'the'
p3782
g159
tp3783
g1
(g7
tRp3784
g163
F0.5
sg165
F0.5
ss(g1283
g1297
tp3785
g1
(g7
tRp3786
g2385
F1
ss(g3188
tp3787
g1
(g7
tRp3788
g3592
F1
ss(g1640
S'I'
tp3789
g1
(g7
tRp3790
g2673
F1
ss(g3204
g1325
tp3791
g1
(g7
tRp3792
g1326
F1
ss(g2461
g2464
tp3793
g1
(g7
tRp3794
S'I'
F1
ss(g3178
g3181
tp3795
g1
(g7
tRp3796
S''
F1
ss(g2902
tp3797
g1
(g7
tRp3798
g2647
F1
ss(g1771
tp3799
g1
(g7
tRp3800
g3726
F0.33333333333333331
sg1774
F0.33333333333333331
sg488
F0.33333333333333331
ss(g847
tp3801
g1
(g7
tRp3802
g850
F1
ss(g670
g1924
tp3803
g1
(g7
tRp3804
S'to'
p3805
F1
ss(g815
g2562
tp3806
g1
(g7
tRp3807
g2600
F1
ss(g2567
tp3808
g1
(g7
tRp3809
g268
F0.5
sg2771
F0.5
ss(g2256
g819
tp3810
g1
(g7
tRp3811
g352
F1
ss(g374
tp3812
g1
(g7
tRp3813
g3775
F1
ss(g1795
g829
tp3814
g1
(g7
tRp3815
S''
F1
ss(g1741
S'I'
tp3816
g1
(g7
tRp3817
S'believe'
p3818
F0.33333333333333331
sS'think'
p3819
F0.33333333333333331
sg3631
F0.33333333333333331
ss(g1489
g2823
tp3820
g1
(g7
tRp3821
g1157
F1
ss(g1711
g720
tp3822
g1
(g7
tRp3823
g2473
F1
ss(g179
g214
tp3824
g1
(g7
tRp3825
g217
F1
ss(g1871
g1874
tp3826
g1
(g7
tRp3827
g1730
F1
ss(S'about'
g3619
tp3828
g1
(g7
tRp3829
S''
F1
ss(g2654
g1837
tp3830
g1
(g7
tRp3831
g1840
F1
ss(g736
g739
tp3832
g1
(g7
tRp3833
g1193
F1
ss(g1369
tp3834
g1
(g7
tRp3835
g2161
F1
ss(g1799
g1802
tp3836
g1
(g7
tRp3837
g2007
F1
ss(g2651
tp3838
g1
(g7
tRp3839
g2654
F1
ss(g3412
tp3840
g1
(g7
tRp3841
S''
F1
ss(g16
g2819
tp3842
g1
(g7
tRp3843
g182
F1
ss(g2048
g35
tp3844
g1
(g7
tRp3845
g38
F1
ss(g1883
g3237
tp3846
g1
(g7
tRp3847
g2461
F1
ss(g537
tp3848
g1
(g7
tRp3849
g2993
F1
ss(g1934
g662
tp3850
g1
(g7
tRp3851
g663
F1
ss(g1349
g2494
tp3852
g1
(g7
tRp3853
g2019
F1
ss(g1289
tp3854
g1
(g7
tRp3855
S''
F1
ss(g619
tp3856
g1
(g7
tRp3857
g3473
F1
ss(g3468
g3126
tp3858
g1
(g7
tRp3859
g2004
F1
ss(g1549
tp3860
g1
(g7
tRp3861
g3686
F0.33333333333333331
sg1550
F0.33333333333333331
sS'families'
p3862
F0.33333333333333331
ss(S'I'
S'believe'
p3863
tp3864
g1
(g7
tRp3865
S'in'
p3866
F0.5
sg2700
F0.5
ss(g1408
g1411
tp3867
g1
(g7
tRp3868
g828
F1
ss(g1295
g1375
tp3869
g1
(g7
tRp3870
g1376
F1
ss(g467
g470
tp3871
g1
(g7
tRp3872
g1081
F1
ss(g835
g1041
tp3873
g1
(g7
tRp3874
g577
F1
ss(g310
g313
tp3875
g1
(g7
tRp3876
g700
F1
ss(g1112
g1446
tp3877
g1
(g7
tRp3878
g1447
F1
ss(g2997
tp3879
g1
(g7
tRp3880
g3000
F1
ss(g728
g2544
tp3881
g1
(g7
tRp3882
g2545
F1
ss(S'will'
g752
tp3883
g1
(g7
tRp3884
g753
F1
ss(g1178
g1722
tp3885
g1
(g7
tRp3886
g882
F1
ss(g3197
tp3887
g1
(g7
tRp3888
g2422
F1
ss(S'and'
p3889
g1287
tp3890
g1
(g7
tRp3891
S'many'
p3892
F1
ss(g51
g3575
tp3893
g1
(g7
tRp3894
g327
F1
ss(g1173
tp3895
g1
(g7
tRp3896
g956
F0.125
sg2545
F0.125
sS'I'
F0.125
sg1557
F0.125
sg3508
F0.125
sg1253
F0.125
sg1093
F0.125
sg475
F0.125
ss(g1469
g1472
tp3897
g1
(g7
tRp3898
g1295
F1
ss(g2150
g2153
tp3899
g1
(g7
tRp3900
g2711
F0.33333333333333331
sg3021
F0.33333333333333331
sS'North'
p3901
F0.33333333333333331
ss(g1580
g1583
tp3902
g1
(g7
tRp3903
g1314
F1
ss(g281
g164
tp3904
g1
(g7
tRp3905
g1370
F1
ss(g1558
tp3906
g1
(g7
tRp3907
g1561
F1
ss(g338
g102
tp3908
g1
(g7
tRp3909
g1106
F1
ss(g3125
g3749
tp3910
g1
(g7
tRp3911
S'we'
p3912
F1
ss(g2657
tp3913
g1
(g7
tRp3914
g2660
F1
ss(g2143
g1504
tp3915
g1
(g7
tRp3916
g1505
F1
ss(g454
g457
tp3917
g1
(g7
tRp3918
g1246
F1
ss(S'short,'
p3919
g2923
tp3920
g1
(g7
tRp3921
g2926
F1
ss(g436
g439
tp3922
g1
(g7
tRp3923
g3101
F1
ss(g2885
S'that'
p3924
tp3925
g1
(g7
tRp3926
S'is'
p3927
F1
ss(S'to'
p3928
g129
tp3929
g1
(g7
tRp3930
S'a'
F1
ss(S'a'
g1697
tp3931
g1
(g7
tRp3932
g3291
F1
ss(g2841
tp3933
g1
(g7
tRp3934
g2079
F1
ss(S'else'
p3935
g707
tp3936
g1
(g7
tRp3937
g1294
F1
ss(g1792
g572
tp3938
g1
(g7
tRp3939
g1231
F0.65000000000000002
sg573
F0.34999999999999998
ss(g1102
g1105
tp3940
g1
(g7
tRp3941
S'give'
p3942
F1
ss(g3710
g3713
tp3943
g1
(g7
tRp3944
g2187
F1
ss(S'nation'
p3945
g2981
tp3946
g1
(g7
tRp3947
S'a'
F1
ss(g2635
g2919
tp3948
g1
(g7
tRp3949
g2922
F1
ss(g539
tp3950
g1
(g7
tRp3951
g1850
F1
ss(g948
g2483
tp3952
g1
(g7
tRp3953
g2486
F1
ss(g2729
tp3954
g1
(g7
tRp3955
g1283
F1
ss(g340
g2984
tp3956
g1
(g7
tRp3957
S'anything'
p3958
F1
ss(g1044
g3284
tp3959
g1
(g7
tRp3960
g1867
F1
ss(g933
tp3961
g1
(g7
tRp3962
g2585
F0.5
sg1494
F0.5
ss(g827
g1112
tp3963
g1
(g7
tRp3964
g1446
F1
ss(g1572
g1863
tp3965
g1
(g7
tRp3966
g1864
F1
ss(S'it'
p3967
g53
tp3968
g1
(g7
tRp3969
S'people'
p3970
F1
ss(g433
S'strength'
p3971
tp3972
g1
(g7
tRp3973
g2623
F1
ss(g972
tp3974
g1
(g7
tRp3975
S'capabilities'
p3976
F1
ss(g1589
tp3977
g1
(g7
tRp3978
S''
F0.5
sg1002
F0.5
ss(g2183
g2186
tp3979
g1
(g7
tRp3980
g3033
F0.5
sS'the'
p3981
F0.5
ss(g1840
g1538
tp3982
g1
(g7
tRp3983
g310
F1
ss(g3413
g3207
tp3984
g1
(g7
tRp3985
g2193
F1
ss(S'And'
g3967
tp3986
g1
(g7
tRp3987
g52
F0.5
sg53
F0.5
ss(g935
g2967
tp3988
g1
(g7
tRp3989
g2970
F1
ss(g1067
g1070
tp3990
g1
(g7
tRp3991
S'a'
F1
ss(g3757
tp3992
g1
(g7
tRp3993
g3760
F1
ss(g370
g374
tp3994
g1
(g7
tRp3995
g3775
F1
ss(g2370
g3768
tp3996
g1
(g7
tRp3997
g1704
F0.5
sg361
F0.5
ss(g430
S'a'
tp3998
g1
(g7
tRp3999
g1775
F1
ss(g883
tp4000
g1
(g7
tRp4001
S''
F0.071999999999999995
sg1126
F0.071999999999999995
sg886
F0.14133333333333331
sg604
F0.071999999999999995
sg1792
F0.071999999999999995
sg554
F0.071999999999999995
sg27
F0.071999999999999995
sg789
F0.14133333333333331
sg3779
F0.071999999999999995
sg195
F0.071999999999999995
sg2648
F0.14133333333333331
ss(g1025
g2667
tp4002
g1
(g7
tRp4003
g1066
F1
ss(g3325
g3328
tp4004
g1
(g7
tRp4005
g1858
F1
ss(g1037
tp4006
g1
(g7
tRp4007
g1038
F1
ss(g756
tp4008
g1
(g7
tRp4009
S'I'
F0.20370370370370372
sg900
F0.20370370370370372
sg136
F0.38888888888888884
sg901
F0.20370370370370372
ss(g773
S'I'
tp4010
g1
(g7
tRp4011
g3666
F1
ss(g1635
tp4012
g1
(g7
tRp4013
S''
F1
ss(S'We'
g3422
tp4014
g1
(g7
tRp4015
g2034
F1
ss(g154
tp4016
g1
(g7
tRp4017
g1714
F0.5
sg1718
F0.5
ss(g514
tp4018
g1
(g7
tRp4019
g2041
F1
ss(g2322
g2325
tp4020
g1
(g7
tRp4021
g613
F1
ss(g1234
g2182
tp4022
g1
(g7
tRp4023
g1592
F1
ss(S'that'
p4024
g731
tp4025
g1
(g7
tRp4026
S''
F1
ss(g292
g295
tp4027
g1
(g7
tRp4028
g3325
F1
ss(g337
g1256
tp4029
g1
(g7
tRp4030
S'a'
F1
ss(g2964
tp4031
g1
(g7
tRp4032
g428
F0.013917808219178082
sS'all'
p4033
F0.027726027397260274
sg1408
F0.013917808219178082
sg2557
F0.013917808219178082
sg613
F0.013917808219178082
sg2457
F0.013917808219178082
sg413
F0.013917808219178082
sg128
F0.013917808219178082
sg315
F0.013917808219178082
sg129
F0.013917808219178082
sg965
F0.082958904109589046
sg2122
F0.013917808219178082
sg1475
F0.013917808219178082
sg3575
F0.013917808219178082
sg126
F0.013917808219178082
sg2386
F0.013917808219178082
sg430
F0.027726027397260274
sg1795
F0.013917808219178082
sg68
F0.013917808219178082
sg432
F0.013917808219178082
sg246
F0.027726027397260274
sS'emphasize'
p4034
F0.013917808219178082
sg1196
F0.013917808219178082
sg1904
F0.027726027397260274
sg1573
F0.013917808219178082
sg793
F0.069150684931506848
sg2434
F0.013917808219178082
sg883
F0.027726027397260274
sS'get'
p4035
F0.041534246575342465
sg103
F0.013917808219178082
sg431
F0.013917808219178082
sg3697
F0.013917808219178082
sg740
F0.013917808219178082
sg2882
F0.013917808219178082
sg639
F0.013917808219178082
sg588
F0.027726027397260274
sg3750
F0.027726027397260274
sg2183
F0.013917808219178082
sg429
F0.013917808219178082
sS'a'
F0.013917808219178082
sg1541
F0.013917808219178082
sg405
F0.013917808219178082
sg2836
F0.013917808219178082
sg2342
F0.013917808219178082
sg127
F0.013917808219178082
sg2657
F0.013917808219178082
sS'benefit'
p4036
F0.013917808219178082
sg433
F0.013917808219178082
sg2070
F0.013917808219178082
sg1510
F0.013917808219178082
sg1890
F0.013917808219178082
sg815
F0.013917808219178082
sg961
F0.027726027397260274
ss(g3473
g3476
tp4037
g1
(g7
tRp4038
g1289
F1
ss(S'is'
g983
tp4039
g1
(g7
tRp4040
g1196
F1
ss(g2931
g2608
tp4041
g1
(g7
tRp4042
g568
F1
ss(S'a'
g2357
tp4043
g1
(g7
tRp4044
g1469
F1
ss(g2576
g1655
tp4045
g1
(g7
tRp4046
g1656
F1
ss(g3901
g915
tp4047
g1
(g7
tRp4048
g916
F1
ss(g1076
tp4049
g1
(g7
tRp4050
g547
F0.5
sg1077
F0.5
ss(g1532
g1535
tp4051
g1
(g7
tRp4052
g3029
F1
ss(g492
tp4053
g1
(g7
tRp4054
S'will'
p4055
F1
ss(g745
g1635
tp4056
g1
(g7
tRp4057
S''
F1
ss(g1749
tp4058
g1
(g7
tRp4059
g1684
F0.035982008995502239
sg1875
F0.035982008995502239
sg207
F0.17691154422788599
sg2137
F0.035982008995502239
sg1750
F0.035982008995502239
sS'I'
F0.14167916041979006
sg3967
F0.071214392803598175
sg2372
F0.035982008995502239
sg1645
F0.035982008995502239
sg769
F0.071214392803598175
sS'let'
p4060
F0.035982008995502239
sg644
F0.035982008995502239
sg3753
F0.035982008995502239
sS"I'm"
p4061
F0.035982008995502239
sS"that's"
p4062
F0.071214392803598175
sg114
F0.035982008995502239
sg1988
F0.035982008995502239
sg2204
F0.035982008995502239
ss(g2144
S'I'
tp4063
g1
(g7
tRp4064
S"didn't"
p4065
F1
ss(g2070
g2073
tp4066
g1
(g7
tRp4067
g3320
F1
ss(g3515
tp4068
g1
(g7
tRp4069
S'to'
p4070
F1
ss(g3288
tp4071
g1
(g7
tRp4072
S'at'
p4073
F1
ss(g1322
tp4074
g1
(g7
tRp4075
S''
F1
ss(g1249
g1904
tp4076
g1
(g7
tRp4077
g2092
F0.5
sg1905
F0.5
ss(g1022
g1025
tp4078
g1
(g7
tRp4079
g2667
F1
ss(g775
g778
tp4080
g1
(g7
tRp4081
g1493
F1
ss(g880
g4035
tp4082
g1
(g7
tRp4083
g2904
F0.33333333333333331
sg1481
F0.33333333333333331
sg3102
F0.33333333333333331
ss(g255
tp4084
g1
(g7
tRp4085
g256
F1
ss(g722
g1065
tp4086
g1
(g7
tRp4087
g9
F1
ss(g739
tp4088
g1
(g7
tRp4089
g1193
F0.5
sS''
F0.5
ss(S'a'
g1453
tp4090
g1
(g7
tRp4091
g1454
F1
ss(g346
g303
tp4092
g1
(g7
tRp4093
g1588
F0.5
sg304
F0.5
ss(S'But'
g2996
tp4094
g1
(g7
tRp4095
g2997
F1
ss(g53
tp4096
g1
(g7
tRp4097
g3072
F0.5
sg3970
F0.5
ss(g1748
tp4098
g1
(g7
tRp4099
S'of'
p4100
F1
ss(g159
g165
tp4101
g1
(g7
tRp4102
S'I'
F1
ss(g342
tp4103
g1
(g7
tRp4104
g343
F1
ss(g1145
g1148
tp4105
g1
(g7
tRp4106
g1426
F1
ss(g2703
tp4107
g1
(g7
tRp4108
g2706
F0.10489510489510488
sg122
F0.79020979020979032
sg1450
F0.10489510489510488
ss(g2308
g2311
tp4109
g1
(g7
tRp4110
g436
F1
ss(g1211
g1214
tp4111
g1
(g7
tRp4112
g26
F1
ss(g296
g300
tp4113
g1
(g7
tRp4114
S''
F1
ss(g1895
tp4115
g1
(g7
tRp4116
g907
F1
ss(S'We'
S'should'
p4117
tp4118
g1
(g7
tRp4119
g3523
F1
ss(g1576
tp4120
g1
(g7
tRp4121
g2265
F1
ss(g3201
g3071
tp4122
g1
(g7
tRp4123
g3072
F1
ss(g2010
g2497
tp4124
g1
(g7
tRp4125
g766
F1
ss(g1584
tp4126
g1
(g7
tRp4127
g1587
F1
ss(g3181
tp4128
g1
(g7
tRp4129
S''
F1
ss(g1722
tp4130
g1
(g7
tRp4131
g882
F1
ss(g1392
g1395
tp4132
g1
(g7
tRp4133
g2235
F1
ss(S'get'
p4134
g3102
tp4135
g1
(g7
tRp4136
g3105
F1
ss(g2882
g2885
tp4137
g1
(g7
tRp4138
g3924
F1
ss(S'We'
g3558
tp4139
g1
(g7
tRp4140
g1661
F1
ss(g2099
g2143
tp4141
g1
(g7
tRp4142
g1504
F1
ss(g3178
tp4143
g1
(g7
tRp4144
g3181
F1
ss(g1508
g1741
tp4145
g1
(g7
tRp4146
S'I'
F1
ss(g228
tp4147
g1
(g7
tRp4148
g231
F0.25714285714285712
sg3226
F0.48571428571428577
sg387
F0.25714285714285712
ss(g273
tp4149
g1
(g7
tRp4150
S''
F0.126984126984127
sg276
F0.126984126984127
sg2401
F0.126984126984127
sg1278
F0.36507936507936511
sg2280
F0.126984126984127
sS'believe'
p4151
F0.126984126984127
ss(g3292
tp4152
g1
(g7
tRp4153
S''
F1
ss(g164
g1370
tp4154
g1
(g7
tRp4155
g131
F1
ss(g1852
tp4156
g1
(g7
tRp4157
g1855
F1
ss(g3408
tp4158
g1
(g7
tRp4159
g3409
F1
ss(g1874
tp4160
g1
(g7
tRp4161
g1730
F0.5
sg118
F0.5
ss(g333
tp4162
g1
(g7
tRp4163
S''
F0.5
sg400
F0.5
ss(g3082
g3085
tp4164
g1
(g7
tRp4165
S'of'
p4166
F1
ss(g3958
g695
tp4167
g1
(g7
tRp4168
g2682
F1
ss(g1463
tp4169
g1
(g7
tRp4170
g1466
F1
ss(g141
tp4171
g1
(g7
tRp4172
g142
F1
ss(g1535
g3029
tp4173
g1
(g7
tRp4174
g3032
F1
ss(g1177
g709
tp4175
g1
(g7
tRp4176
g333
F0.5
sg338
F0.5
ss(g231
tp4177
g1
(g7
tRp4178
g1148
F0.25714285714285712
sg2055
F0.25714285714285712
sg1961
F0.48571428571428577
ss(g3276
g3279
tp4179
g1
(g7
tRp4180
S'foreign'
p4181
F1
ss(g340
tp4182
g1
(g7
tRp4183
g2984
F1
ss(g2835
g2092
tp4184
g1
(g7
tRp4185
g3226
F1
ss(g3101
g99
tp4186
g1
(g7
tRp4187
S''
F1
ss(g3075
tp4188
g1
(g7
tRp4189
g2337
F1
ss(g1102
tp4190
g1
(g7
tRp4191
g1105
F1
ss(g2265
g2268
tp4192
g1
(g7
tRp4193
S'a'
F0.5
sg1521
F0.5
ss(g1587
g2903
tp4194
g1
(g7
tRp4195
g1831
F1
ss(g2692
tp4196
g1
(g7
tRp4197
g1203
F0.5
sg857
F0.5
ss(g425
g431
tp4198
g1
(g7
tRp4199
g2119
F1
ss(g2494
tp4200
g1
(g7
tRp4201
g2019
F1
ss(g182
g185
tp4202
g1
(g7
tRp4203
S''
F1
ss(g2926
S'give'
p4204
tp4205
g1
(g7
tRp4206
S'it'
p4207
F1
ss(g154
g1718
tp4208
g1
(g7
tRp4209
g1721
F1
ss(g1573
g1576
tp4210
g1
(g7
tRp4211
g2265
F1
ss(g2901
S'do'
p4212
tp4213
g1
(g7
tRp4214
S'you'
p4215
F1
ss(g2143
tp4216
g1
(g7
tRp4217
g1504
F1
ss(g1183
tp4218
g1
(g7
tRp4219
g2987
F1
ss(g894
tp4220
g1
(g7
tRp4221
g1007
F1
ss(g5
tp4222
g1
(g7
tRp4223
S''
F1
ss(S'for'
p4224
g863
tp4225
g1
(g7
tRp4226
g592
F1
ss(g3195
tp4227
g1
(g7
tRp4228
g111
F0.33333333333333331
sg3264
F0.33333333333333331
sg1641
F0.33333333333333331
ss(g785
g788
tp4229
g1
(g7
tRp4230
g681
F1
ss(g2216
tp4231
g1
(g7
tRp4232
g2425
F1
ss(S'we'
p4233
g751
tp4234
g1
(g7
tRp4235
g1060
F1
ss(g2154
g1389
tp4236
g1
(g7
tRp4237
g726
F1
ss(g1890
g2918
tp4238
g1
(g7
tRp4239
g3378
F1
ss(g3122
g2154
tp4240
g1
(g7
tRp4241
g1389
F1
ss(g4034
tp4242
g1
(g7
tRp4243
g1808
F1
ss(g2268
g1521
tp4244
g1
(g7
tRp4245
g1522
F1
ss(g559
tp4246
g1
(g7
tRp4247
g2978
F1
ss(g1644
tp4248
g1
(g7
tRp4249
g3919
F0.5
sg1149
F0.5
ss(g1290
g2326
tp4250
g1
(g7
tRp4251
g822
F1
ss(g3476
g1289
tp4252
g1
(g7
tRp4253
S''
F1
ss(g1472
g1295
tp4254
g1
(g7
tRp4255
S'need'
p4256
F0.5
sg1375
F0.5
ss(g3337
tp4257
g1
(g7
tRp4258
g3285
F1
ss(g1299
g1166
tp4259
g1
(g7
tRp4260
g1167
F1
ss(g389
g392
tp4261
g1
(g7
tRp4262
g3497
F1
ss(g410
g413
tp4263
g1
(g7
tRp4264
S'things'
p4265
F1
ss(g1550
g869
tp4266
g1
(g7
tRp4267
g2279
F1
ss(g2153
g2711
tp4268
g1
(g7
tRp4269
g2712
F1
ss(g3134
g2820
tp4270
g1
(g7
tRp4271
g3297
F1
ss(g3026
g621
tp4272
g1
(g7
tRp4273
g622
F0.5
sg1828
F0.5
ss(g877
tp4274
g1
(g7
tRp4275
S'I'
F0.19999999999999998
sg880
F0.19999999999999998
sg881
F0.19999999999999998
sg352
F0.19999999999999998
sg278
F0.19999999999999998
ss(g2280
g2283
tp4276
g1
(g7
tRp4277
g2891
F1
ss(g439
g3101
tp4278
g1
(g7
tRp4279
g99
F1
ss(g2231
g1883
tp4280
g1
(g7
tRp4281
g3237
F1
ss(g3457
g3661
tp4282
g1
(g7
tRp4283
S'a'
F0.5
sS''
F0.5
ss(g559
g2978
tp4284
g1
(g7
tRp4285
g743
F1
ss(g832
tp4286
g1
(g7
tRp4287
g835
F1
ss(g2197
g2011
tp4288
g1
(g7
tRp4289
g1399
F1
ss(g187
g190
tp4290
g1
(g7
tRp4291
S'a'
F1
ss(g1346
g1349
tp4292
g1
(g7
tRp4293
g2494
F1
ss(g376
g379
tp4294
g1
(g7
tRp4295
g2553
F1
ss(g2191
g1821
tp4296
g1
(g7
tRp4297
g1822
F1
ss(g1188
g162
tp4298
g1
(g7
tRp4299
g604
F1
ss(g2905
S'a'
tp4300
g1
(g7
tRp4301
g1274
F0.65000000000000002
sg1392
F0.34999999999999998
ss(S'doing'
p4302
g1754
tp4303
g1
(g7
tRp4304
g1755
F1
ss(g2950
g811
tp4305
g1
(g7
tRp4306
g812
F1
ss(g81
g84
tp4307
g1
(g7
tRp4308
S'the'
p4309
F1
ss(g135
g2441
tp4310
g1
(g7
tRp4311
S'a'
F1
ss(g2116
g2493
tp4312
g1
(g7
tRp4313
g3458
F1
ss(g3159
S'America'
p4314
tp4315
g1
(g7
tRp4316
S''
F1
ss(g2425
tp4317
g1
(g7
tRp4318
g2894
F0.25714285714285712
sg2253
F0.48571428571428577
sg342
F0.25714285714285712
ss(g4070
g4036
tp4319
g1
(g7
tRp4320
S'the'
p4321
F1
ss(g1684
g1687
tp4322
g1
(g7
tRp4323
S'far'
p4324
F1
ss(S'the'
g685
tp4325
g1
(g7
tRp4326
g688
F1
ss(g2703
g2706
tp4327
g1
(g7
tRp4328
g3302
F1
ss(g1227
tp4329
g1
(g7
tRp4330
g1230
F1
ss(g2056
g2059
tp4331
g1
(g7
tRp4332
g2780
F1
ss(g875
g1271
tp4333
g1
(g7
tRp4334
g405
F1
ss(g700
g703
tp4335
g1
(g7
tRp4336
g2886
F1
ss(g3187
tp4337
g1
(g7
tRp4338
g3422
F0.084249084249084269
sg3558
F0.084249084249084269
sS'give'
p4339
F0.084249084249084269
sg4117
F0.16483516483516486
sg3329
F0.084249084249084269
sg1458
F0.16483516483516486
sS'need'
p4340
F0.16483516483516486
sg2651
F0.084249084249084269
sg1432
F0.084249084249084269
ss(g1892
g1895
tp4341
g1
(g7
tRp4342
g907
F1
ss(g2715
g2943
tp4343
g1
(g7
tRp4344
g2946
F0.65000000000000002
sg2947
F0.34999999999999998
ss(g424
tp4345
g1
(g7
tRp4346
S'a'
F0.48571428571428571
sg1214
F0.17142857142857143
sg3009
F0.17142857142857143
sg1629
F0.17142857142857143
ss(g1522
tp4347
g1
(g7
tRp4348
g1896
F0.125
sg155
F0.125
sS'--'
p4349
F0.125
sg2483
F0.125
sg319
F0.125
sg1525
F0.125
sg3667
F0.125
sg1057
F0.125
ss(g1466
tp4350
g1
(g7
tRp4351
g876
F1
ss(g2706
tp4352
g1
(g7
tRp4353
g3302
F1
ss(g2922
tp4354
g1
(g7
tRp4355
g1054
F0.65000000000000002
sS'that'
p4356
F0.34999999999999998
ss(g3402
tp4357
g1
(g7
tRp4358
g3337
F0.125
sg1353
F0.125
sg2576
F0.125
sg3413
F0.125
sg2608
F0.125
sg492
F0.125
sg421
F0.125
sg1892
F0.125
ss(S'just'
g1222
tp4359
g1
(g7
tRp4360
g1225
F1
ss(g675
g679
tp4361
g1
(g7
tRp4362
g2410
F1
ss(g3269
tp4363
g1
(g7
tRp4364
S''
F0.33333333333333331
sg1878
F0.33333333333333331
sg1694
F0.33333333333333331
ss(g35
g38
tp4365
g1
(g7
tRp4366
S''
F1
ss(g59
g62
tp4367
g1
(g7
tRp4368
g1090
F1
ss(g2841
g2079
tp4369
g1
(g7
tRp4370
g2080
F1
ss(g2692
g857
tp4371
g1
(g7
tRp4372
g609
F1
ss(g1750
g1753
tp4373
g1
(g7
tRp4374
g1170
F1
ss(g3203
g2286
tp4375
g1
(g7
tRp4376
g717
F1
ss(g746
tp4377
g1
(g7
tRp4378
g2020
F0.34999999999999998
sg747
F0.65000000000000002
ss(S'are'
g2759
tp4379
g1
(g7
tRp4380
g2762
F1
ss(g1007
g1010
tp4381
g1
(g7
tRp4382
g2720
F1
ss(g3306
g2157
tp4383
g1
(g7
tRp4384
g2160
F1
ss(g2020
g1338
tp4385
g1
(g7
tRp4386
g1302
F1
ss(g2011
tp4387
g1
(g7
tRp4388
g1399
F1
ss(S'to'
g3750
tp4389
g1
(g7
tRp4390
S''
F0.5
sg1694
F0.5
ss(g2824
g2827
tp4391
g1
(g7
tRp4392
g1288
F1
ss(g3279
g4181
tp4393
g1
(g7
tRp4394
S'aid:'
p4395
F1
ss(g3303
g335
tp4396
g1
(g7
tRp4397
g2033
F0.33333333333333331
sg544
F0.33333333333333331
sg2035
F0.33333333333333331
ss(g1174
g1178
tp4398
g1
(g7
tRp4399
g1722
F1
ss(g1717
g2541
tp4400
g1
(g7
tRp4401
S''
F1
ss(g936
g332
tp4402
g1
(g7
tRp4403
g789
F1
ss(S'other'
p4404
g263
tp4405
g1
(g7
tRp4406
g264
F1
ss(g409
tp4407
g1
(g7
tRp4408
g410
F1
ss(g68
g71
tp4409
g1
(g7
tRp4410
g2093
F1
ss(S'will'
p4411
g3456
tp4412
g1
(g7
tRp4413
g1514
F0.5
sg1303
F0.5
ss(g1446
tp4414
g1
(g7
tRp4415
g1447
F1
ss(g454
tp4416
g1
(g7
tRp4417
g457
F1
ss(g1417
g1057
tp4418
g1
(g7
tRp4419
g396
F1
ss(g580
g314
tp4420
g1
(g7
tRp4421
g315
F1
ss(g605
tp4422
g1
(g7
tRp4423
g608
F1
ss(g1246
tp4424
g1
(g7
tRp4425
g1249
F1
ss(g1567
g255
tp4426
g1
(g7
tRp4427
g256
F1
ss(g3125
tp4428
g1
(g7
tRp4429
g3749
F0.5
sg1831
F0.5
ss(g1896
g1899
tp4430
g1
(g7
tRp4431
S''
F0.20370370370370372
sS'the'
p4432
F0.38888888888888884
sg12
F0.20370370370370372
sg16
F0.20370370370370372
ss(S'And'
g4062
tp4433
g1
(g7
tRp4434
g3782
F0.5
sg928
F0.5
ss(g3757
g3760
tp4435
g1
(g7
tRp4436
g2550
F1
ss(g792
tp4437
g1
(g7
tRp4438
g2456
F0.33333333333333331
sg2707
F0.33333333333333331
sg1513
F0.33333333333333331
ss(g877
g880
tp4439
g1
(g7
tRp4440
g4035
F1
ss(g613
tp4441
g1
(g7
tRp4442
g614
F1
ss(g3437
tp4443
g1
(g7
tRp4444
g3121
F1
ss(g1882
g1891
tp4445
g1
(g7
tRp4446
g1892
F1
ss(g2493
tp4447
g1
(g7
tRp4448
g295
F0.16666666666666666
sg3458
F0.16666666666666666
sg4204
F0.16666666666666666
sg1433
F0.16666666666666666
sg3679
F0.16666666666666666
sg1949
F0.16666666666666666
ss(g2007
g2010
tp4449
g1
(g7
tRp4450
g2497
F1
ss(g3009
g31
tp4451
g1
(g7
tRp4452
g32
F1
ss(g3461
g1914
tp4453
g1
(g7
tRp4454
S''
F1
ss(S'a'
g2364
tp4455
g1
(g7
tRp4456
g510
F1
ss(g392
tp4457
g1
(g7
tRp4458
g3497
F1
ss(S'a'
g2362
tp4459
g1
(g7
tRp4460
g63
F1
ss(S'I'
g3288
tp4461
g1
(g7
tRp4462
g4073
F1
ss(g3976
tp4463
g1
(g7
tRp4464
S''
F1
ss(g926
tp4465
g1
(g7
tRp4466
g1930
F1
ss(g680
g3269
tp4467
g1
(g7
tRp4468
g1878
F1
ss(g433
tp4469
g1
(g7
tRp4470
g3971
F1
ss(g1422
g1425
tp4471
g1
(g7
tRp4472
g1607
F1
ss(g2667
g1066
tp4473
g1
(g7
tRp4474
g1067
F1
ss(g886
g982
tp4475
g1
(g7
tRp4476
g2692
F1
ss(g43
S'to'
p4477
tp4478
g1
(g7
tRp4479
g222
F1
ss(g1279
g1282
tp4480
g1
(g7
tRp4481
g2109
F1
ss(S'And'
g114
tp4482
g1
(g7
tRp4483
g117
F1
ss(g2804
g797
tp4484
g1
(g7
tRp4485
g798
F1
ss(g3592
g4
tp4486
g1
(g7
tRp4487
g5
F1
ss(g1802
tp4488
g1
(g7
tRp4489
g1375
F0.025189924030387841
sg1791
F0.074770091963214699
sg291
F0.025189924030387841
sg80
F0.025189924030387841
sg213
F0.04998000799680128
sg750
F0.025189924030387841
sg2589
F0.025189924030387841
sg1883
F0.025189924030387841
sg3086
F0.025189924030387841
sg751
F0.025189924030387841
sg2216
F0.025189924030387841
sg1996
F0.025189924030387841
sg2007
F0.074770091963214699
sg211
F0.025189924030387841
sg1129
F0.025189924030387841
sg212
F0.24830067972810871
sg1722
F0.149140343862455
sg1882
F0.025189924030387841
sg242
F0.025189924030387841
sg2269
F0.025189924030387841
sg2493
F0.025189924030387841
ss(g3017
g3020
tp4490
g1
(g7
tRp4491
S'of'
p4492
F1
ss(S'a'
g2355
tp4493
g1
(g7
tRp4494
S''
F1
ss(g1938
g1961
tp4495
g1
(g7
tRp4496
S'a'
F0.5
sg3009
F0.5
ss(g1637
g1640
tp4497
g1
(g7
tRp4498
S'I'
F1
ss(g634
tp4499
g1
(g7
tRp4500
g1919
F1
ss(g3288
g4073
tp4501
g1
(g7
tRp4502
S'the'
p4503
F1
ss(g1193
tp4504
g1
(g7
tRp4505
S''
F1
ss(g872
tp4506
g1
(g7
tRp4507
g875
F1
ss(g4100
g1886
tp4508
g1
(g7
tRp4509
g1887
F1
ss(g381
S'a'
tp4510
g1
(g7
tRp4511
g2357
F1
ss(g1934
tp4512
g1
(g7
tRp4513
g662
F1
ss(g151
tp4514
g1
(g7
tRp4515
g154
F1
ss(g1735
tp4516
g1
(g7
tRp4517
g1736
F1
ss(g2364
g510
tp4518
g1
(g7
tRp4519
g513
F0.5
sg514
F0.5
ss(g658
g661
tp4520
g1
(g7
tRp4521
g992
F1
ss(g2967
g2970
tp4522
g1
(g7
tRp4523
g4134
F1
ss(g1290
tp4524
g1
(g7
tRp4525
S'to'
p4526
F0.5
sg2326
F0.5
ss(g240
g1553
tp4527
g1
(g7
tRp4528
g1556
F1
ss(g3091
g3094
tp4529
g1
(g7
tRp4530
g1133
F1
ss(g373
g1299
tp4531
g1
(g7
tRp4532
g1166
F1
ss(g3029
g3032
tp4533
g1
(g7
tRp4534
S'the'
p4535
F1
ss(S'not'
p4536
g3135
tp4537
g1
(g7
tRp4538
g1612
F1
ss(S'no'
p4539
g1588
tp4540
g1
(g7
tRp4541
g1589
F1
ss(g2149
tp4542
g1
(g7
tRp4543
g2150
F1
ss(g2748
tp4544
g1
(g7
tRp4545
g871
F1
ss(g2608
tp4546
g1
(g7
tRp4547
g568
F1
ss(g940
tp4548
g1
(g7
tRp4549
g943
F1
ss(g781
g51
tp4550
g1
(g7
tRp4551
g3575
F0.5
sg3750
F0.5
ss(g608
g180
tp4552
g1
(g7
tRp4553
g1939
F1
ss(g2580
tp4554
g1
(g7
tRp4555
g733
F1
ss(S'of'
g2901
tp4556
g1
(g7
tRp4557
g4212
F1
ss(g3492
g2766
tp4558
g1
(g7
tRp4559
g2767
F1
ss(g1799
tp4560
g1
(g7
tRp4561
g1802
F1
ss(g3041
g728
tp4562
g1
(g7
tRp4563
g2544
F1
ss(g458
g461
tp4564
g1
(g7
tRp4565
g2670
F1
ss(g3912
g2589
tp4566
g1
(g7
tRp4567
g4224
F1
ss(g3207
g2193
tp4568
g1
(g7
tRp4569
g2194
F1
ss(g3901
tp4570
g1
(g7
tRp4571
g1081
F0.5
sg915
F0.5
ss(g1227
g1230
tp4572
g1
(g7
tRp4573
g1118
F1
ss(S'But'
S'I'
tp4574
g1
(g7
tRp4575
g500
F1
ss(g703
g2886
tp4576
g1
(g7
tRp4577
g1549
F1
ss(g4033
g825
tp4578
g1
(g7
tRp4579
S''
F1
ss(g3297
g103
tp4580
g1
(g7
tRp4581
S''
F1
ss(g1263
tp4582
g1
(g7
tRp4583
g1946
F0.14583333333333334
sg1947
F0.14583333333333334
sg1076
F0.28125
sg286
F0.14583333333333334
sg1771
F0.28125
ss(g969
g2307
tp4584
g1
(g7
tRp4585
g2894
F1
ss(g413
tp4586
g1
(g7
tRp4587
g4265
F1
ss(S'a'
g1152
tp4588
g1
(g7
tRp4589
g1155
F0.5
sg1156
F0.5
ss(g304
tp4590
g1
(g7
tRp4591
S''
F1
ss(g4349
S'I'
tp4592
g1
(g7
tRp4593
g1764
F1
ss(g1513
g2576
tp4594
g1
(g7
tRp4595
g1655
F1
ss(g729
g2844
tp4596
g1
(g7
tRp4597
g2845
F1
ss(g2076
tp4598
g1
(g7
tRp4599
g960
F1
ss(g1217
tp4600
g1
(g7
tRp4601
S''
F1
ss(g4181
tp4602
g1
(g7
tRp4603
g4395
F1
ss(g3863
g3866
tp4604
g1
(g7
tRp4605
g940
F0.5
sg3048
F0.5
ss(g2902
g2647
tp4606
g1
(g7
tRp4607
g2648
F1
ss(g1288
g3276
tp4608
g1
(g7
tRp4609
g3279
F1
ss(g1841
tp4610
g1
(g7
tRp4611
g1226
F1
ss(g1514
S'a'
tp4612
g1
(g7
tRp4613
g2360
F1
ss(g988
g991
tp4614
g1
(g7
tRp4615
g3619
F0.5
sg2144
F0.5
ss(g319
g322
tp4616
g1
(g7
tRp4617
g2801
F1
ss(g3381
g3620
tp4618
g1
(g7
tRp4619
S''
F1
ss(g2478
tp4620
g1
(g7
tRp4621
g1429
F1
ss(g42
tp4622
g1
(g7
tRp4623
g121
F1
ss(g794
tp4624
g1
(g7
tRp4625
S''
F1
ss(g3768
g361
tp4626
g1
(g7
tRp4627
g150
F1
ss(g291
tp4628
g1
(g7
tRp4629
S'to'
p4630
F1
ss(g3186
g3765
tp4631
g1
(g7
tRp4632
g3156
F0.25
sS'I'
F0.25
sg2042
F0.25
sg90
F0.25
ss(g2527
g2035
tp4633
g1
(g7
tRp4634
S'with'
p4635
F1
ss(S'the'
p4636
g807
tp4637
g1
(g7
tRp4638
g810
F1
ss(g897
g744
tp4639
g1
(g7
tRp4640
g1871
F1
ss(g1447
g1450
tp4641
g1
(g7
tRp4642
g2317
F1
ss(g2359
g3012
tp4643
g1
(g7
tRp4644
g524
F1
ss(g599
tp4645
g1
(g7
tRp4646
g600
F1
ss(g2188
g2191
tp4647
g1
(g7
tRp4648
g1821
F1
ss(S'think'
p4649
g936
tp4650
g1
(g7
tRp4651
g332
F1
ss(g3328
g1858
tp4652
g1
(g7
tRp4653
S''
F1
ss(g1775
g1778
tp4654
g1
(g7
tRp4655
g1966
F1
ss(g2434
g2331
tp4656
g1
(g7
tRp4657
g2332
F1
ss(g4265
g3242
tp4658
g1
(g7
tRp4659
g860
F1
ss(g1149
g949
tp4660
g1
(g7
tRp4661
g72
F1
ss(g2134
g529
tp4662
g1
(g7
tRp4663
g530
F1
ss(g1997
g759
tp4664
g1
(g7
tRp4665
g760
F1
ss(g991
g2144
tp4666
g1
(g7
tRp4667
S'I'
F1
ss(g1291
g2792
tp4668
g1
(g7
tRp4669
S''
F1
ss(g3779
g260
tp4670
g1
(g7
tRp4671
S''
F1
ss(g291
g4630
tp4672
g1
(g7
tRp4673
g4034
F1
ss(g1117
g1579
tp4674
g1
(g7
tRp4675
g1580
F1
ss(S'a'
g1207
tp4676
g1
(g7
tRp4677
S''
F1
ss(g3686
tp4678
g1
(g7
tRp4679
g3889
F1
ss(g935
tp4680
g1
(g7
tRp4681
g2967
F1
ss(g413
g4265
tp4682
g1
(g7
tRp4683
g3242
F1
ss(g586
tp4684
g1
(g7
tRp4685
S'I'
F1
ss(g609
tp4686
g1
(g7
tRp4687
g610
F1
ss(g2771
tp4688
g1
(g7
tRp4689
g2774
F1
ss(g2507
tp4690
g1
(g7
tRp4691
g2508
F1
ss(g1900
g1903
tp4692
g1
(g7
tRp4693
S'have'
p4694
F1
ss(g1947
g2900
tp4695
g1
(g7
tRp4696
S''
F1
ss(g1697
g3291
tp4697
g1
(g7
tRp4698
g3292
F1
ss(g3106
tp4699
g1
(g7
tRp4700
g1637
F0.5
sg3109
F0.5
ss(g1352
tp4701
g1
(g7
tRp4702
g1384
F1
ss(g2357
tp4703
g1
(g7
tRp4704
g1469
F1
ss(g3892
g3862
tp4705
g1
(g7
tRp4706
S''
F1
ss(g1357
tp4707
g1
(g7
tRp4708
g1358
F1
ss(g2905
tp4709
g1
(g7
tRp4710
S'a'
F0.21066666666666667
sg2060
F0.072000000000000008
sg3021
F0.072000000000000008
sg3901
F0.072000000000000008
sg772
F0.14133333333333334
sg1549
F0.072000000000000008
sg798
F0.072000000000000008
sg4181
F0.072000000000000008
sg1538
F0.072000000000000008
sg773
F0.072000000000000008
sg2711
F0.072000000000000008
ss(g178
g3652
tp4711
g1
(g7
tRp4712
S'when'
p4713
F1
ss(g1411
g828
tp4714
g1
(g7
tRp4715
g1649
F0.5
sg2841
F0.5
ss(g720
g2473
tp4716
g1
(g7
tRp4717
S'I'
F1
ss(g972
g3976
tp4718
g1
(g7
tRp4719
S''
F1
ss(g1318
g1321
tp4720
g1
(g7
tRp4721
g341
F1
ss(g2365
tp4722
g1
(g7
tRp4723
g3106
F1
ss(g2023
tp4724
g1
(g7
tRp4725
g2026
F1
ss(g2657
g2660
tp4726
g1
(g7
tRp4727
g2729
F1
ss(g4036
g4321
tp4728
g1
(g7
tRp4729
g3945
F1
ss(g2845
tp4730
g1
(g7
tRp4731
g661
F0.035890218156228011
sg982
F0.035890218156228011
sg1640
F0.035890218156228011
sg3026
F0.035890218156228011
sg3515
F0.035890218156228011
sg516
F0.035890218156228011
sg1066
F0.035890218156228011
sg4314
F0.035890218156228011
sg2931
F0.035890218156228011
sg983
F0.035890218156228011
sg1978
F0.035890218156228011
sg1913
F0.10626319493314568
sS'a'
F0.035890218156228011
sg281
F0.035890218156228011
sg2580
F0.035890218156228011
sg1204
F0.071076706544686855
sg376
F0.035890218156228011
sg2643
F0.10626319493314568
sg2943
F0.10626319493314568
sg2447
F0.035890218156228011
sg2126
F0.035890218156228011
ss(g1798
tp4732
g1
(g7
tRp4733
g1799
F1
ss(S'justice'
g4526
tp4734
g1
(g7
tRp4735
g4033
F1
ss(S'as'
g772
tp4736
g1
(g7
tRp4737
S'as'
p4738
F1
ss(g2010
tp4739
g1
(g7
tRp4740
S'a'
F0.091269841269841293
sg3652
F0.091269841269841293
sg227
F0.091269841269841293
sg1426
F0.091269841269841293
sg251
F0.091269841269841293
sg3135
F0.091269841269841293
sg1822
F0.1785714285714286
sg2497
F0.091269841269841293
sg471
F0.091269841269841293
sg792
F0.091269841269841293
ss(S'a'
g2360
tp4741
g1
(g7
tRp4742
g2478
F1
ss(g1760
g1763
tp4743
g1
(g7
tRp4744
g2775
F1
ss(S"that's"
g928
tp4745
g1
(g7
tRp4746
S'we'
p4747
F1
ss(g1561
g2824
tp4748
g1
(g7
tRp4749
g2827
F1
ss(g3109
g1217
tp4750
g1
(g7
tRp4751
S''
F1
ss(g1070
tp4752
g1
(g7
tRp4753
S'a'
F0.15259740259740259
sS''
F0.07792207792207792
sg303
F0.15259740259740259
sg1974
F0.07792207792207792
sS'that'
p4754
F0.07792207792207792
sg2430
F0.07792207792207792
sg599
F0.07792207792207792
sg1486
F0.22727272727272727
sg3033
F0.07792207792207792
ss(g1604
g1759
tp4755
g1
(g7
tRp4756
g1760
F1
ss(g3818
g2700
tp4757
g1
(g7
tRp4758
g218
F1
ss(g2528
g1162
tp4759
g1
(g7
tRp4760
g1165
F1
ss(g3284
tp4761
g1
(g7
tRp4762
g1867
F1
ss(g4035
tp4763
g1
(g7
tRp4764
S'a'
F0.19696969696969699
sg1357
F0.10101010101010101
sg2904
F0.10101010101010101
sg988
F0.19696969696969699
sg4477
F0.10101010101010101
sg2123
F0.10101010101010101
sg1481
F0.10101010101010101
sg3102
F0.10101010101010101
ss(g912
g1679
tp4765
g1
(g7
tRp4766
g1032
F1
ss(S'pay'
g1136
tp4767
g1
(g7
tRp4768
g2703
F1
ss(g984
tp4769
g1
(g7
tRp4770
g985
F1
ss(g95
tp4771
g1
(g7
tRp4772
g98
F1
ss(g671
g674
tp4773
g1
(g7
tRp4774
g861
F1
ss(g707
g1294
tp4775
g1
(g7
tRp4776
g2721
F0.5
sg2134
F0.5
ss(g93
S'a'
tp4777
g1
(g7
tRp4778
g1385
F1
ss(g4738
g3021
tp4779
g1
(g7
tRp4780
g3022
F1
ss(g4630
g4034
tp4781
g1
(g7
tRp4782
g1808
F1
ss(g4035
g2904
tp4783
g1
(g7
tRp4784
g2905
F1
ss(g3049
g1290
tp4785
g1
(g7
tRp4786
g4526
F0.5
sg2326
F0.5
ss(g1622
g1625
tp4787
g1
(g7
tRp4788
S''
F1
ss(g524
tp4789
g1
(g7
tRp4790
g525
F1
ss(g1541
tp4791
g1
(g7
tRp4792
g1544
F1
ss(g1583
g1314
tp4793
g1
(g7
tRp4794
g1317
F1
ss(S'a'
g186
tp4795
g1
(g7
tRp4796
g187
F1
ss(g2182
g1592
tp4797
g1
(g7
tRp4798
g599
F1
ss(g1541
g1544
tp4799
g1
(g7
tRp4800
g466
F1
ss(g54
g58
tp4801
g1
(g7
tRp4802
g1141
F0.5
sg3437
F0.5
ss(g4321
g3945
tp4803
g1
(g7
tRp4804
g2981
F1
ss(g1294
tp4805
g1
(g7
tRp4806
g2721
F0.33333333333333331
sg2134
F0.33333333333333331
sg85
F0.33333333333333331
ss(g2891
g2517
tp4807
g1
(g7
tRp4808
g1330
F1
ss(g766
tp4809
g1
(g7
tRp4810
g596
F1
ss(g2553
g2557
tp4811
g1
(g7
tRp4812
S''
F1
ss(g3515
g4070
tp4813
g1
(g7
tRp4814
g4036
F1
ss(g2161
g2164
tp4815
g1
(g7
tRp4816
g887
F1
ss(g2275
tp4817
g1
(g7
tRp4818
g2278
F1
ss(S'The'
S'people'
p4819
tp4820
g1
(g7
tRp4821
S'who'
p4822
F1
ss(g2885
tp4823
g1
(g7
tRp4824
g3924
F1
ss(g634
g1919
tp4825
g1
(g7
tRp4826
g2931
F1
ss(g1817
g1820
tp4827
g1
(g7
tRp4828
g1015
F1
ss(g2269
tp4829
g1
(g7
tRp4830
g2270
F1
ss(g3072
g3075
tp4831
g1
(g7
tRp4832
g2337
F1
ss(g2369
tp4833
g1
(g7
tRp4834
S''
F1
ss(g4181
g4395
tp4835
g1
(g7
tRp4836
g4302
F1
ss(g9
g15
tp4837
g1
(g7
tRp4838
g2577
F0.25
sS'National'
p4839
F0.25
sg2661
F0.25
sg1562
F0.25
ss(g2458
tp4840
g1
(g7
tRp4841
g17
F1
ss(g3194
S'you'
p4842
tp4843
g1
(g7
tRp4844
S'know,'
p4845
F1
ss(g961
g964
tp4846
g1
(g7
tRp4847
S''
F1
ss(g2275
g2278
tp4848
g1
(g7
tRp4849
g3501
F1
ss(g894
g1007
tp4850
g1
(g7
tRp4851
g1010
F1
ss(g2513
tp4852
g1
(g7
tRp4853
g3036
F0.5
sg2812
F0.5
ss(g3567
g1947
tp4854
g1
(g7
tRp4855
g2900
F1
ss(g1352
g1384
tp4856
g1
(g7
tRp4857
g3177
F1
ss(g196
g49
tp4858
g1
(g7
tRp4859
S'a'
F1
ss(g1478
g2990
tp4860
g1
(g7
tRp4861
g537
F1
ss(g1655
tp4862
g1
(g7
tRp4863
g1656
F1
ss(g3190
tp4864
g1
(g7
tRp4865
g416
F0.5
sg4819
F0.5
ss(g1395
tp4866
g1
(g7
tRp4867
g2235
F1
ss(g213
g781
tp4868
g1
(g7
tRp4869
g51
F1
ss(g3686
g3889
tp4870
g1
(g7
tRp4871
g1287
F1
ss(g2170
g591
tp4872
g1
(g7
tRp4873
g1769
F1
ss(g408
g1311
tp4874
g1
(g7
tRp4875
g2430
F1
ss(g2936
g1298
tp4876
g1
(g7
tRp4877
g340
F0.5
sS'have'
p4878
F0.5
ss(g1879
g1882
tp4879
g1
(g7
tRp4880
g1891
F1
ss(S'I'
g1613
tp4881
g1
(g7
tRp4882
S'a'
F1
ss(S'What'
g1177
tp4883
g1
(g7
tRp4884
g709
F1
ss(g214
g217
tp4885
g1
(g7
tRp4886
g2126
F1
ss(g3264
g409
tp4887
g1
(g7
tRp4888
g410
F1
ss(g1553
g1556
tp4889
g1
(g7
tRp4890
g373
F1
ss(g650
tp4891
g1
(g7
tRp4892
g653
F0.5
sS''
F0.5
ss(g2724
S'a'
tp4893
g1
(g7
tRp4894
g1318
F1
ss(g432
g543
tp4895
g1
(g7
tRp4896
g3485
F1
ss(g4395
g4302
tp4897
g1
(g7
tRp4898
g1754
F1
ss(g763
S'a'
tp4899
g1
(g7
tRp4900
g393
F1
ss(g1850
g675
tp4901
g1
(g7
tRp4902
g679
F1
ss(g1697
tp4903
g1
(g7
tRp4904
g3291
F1
ss(g1987
g782
tp4905
g1
(g7
tRp4906
g2643
F1
ss(g995
tp4907
g1
(g7
tRp4908
g277
F1
ss(g3520
g1418
tp4909
g1
(g7
tRp4910
g1419
F1
ss(g2286
tp4911
g1
(g7
tRp4912
g717
F1
ss(g489
g492
tp4913
g1
(g7
tRp4914
g4055
F1
ss(S'a'
g380
tp4915
g1
(g7
tRp4916
g381
F1
ss(g2201
g1252
tp4917
g1
(g7
tRp4918
g2697
F1
ss(g2137
g2140
tp4919
g1
(g7
tRp4920
S'know,'
p4921
F1
ss(g1364
g43
tp4922
g1
(g7
tRp4923
g4477
F0.5
sg2123
F0.5
ss(g3492
tp4924
g1
(g7
tRp4925
g2766
F1
ss(g2894
g2897
tp4926
g1
(g7
tRp4927
g106
F1
ss(S'I'
g204
tp4928
g1
(g7
tRp4929
g1896
F0.16666666666666666
sg155
F0.16666666666666666
sg4349
F0.16666666666666666
sg319
F0.16666666666666666
sg3667
F0.16666666666666666
sg1057
F0.16666666666666666
ss(g2464
S'I'
tp4930
g1
(g7
tRp4931
g2023
F1
ss(g1235
g1238
tp4932
g1
(g7
tRp4933
g3118
F1
ss(g1386
tp4934
g1
(g7
tRp4935
g356
F1
ss(g1905
tp4936
g1
(g7
tRp4937
g866
F0.5
sg1567
F0.5
ss(g2997
g3000
tp4938
g1
(g7
tRp4939
g3110
F1
ss(g759
tp4940
g1
(g7
tRp4941
g760
F1
ss(g1760
tp4942
g1
(g7
tRp4943
g1763
F1
ss(g1742
g1745
tp4944
g1
(g7
tRp4945
S''
F1
ss(g299
g639
tp4946
g1
(g7
tRp4947
g640
F1
ss(g3194
tp4948
g1
(g7
tRp4949
g4842
F1
ss(g3409
g3412
tp4950
g1
(g7
tRp4951
S''
F1
ss(g714
g3697
tp4952
g1
(g7
tRp4953
S''
F1
ss(g89
g1050
tp4954
g1
(g7
tRp4955
g1051
F1
ss(g577
tp4956
g1
(g7
tRp4957
S'a'
F0.11111111111111113
sg2759
F0.11111111111111113
sg353
F0.11111111111111113
sg1376
F0.11111111111111113
sg2544
F0.11111111111111113
sg3332
F0.11111111111111113
sg650
F0.11111111111111113
sg1279
F0.11111111111111113
sg272
F0.11111111111111113
ss(S'And'
g4061
tp4958
g1
(g7
tRp4959
g2748
F1
ss(S'a'
g2359
tp4960
g1
(g7
tRp4961
g3012
F1
ss(g3619
tp4962
g1
(g7
tRp4963
S''
F0.73333333333333328
sg3022
F0.26666666666666666
ss(g881
g2216
tp4964
g1
(g7
tRp4965
g2425
F1
ss(g3156
g3159
tp4966
g1
(g7
tRp4967
g3354
F0.5
sg4314
F0.5
ss(g1975
g1978
tp4968
g1
(g7
tRp4969
g1979
F1
ss(g1546
S'a'
tp4970
g1
(g7
tRp4971
g2361
F1
ss(g2366
g2370
tp4972
g1
(g7
tRp4973
g3768
F1
ss(g827
tp4974
g1
(g7
tRp4975
g1112
F1
ss(g2360
tp4976
g1
(g7
tRp4977
g2478
F1
ss(g3863
tp4978
g1
(g7
tRp4979
g3866
F0.48571428571428577
sg196
F0.25714285714285712
sg2700
F0.25714285714285712
ss(g603
g3149
tp4980
g1
(g7
tRp4981
S''
F1
ss(S'I'
g555
tp4982
g1
(g7
tRp4983
g556
F1
ss(g1187
tp4984
g1
(g7
tRp4985
g1188
F1
ss(g2023
g2026
tp4986
g1
(g7
tRp4987
g3086
F1
ss(g1831
g1834
tp4988
g1
(g7
tRp4989
S''
F0.5
sg299
F0.5
ss(g1644
g3919
tp4990
g1
(g7
tRp4991
g2923
F1
ss(g2311
g436
tp4992
g1
(g7
tRp4993
g439
F1
ss(g4526
g4033
tp4994
g1
(g7
tRp4995
g2840
F0.5
sg825
F0.5
ss(g869
g2279
tp4996
g1
(g7
tRp4997
g2280
F1
ss(g3401
g3710
tp4998
g1
(g7
tRp4999
g3713
F1
ss(g110
g1292
tp5000
g1
(g7
tRp5001
g1494
F1
ss(g1011
g1014
tp5002
g1
(g7
tRp5003
g1113
F1
ss(S'a'
g1775
tp5004
g1
(g7
tRp5005
g1778
F1
ss(g2434
tp5006
g1
(g7
tRp5007
g2331
F1
ss(g273
g276
tp5008
g1
(g7
tRp5009
g2832
F1
ss(S'know,'
S'I'
tp5010
g1
(g7
tRp5011
g3757
F1
ss(S'to'
p5012
g127
tp5013
g1
(g7
tRp5014
g1437
F1
ss(g2771
g2774
tp5015
g1
(g7
tRp5016
S'we'
p5017
F1
ss(g500
g195
tp5018
g1
(g7
tRp5019
g196
F1
ss(g3012
g524
tp5020
g1
(g7
tRp5021
g525
F1
ss(g1314
g1317
tp5022
g1
(g7
tRp5023
g725
F1
ss(g2362
tp5024
g1
(g7
tRp5025
g63
F1
ss(g3242
g860
tp5026
g1
(g7
tRp5027
g3935
F1
ss(g3402
g1353
tp5028
g1
(g7
tRp5029
g1354
F1
ss(g1910
g1204
tp5030
g1
(g7
tRp5031
S'a'
F0.5
sg3135
F0.5
ss(S'But'
g3518
tp5032
g1
(g7
tRp5033
g3779
F1
ss(S'That'
g947
tp5034
g1
(g7
tRp5035
g3457
F0.5
sg752
F0.5
ss(S'I'
g1987
tp5036
g1
(g7
tRp5037
g782
F1
ss(g1970
g3726
tp5038
g1
(g7
tRp5039
g3551
F1
ss(g4036
tp5040
g1
(g7
tRp5041
g4321
F1
ss(g509
g3540
tp5042
g1
(g7
tRp5043
S''
F1
ss(g550
tp5044
g1
(g7
tRp5045
g551
F1
ss(g730
g2394
tp5046
g1
(g7
tRp5047
g2395
F1
ss(g1453
tp5048
g1
(g7
tRp5049
g1454
F1
ss(g3200
tp5050
g1
(g7
tRp5051
g3394
F1
ss(g1107
tp5052
g1
(g7
tRp5053
S''
F1
ss(g1583
tp5054
g1
(g7
tRp5055
g1314
F1
ss(g2513
g3036
tp5056
g1
(g7
tRp5057
S'a'
F1
ss(S'a'
g2363
tp5058
g1
(g7
tRp5059
g2069
F1
ss(g245
g3405
tp5060
g1
(g7
tRp5061
g506
F1
ss(S'of'
p5062
g462
tp5063
g1
(g7
tRp5064
g463
F1
ss(g717
g729
tp5065
g1
(g7
tRp5066
g2844
F1
ss(g2517
tp5067
g1
(g7
tRp5068
g1330
F0.5
sg2228
F0.5
ss(g64
tp5069
g1
(g7
tRp5070
S''
F0.5
sg4212
F0.5
ss(g245
tp5071
g1
(g7
tRp5072
g3405
F1
ss(g847
g850
tp5073
g1
(g7
tRp5074
g2369
F1
ss(g3189
g3520
tp5075
g1
(g7
tRp5076
g1418
F1
ss(g2923
g2926
tp5077
g1
(g7
tRp5078
g4204
F1
ss(g3198
tp5079
g1
(g7
tRp5080
S'a'
F0.33333333333333331
sS'going'
p5081
F0.33333333333333331
sg2748
F0.33333333333333331
ss(g807
g810
tp5082
g1
(g7
tRp5083
g4536
F1
ss(g163
g922
tp5084
g1
(g7
tRp5085
g1714
F1
ss(g1073
g1572
tp5086
g1
(g7
tRp5087
g550
F0.19999999999999998
sg1863
F0.19999999999999998
sg2902
F0.19999999999999998
sg2275
F0.19999999999999998
sg2901
F0.19999999999999998
ss(g1019
g5062
tp5088
g1
(g7
tRp5089
g462
F1
ss(S'a'
g2076
tp5090
g1
(g7
tRp5091
g960
F1
ss(S'thing'
g1031
tp5092
g1
(g7
tRp5093
g2811
F1
ss(g1795
tp5094
g1
(g7
tRp5095
g829
F1
ss(g2394
tp5096
g1
(g7
tRp5097
g2395
F1
ss(g1167
g282
tp5098
g1
(g7
tRp5099
S''
F1
ss(g1949
g1952
tp5100
g1
(g7
tRp5101
g47
F1
ss(g3473
tp5102
g1
(g7
tRp5103
g3476
F1
ss(g181
g2513
tp5104
g1
(g7
tRp5105
g3036
F0.5
sg2812
F0.5
ss(g1366
tp5106
g1
(g7
tRp5107
g3328
F0.016153954207051572
sg2182
F0.016153954207051572
sg219
F0.016153954207051572
sg1342
F0.032167439247085296
sg2955
F0.016153954207051572
sg2461
F0.016153954207051572
sg1086
F0.016153954207051572
sg1107
F0.016153954207051572
sg2577
F0.016153954207051572
sg2382
F0.016153954207051572
sg622
F0.016153954207051572
sg1914
F0.016153954207051572
sg2841
F0.016153954207051572
sg1187
F0.016153954207051572
sg1369
F0.016153954207051572
sg470
F0.016153954207051572
sg685
F0.016153954207051572
sg370
F0.016153954207051572
sg1672
F0.016153954207051572
sg3122
F0.080207894367186491
sg1562
F0.032167439247085296
sg3768
F0.032167439247085296
sg4
F0.016153954207051572
sg159
F0.032167439247085296
sg2099
F0.016153954207051572
sg1114
F0.016153954207051572
sg922
F0.016153954207051572
sg260
F0.016153954207051572
sg2635
F0.016153954207051572
sg1425
F0.016153954207051572
sg807
F0.016153954207051572
sg1073
F0.016153954207051572
sg3945
F0.016153954207051572
sg1989
F0.016153954207051572
sg1649
F0.016153954207051572
sg1003
F0.016153954207051572
sg1019
F0.016153954207051572
sg1579
F0.016153954207051572
sg436
F0.016153954207051572
sg1011
F0.016153954207051572
sg1026
F0.032167439247085296
sg2804
F0.016153954207051572
sg474
F0.032167439247085296
sg1489
F0.016153954207051572
sg891
F0.032167439247085296
sg2059
F0.016153954207051572
sg3710
F0.016153954207051572
sg2098
F0.016153954207051572
sg902
F0.016153954207051572
sg2661
F0.016153954207051572
sg675
F0.016153954207051572
ss(g1656
g54
tp5108
g1
(g7
tRp5109
g58
F1
ss(g588
g296
tp5110
g1
(g7
tRp5111
g300
F1
ss(S'I'
tp5112
g1
(g7
tRp5113
g500
F0.026525198938992044
sg1870
F0.026525198938992044
sg1987
F0.026525198938992044
sg3288
F0.026525198938992044
sg204
F0.15694076038903626
sg39
F0.078691423519009721
sg1814
F0.026525198938992044
sg3757
F0.026525198938992044
sg534
F0.078691423519009721
sg2628
F0.026525198938992044
sg930
F0.20910698496905392
sg2673
F0.026525198938992044
sg555
F0.026525198938992044
sg1613
F0.026525198938992044
sg564
F0.026525198938992044
sg3863
F0.052608311229000893
sg2366
F0.052608311229000893
sg1404
F0.026525198938992044
sg2023
F0.026525198938992044
sg2950
F0.026525198938992044
ss(g478
tp5114
g1
(g7
tRp5115
g2307
F0.25714285714285712
sg1335
F0.25714285714285712
sg1698
F0.48571428571428577
ss(g2635
tp5116
g1
(g7
tRp5117
g2919
F1
ss(g1081
tp5118
g1
(g7
tRp5119
g1084
F1
ss(g3126
g2004
tp5120
g1
(g7
tRp5121
g2060
F1
ss(g1222
g1225
tp5122
g1
(g7
tRp5123
S'I'
F1
ss(g313
tp5124
g1
(g7
tRp5125
g700
F1
ss(g695
g2682
tp5126
g1
(g7
tRp5127
S'a'
F1
ss(g1230
g1118
tp5128
g1
(g7
tRp5129
g998
F1
ss(g156
tp5130
g1
(g7
tRp5131
S'a'
F0.27884615384615391
sS''
F0.14423076923076925
sg3485
F0.14423076923076925
sg530
F0.14423076923076925
sg1821
F0.14423076923076925
sg1625
F0.14423076923076925
ss(g857
g609
tp5132
g1
(g7
tRp5133
g610
F1
ss(g1418
tp5134
g1
(g7
tRp5135
g1419
F1
ss(g2819
g182
tp5136
g1
(g7
tRp5137
g185
F1
ss(g149
g291
tp5138
g1
(g7
tRp5139
g4630
F1
ss(g3337
g3285
tp5140
g1
(g7
tRp5141
S'I'
F1
ss(g2357
g1469
tp5142
g1
(g7
tRp5143
g1472
F1
ss(g2030
g2836
tp5144
g1
(g7
tRp5145
g3568
F1
ss(g276
tp5146
g1
(g7
tRp5147
g1267
F0.11333333333333336
sg811
F0.11333333333333336
sg2494
F0.11333333333333336
sg2832
F0.4333333333333334
sg2468
F0.11333333333333336
sg3134
F0.11333333333333336
ss(g167
g170
tp5148
g1
(g7
tRp5149
S'a'
F0.5
sg1742
F0.5
ss(g3661
S'a'
tp5150
g1
(g7
tRp5151
g1770
F1
ss(g3199
tp5152
g1
(g7
tRp5153
S''
F1
ss(g207
g212
tp5154
g1
(g7
tRp5155
S'a'
F0.19786096256684493
sg1137
F0.10160427807486631
sg3178
F0.10160427807486631
sg1532
F0.10160427807486631
sg425
F0.29411764705882354
sg4404
F0.10160427807486631
sS'the'
p5156
F0.10160427807486631
ss(g1342
g1345
tp5157
g1
(g7
tRp5158
g4151
F0.34999999999999998
sg649
F0.65000000000000002
ss(g1235
tp5159
g1
(g7
tRp5160
S'a'
F0.25
sg2528
F0.25
sg1238
F0.25
sg3408
F0.25
ss(g369
g3686
tp5161
g1
(g7
tRp5162
g3889
F1
ss(g753
g388
tp5163
g1
(g7
tRp5164
g389
F0.5
sg1622
F0.5
ss(g492
g4055
tp5165
g1
(g7
tRp5166
S'tell'
p5167
F1
ss(g327
g3408
tp5168
g1
(g7
tRp5169
g3409
F1
ss(g3187
g4340
tp5170
g1
(g7
tRp5171
g1407
F1
ss(g2919
g2922
tp5172
g1
(g7
tRp5173
g4356
F1
ss(g1736
g191
tp5174
g1
(g7
tRp5175
g194
F1
ss(g3760
g2550
tp5176
g1
(g7
tRp5177
g3337
F1
ss(g3652
g4713
tp5178
g1
(g7
tRp5179
S''
F1
ss(g2217
g1636
tp5180
g1
(g7
tRp5181
g1637
F1
ss(g1279
tp5182
g1
(g7
tRp5183
g1282
F1
ss(g514
g2041
tp5184
g1
(g7
tRp5185
g2467
F1
ss(g1297
g2385
tp5186
g1
(g7
tRp5187
g2386
F1
ss(g162
g604
tp5188
g1
(g7
tRp5189
g605
F1
ss(g832
g835
tp5190
g1
(g7
tRp5191
g1041
F1
ss(g856
g1047
tp5192
g1
(g7
tRp5193
g2936
F1
ss(g1584
g1587
tp5194
g1
(g7
tRp5195
g2903
F1
ss(S'It'
g4411
tp5196
g1
(g7
tRp5197
g3456
F1
ss(g3458
tp5198
g1
(g7
tRp5199
g3461
F0.5
sg1411
F0.5
ss(S'who'
p5200
g4151
tp5201
g1
(g7
tRp5202
g939
F1
ss(g421
g424
tp5203
g1
(g7
tRp5204
g1629
F1
ss(g1016
g1019
tp5205
g1
(g7
tRp5206
g5062
F1
ss(g1717
tp5207
g1
(g7
tRp5208
g2541
F1
ss(g1967
g1970
tp5209
g1
(g7
tRp5210
g3726
F1
ss(g933
g2585
tp5211
g1
(g7
tRp5212
g721
F1
ss(g3036
S'a'
tp5213
g1
(g7
tRp5214
g1595
F1
ss(g3166
tp5215
g1
(g7
tRp5216
g520
F1
ss(g3679
g3315
tp5217
g1
(g7
tRp5218
g955
F0.33333333333333331
sg2955
F0.33333333333333331
sg3710
F0.33333333333333331
ss(g2712
tp5219
g1
(g7
tRp5220
S''
F0.5
sg2715
F0.5
ss(g12
S'a'
tp5221
g1
(g7
tRp5222
g2365
F1
ss(g2431
g2434
tp5223
g1
(g7
tRp5224
g2331
F1
ss(g1588
tp5225
g1
(g7
tRp5226
g1589
F1
ss(g2358
g342
tp5227
g1
(g7
tRp5228
g343
F1
ss(g1299
tp5229
g1
(g7
tRp5230
g1166
F1
ss(S'a'
g2365
tp5231
g1
(g7
tRp5232
g3106
F1
ss(g1641
g1644
tp5233
g1
(g7
tRp5234
g3919
F1
ss(g1684
tp5235
g1
(g7
tRp5236
g1687
F0.5
sg4713
F0.5
ss(g53
g3970
tp5237
g1
(g7
tRp5238
g5200
F1
ss(g429
tp5239
g1
(g7
tRp5240
g658
F1
ss(g3919
tp5241
g1
(g7
tRp5242
g2923
F1
ss(g4061
g2748
tp5243
g1
(g7
tRp5244
g871
F1
ss(g3186
tp5245
g1
(g7
tRp5246
g3765
F0.7857142857142857
sg292
F0.21428571428571427
ss(g3196
g2638
tp5247
g1
(g7
tRp5248
g474
F1
ss(g2150
tp5249
g1
(g7
tRp5250
g2153
F1
ss(g2712
g2715
tp5251
g1
(g7
tRp5252
g2943
F1
ss(S'have'
g972
tp5253
g1
(g7
tRp5254
g3976
F1
ss(g875
tp5255
g1
(g7
tRp5256
g1271
F1
ss(g2371
g1044
tp5257
g1
(g7
tRp5258
g3284
F1
ss(g680
tp5259
g1
(g7
tRp5260
g3269
F1
ss(g3329
g3332
tp5261
g1
(g7
tRp5262
S''
F1
ss(S'system'
p5263
g1155
tp5264
g1
(g7
tRp5265
g1601
F1
ss(g1256
S'a'
tp5266
g1
(g7
tRp5267
g2355
F0.125
sg1781
F0.125
sg5263
F0.125
sg1967
F0.125
sg2359
F0.125
sS'lot'
p5268
F0.125
sg2363
F0.125
sg1931
F0.125
ss(g58
tp5269
g1
(g7
tRp5270
S''
F0.33333333333333331
sg1141
F0.33333333333333331
sg3437
F0.33333333333333331
ss(g4034
g1808
tp5271
g1
(g7
tRp5272
S'I'
F1
ss(S'to'
g433
tp5273
g1
(g7
tRp5274
g3971
F1
ss(g4432
g2661
tp5275
g1
(g7
tRp5276
g2662
F1
ss(g1311
g2430
tp5277
g1
(g7
tRp5278
g2431
F1
ss(g295
tp5279
g1
(g7
tRp5280
g3325
F0.33333333333333331
sg2113
F0.33333333333333331
sg640
F0.33333333333333331
ss(g336
tp5281
g1
(g7
tRp5282
S''
F1
ss(g1329
tp5283
g1
(g7
tRp5284
g2964
F1
ss(g1425
g1607
tp5285
g1
(g7
tRp5286
g2342
F1
ss(S'And'
S'I'
tp5287
g1
(g7
tRp5288
g4649
F0.73333333333333328
sg204
F0.26666666666666666
ss(g1370
tp5289
g1
(g7
tRp5290
g131
F1
ss(g3025
g2946
tp5291
g1
(g7
tRp5292
g2763
F1
ss(g2820
tp5293
g1
(g7
tRp5294
g3297
F1
ss(g2483
g2486
tp5295
g1
(g7
tRp5296
S'a'
F1
ss(g49
S'a'
tp5297
g1
(g7
tRp5298
g380
F1
ss(g3198
g5081
tp5299
g1
(g7
tRp5300
g5012
F1
ss(g1287
tp5301
g1
(g7
tRp5302
g3892
F1
ss(g1771
g488
tp5303
g1
(g7
tRp5304
g489
F1
ss(S'And'
g644
tp5305
g1
(g7
tRp5306
g645
F1
ss(g3927
g3515
tp5307
g1
(g7
tRp5308
g4070
F1
ss(S'was'
p5309
g2371
tp5310
g1
(g7
tRp5311
g1044
F1
ss(g2524
g334
tp5312
g1
(g7
tRp5313
g1509
F1
ss(g2762
g1125
tp5314
g1
(g7
tRp5315
g1126
F1
ss(g3862
tp5316
g1
(g7
tRp5317
S''
F1
ss(g4395
tp5318
g1
(g7
tRp5319
g4302
F1
ss(g626
g629
tp5320
g1
(g7
tRp5321
S'that'
p5322
F1
ss(g1618
tp5323
g1
(g7
tRp5324
g1619
F1
ss(g1613
tp5325
g1
(g7
tRp5326
S'a'
F0.5
sg1437
F0.5
ss(g1558
g1561
tp5327
g1
(g7
tRp5328
g2824
F1
ss(g2882
tp5329
g1
(g7
tRp5330
g2885
F1
ss(g842
tp5331
g1
(g7
tRp5332
g845
F0.5
sg2249
F0.5
ss(g930
tp5333
g1
(g7
tRp5334
g934
F0.29411764705882354
sg2607
F0.10160427807486631
sg2562
F0.10160427807486631
sg933
F0.10160427807486631
sg935
F0.10160427807486631
sg936
F0.10160427807486631
sg923
F0.19786096256684493
ss(g1721
g2122
tp5335
g1
(g7
tRp5336
g57
F1
ss(g1426
g841
tp5337
g1
(g7
tRp5338
g842
F1
ss(g3971
g2623
tp5339
g1
(g7
tRp5340
S'him'
p5341
F1
ss(g1753
g1170
tp5342
g1
(g7
tRp5343
g1173
F1
ss(g729
tp5344
g1
(g7
tRp5345
g682
F0.125
sg1745
F0.125
sg506
F0.125
sg2844
F0.125
sg2824
F0.125
sg3276
F0.125
sg801
F0.125
sg1400
F0.125
ss(g1748
g4100
tp5346
g1
(g7
tRp5347
g1886
F1
ss(g1755
g1758
tp5348
g1
(g7
tRp5349
S'America'
p5350
F1
ss(S'A'
g619
tp5351
g1
(g7
tRp5352
g3473
F1
ss(g630
tp5353
g1
(g7
tRp5354
g631
F1
ss(g588
tp5355
g1
(g7
tRp5356
g296
F0.5
sg591
F0.5
ss(g750
g3508
tp5357
g1
(g7
tRp5358
g4233
F1
ss(g653
tp5359
g1
(g7
tRp5360
g746
F1
ss(g1672
tp5361
g1
(g7
tRp5362
S''
F1
ss(g1887
g1890
tp5363
g1
(g7
tRp5364
g2918
F1
ss(g1152
g1156
tp5365
g1
(g7
tRp5366
g2213
F1
ss(g1047
g2936
tp5367
g1
(g7
tRp5368
g1298
F1
ss(g1170
g1173
tp5369
g1
(g7
tRp5370
g1093
F1
ss(g3457
tp5371
g1
(g7
tRp5372
g3661
F1
ss(g267
g1557
tp5373
g1
(g7
tRp5374
g1558
F1
ss(g4635
g3033
tp5375
g1
(g7
tRp5376
g1726
F1
ss(g117
g1996
tp5377
g1
(g7
tRp5378
g1997
F1
ss(g1769
g1293
tp5379
g1
(g7
tRp5380
g2308
F1
ss(g14
g387
tp5381
g1
(g7
tRp5382
g50
F1
ss(g2265
tp5383
g1
(g7
tRp5384
g2268
F1
ss(S'I'
g1870
tp5385
g1
(g7
tRp5386
g2087
F1
ss(g2729
g1283
tp5387
g1
(g7
tRp5388
g1297
F1
ss(g1595
g384
tp5389
g1
(g7
tRp5390
g14
F1
ss(g1851
tp5391
g1
(g7
tRp5392
g1852
F1
ss(g568
tp5393
g1
(g7
tRp5394
g569
F1
ss(g2922
g4356
tp5395
g1
(g7
tRp5396
S'they'
p5397
F1
ss(g976
g979
tp5398
g1
(g7
tRp5399
g1795
F1
ss(g2359
tp5400
g1
(g7
tRp5401
g3012
F1
ss(g2993
g3381
tp5402
g1
(g7
tRp5403
g3620
F1
ss(g1238
g3118
tp5404
g1
(g7
tRp5405
g20
F1
ss(g1525
tp5406
g1
(g7
tRp5407
S''
F0.027239150507848562
sS'a'
F0.21468144044321325
sg529
F0.027239150507848562
sg1137
F0.027239150507848562
sg709
F0.054016620498614928
sg1805
F0.027239150507848562
sg968
F0.027239150507848562
sg969
F0.027239150507848562
sg3178
F0.027239150507848562
sg1584
F0.027239150507848562
sg1532
F0.027239150507848562
sg3402
F0.027239150507848562
sg425
F0.21468144044321325
sg556
F0.027239150507848562
sg4404
F0.027239150507848562
sg971
F0.027239150507848562
sg972
F0.027239150507848562
sg3315
F0.080794090489381326
sg2283
F0.027239150507848562
sg366
F0.027239150507848562
ss(g915
tp5408
g1
(g7
tRp5409
S''
F0.5
sg916
F0.5
ss(g1392
tp5410
g1
(g7
tRp5411
g1395
F1
ss(g3981
g1003
tp5412
g1
(g7
tRp5413
g1006
F1
ss(S'want'
g3134
tp5414
g1
(g7
tRp5415
g2820
F1
ss(g4845
g1098
tp5416
g1
(g7
tRp5417
S''
F1
ss(g2113
g4754
tp5418
g1
(g7
tRp5419
S''
F1
ss(g1097
S'I'
tp5420
g1
(g7
tRp5421
g5309
F1
ss(g3342
g4349
tp5422
g1
(g7
tRp5423
S'I'
F1
ss(g1601
tp5424
g1
(g7
tRp5425
g1604
F1
ss(g792
g2456
tp5426
g1
(g7
tRp5427
g479
F1
ss(g743
tp5428
g1
(g7
tRp5429
g1200
F1
ss(g1277
g1085
tp5430
g1
(g7
tRp5431
g1086
F1
ss(S'We'
g4339
tp5432
g1
(g7
tRp5433
g784
F1
ss(g3193
tp5434
g1
(g7
tRp5435
S''
F1
ss(g2157
g2160
tp5436
g1
(g7
tRp5437
g2751
F1
ss(g228
g231
tp5438
g1
(g7
tRp5439
g2055
F1
ss(g674
g861
tp5440
g1
(g7
tRp5441
g583
F1
ss(g520
g523
tp5442
g1
(g7
tRp5443
g678
F1
ss(g3378
S'a'
tp5444
g1
(g7
tRp5445
g774
F1
ss(g1114
tp5446
g1
(g7
tRp5447
g1117
F1
ss(S'a'
g2361
tp5448
g1
(g7
tRp5449
g3343
F1
ss(g2918
g3378
tp5450
g1
(g7
tRp5451
S'a'
F1
ss(g1573
tp5452
g1
(g7
tRp5453
S'a'
F0.042105263157894743
sS''
F0.042105263157894743
sg3075
F0.042105263157894743
sg2110
F0.042105263157894743
sg2467
F0.16526315789473686
sg1522
F0.042105263157894743
sg872
F0.042105263157894743
sg199
F0.042105263157894743
sg1576
F0.042105263157894743
sg2990
F0.042105263157894743
sg667
F0.042105263157894743
sg3678
F0.042105263157894743
sg32
F0.083157894736842111
sg1094
F0.28842105263157897
ss(g3192
g3678
tp5454
g1
(g7
tRp5455
g3679
F1
ss(g1481
tp5456
g1
(g7
tRp5457
g1482
F1
ss(g3105
g1974
tp5458
g1
(g7
tRp5459
g1975
F1
ss(g1365
tp5460
g1
(g7
tRp5461
g1366
F1
ss(g1508
tp5462
g1
(g7
tRp5463
g1741
F1
ss(S'What'
g1179
tp5464
g1
(g7
tRp5465
g2274
F1
ss(g1463
g1466
tp5466
g1
(g7
tRp5467
g876
F1
ss(g1701
g1913
tp5468
g1
(g7
tRp5469
g3928
F1
ss(g2342
tp5470
g1
(g7
tRp5471
g2345
F1
ss(g4921
g175
tp5472
g1
(g7
tRp5473
g179
F1
ss(S'and'
g1296
tp5474
g1
(g7
tRp5475
g2224
F1
ss(g3201
tp5476
g1
(g7
tRp5477
g4411
F0.25
sg3306
F0.25
sg237
F0.25
sg3071
F0.25
ss(g543
g3485
tp5478
g1
(g7
tRp5479
g2070
F1
ss(g1600
tp5480
g1
(g7
tRp5481
g3540
F0.19999999999999998
sg2317
F0.19999999999999998
sg2350
F0.19999999999999998
sg44
F0.19999999999999998
sg703
F0.19999999999999998
ss(S'a'
g2358
tp5482
g1
(g7
tRp5483
g342
F1
ss(g171
g174
tp5484
g1
(g7
tRp5485
g2110
F1
ss(g4535
g1489
tp5486
g1
(g7
tRp5487
g2823
F1
ss(g2109
g801
tp5488
g1
(g7
tRp5489
g802
F1
ss(g3197
g2422
tp5490
g1
(g7
tRp5491
g1798
F1
ss(g3237
g2461
tp5492
g1
(g7
tRp5493
g2464
F1
ss(g870
g912
tp5494
g1
(g7
tRp5495
g1679
F1
ss(g2098
g3113
tp5496
g1
(g7
tRp5497
g4636
F1
ss(g495
g818
tp5498
g1
(g7
tRp5499
g4024
F1
ss(g217
g2126
tp5500
g1
(g7
tRp5501
g2129
F1
ss(S'a'
g1748
tp5502
g1
(g7
tRp5503
g4100
F1
ss(g3320
g3413
tp5504
g1
(g7
tRp5505
g3207
F1
ss(g663
g666
tp5506
g1
(g7
tRp5507
g118
F1
ss(g272
tp5508
g1
(g7
tRp5509
g273
F1
ss(S'But'
g3519
tp5510
g1
(g7
tRp5511
g1531
F1
ss(g2903
g1831
tp5512
g1
(g7
tRp5513
g1834
F1
ss(g1784
tp5514
g1
(g7
tRp5515
S''
F1
ss(g523
g678
tp5516
g1
(g7
tRp5517
g756
F1
ss(g3204
tp5518
g1
(g7
tRp5519
g250
F0.25714285714285712
sg1325
F0.25714285714285712
sg2524
F0.48571428571428577
ss(g2256
tp5520
g1
(g7
tRp5521
g819
F1
ss(g4839
g894
tp5522
g1
(g7
tRp5523
g1007
F1
ss(g2978
g743
tp5524
g1
(g7
tRp5525
g1200
F1
ss(g1731
g1734
tp5526
g1
(g7
tRp5527
g4539
F1
ss(g982
tp5528
g1
(g7
tRp5529
g573
F0.3775510204081633
sg1841
F0.07823129251700682
sg976
F0.07823129251700682
sg1231
F0.15306122448979592
sg2692
F0.07823129251700682
sg794
F0.07823129251700682
sg1514
F0.07823129251700682
sg1303
F0.07823129251700682
ss(g3726
g3551
tp5530
g1
(g7
tRp5531
g2036
F1
ss(g944
g948
tp5532
g1
(g7
tRp5533
g2483
F1
ss(g1714
g1717
tp5534
g1
(g7
tRp5535
g2541
F1
ss(g3866
g3048
tp5536
g1
(g7
tRp5537
g3049
F1
ss(g1287
g3892
tp5538
g1
(g7
tRp5539
g3862
F1
ss(g2361
tp5540
g1
(g7
tRp5541
g3343
F1
ss(g107
g110
tp5542
g1
(g7
tRp5543
g1292
F1
ss(g968
g3492
tp5544
g1
(g7
tRp5545
g2766
F1
ss(g3202
tp5546
g1
(g7
tRp5547
g1545
F1
ss(g4339
g784
tp5548
g1
(g7
tRp5549
g1422
F1
ss(g863
tp5550
g1
(g7
tRp5551
g592
F1
ss(g2110
g2113
tp5552
g1
(g7
tRp5553
g4754
F1
ss(g1538
tp5554
g1
(g7
tRp5555
g2517
F0.25
sS''
F0.25
sg310
F0.25
sg1970
F0.25
ss(g2253
g2256
tp5556
g1
(g7
tRp5557
g819
F1
ss(g569
g307
tp5558
g1
(g7
tRp5559
g59
F1
ss(g2092
g3226
tp5560
g1
(g7
tRp5561
S''
F0.5
sg1278
F0.5
ss(g1161
g299
tp5562
g1
(g7
tRp5563
g639
F1
ss(S'And'
g4060
tp5564
g1
(g7
tRp5565
S'me'
p5566
F1
ss(g864
g1567
tp5567
g1
(g7
tRp5568
g255
F1
ss(g1019
tp5569
g1
(g7
tRp5570
g5062
F1
ss(g968
tp5571
g1
(g7
tRp5572
g3492
F1
ss(g567
S'a'
tp5573
g1
(g7
tRp5574
g2356
F1
ss(S'have'
g4404
tp5575
g1
(g7
tRp5576
g263
F1
ss(g3394
tp5577
g1
(g7
tRp5578
g1953
F1
ss(S'a'
g1379
tp5579
g1
(g7
tRp5580
g1210
F1
ss(g122
g128
tp5581
g1
(g7
tRp5582
g421
F1
ss(g1792
tp5583
g1
(g7
tRp5584
g572
F0.73333333333333328
sg1997
F0.26666666666666666
ss(g2660
tp5585
g1
(g7
tRp5586
g2729
F1
ss(g1503
g1149
tp5587
g1
(g7
tRp5588
g949
F1
ss(g988
tp5589
g1
(g7
tRp5590
g991
F1
ss(g4302
tp5591
g1
(g7
tRp5592
g1754
F1
ss(g339
g3402
tp5593
g1
(g7
tRp5594
g1353
F1
ss(g2325
g613
tp5595
g1
(g7
tRp5596
g614
F1
ss(g180
g1939
tp5597
g1
(g7
tRp5598
g1414
F1
ss(g3405
g506
tp5599
g1
(g7
tRp5600
g509
F1
ss(g496
g499
tp5601
g1
(g7
tRp5602
g2322
F1
ss(g1443
g323
tp5603
g1
(g7
tRp5604
S''
F1
ss(g2508
g667
tp5605
g1
(g7
tRp5606
g670
F1
ss(S'as'
g3901
tp5607
g1
(g7
tRp5608
g915
F1
ss(g1900
tp5609
g1
(g7
tRp5610
S'a'
F0.16883116883116883
sS'I'
F0.16883116883116883
sg1903
F0.16883116883116883
sg2311
F0.16883116883116883
sg2601
F0.32467532467532462
ss(g420
g2217
tp5611
g1
(g7
tRp5612
g1636
F1
ss(S'I'
g2366
tp5613
g1
(g7
tRp5614
g2370
F0.5
sg2371
F0.5
ss(g778
g1493
tp5615
g1
(g7
tRp5616
g1300
F1
ss.