ccollections
defaultdict
p1
(cpymarkovchain.MarkovChain
_one_dict
p2
tRp3
(S'Medicaid'
p4
S'budget'
p5
tp6
g1
(cpymarkovchain.MarkovChain
_one
p7
tRp8
S''
F1
ss(S'at'
p9
tp10
g1
(g7
tRp11
S''
F0.11133333333333333
sS'what'
p12
F0.11133333333333333
sS'that'
p13
F0.11133333333333333
sS'us,'
p14
F0.11133333333333333
sS'the'
p15
F0.44333333333333336
sS'your'
p16
F0.11133333333333333
ss(S'America'
p17
tp18
g1
(g7
tRp19
S'and'
p20
F0.37485970819304154
sS'to'
p21
F0.12570145903479235
sS''
F0.49943883277216611
ss(S'courts'
p22
tp23
g1
(g7
tRp24
S'and'
p25
F1
ss(S'do'
p26
S'in'
p27
tp28
g1
(g7
tRp29
S'Medicare'
p30
F1
ss(S'you'
p31
S'have'
p32
tp33
g1
(g7
tRp34
S'a'
F1
ss(S'me,'
p35
tp36
g1
(g7
tRp37
S'please'
p38
F1
ss(S'I'
S"don't"
p39
tp40
g1
(g7
tRp41
S'fear'
p42
F0.33750000000000002
sS'get'
p43
F0.66249999999999998
ss(S'it'
p44
tp45
g1
(g7
tRp46
S''
F0.27229532163742698
sS'on'
p47
F0.091008771929824581
sS'makes'
p48
F0.091008771929824581
sS'is'
p49
F0.091008771929824581
sS'will'
p50
F0.091008771929824581
sS'to'
p51
F0.18165204678362576
sS'with'
p52
F0.091008771929824581
sS'gives'
p53
F0.091008771929824581
ss(S'go'
p54
tp55
g1
(g7
tRp56
S'there'
p57
F0.33750000000000002
sS'through'
p58
F0.66249999999999998
ss(S'does'
p59
tp60
g1
(g7
tRp61
S''
F0.5
sS'understand'
p62
F0.5
ss(S'honest'
p63
S'person'
p64
tp65
g1
(g7
tRp66
S''
F1
ss(S'to'
p67
S'live'
p68
tp69
g1
(g7
tRp70
S'underground'
p71
F1
ss(S'80'
p72
tp73
g1
(g7
tRp74
S'million'
p75
F1
ss(S'said'
p76
S'we'
p77
tp78
g1
(g7
tRp79
S'just'
p80
F1
ss(S'now'
p81
tp82
g1
(g7
tRp83
S''
F0.5
sS'because'
p84
F0.5
ss(S'they'
p85
S"didn't"
p86
tp87
g1
(g7
tRp88
S'find'
p89
F1
ss(S'know,'
S'they'
p90
tp91
g1
(g7
tRp92
S'are'
p93
F1
ss(S'and'
p94
S'Mexico'
p95
tp96
g1
(g7
tRp97
S'that'
p98
F1
ss(S'done'
p99
tp100
g1
(g7
tRp101
S''
F0.5
sS'in'
p102
F0.5
ss(S'emulate'
p103
tp104
g1
(g7
tRp105
S''
F1
ss(S'drug'
p106
S'care'
p107
tp108
g1
(g7
tRp109
S'and'
p110
F1
ss(S'absolutely,'
p111
tp112
g1
(g7
tRp113
S'I'
F1
ss(S'lastly,'
p114
tp115
g1
(g7
tRp116
S'we'
p117
F1
ss(S'child'
p118
tp119
g1
(g7
tRp120
S''
F1
ss(S'going'
p121
S'to'
p122
tp123
g1
(g7
tRp124
S'be'
p125
F0.12522045855379188
sS'hide'
p126
F0.12522045855379188
sS'whine'
p127
F0.12522045855379188
sS'an'
p128
F0.12522045855379188
sS'cost'
p129
F0.12522045855379188
sS'have'
p130
F0.37389770723104054
ss(S'and'
p131
S'that'
p132
tp133
g1
(g7
tRp134
S'will'
p135
F1
ss(S'let'
p136
S'me'
p137
tp138
g1
(g7
tRp139
S'just'
p140
F1
ss(S'Hugh,'
p141
S'you'
p142
tp143
g1
(g7
tRp144
S'said'
p145
F1
ss(S'When'
p146
tp147
g1
(g7
tRp148
S'we'
p149
F1
ss(S'of'
p150
S'17'
p151
tp152
g1
(g7
tRp153
S'Republican'
p154
F1
ss(S'give'
p155
S'them'
p156
tp157
g1
(g7
tRp158
S'a'
F1
ss(S'way'
p159
tp160
g1
(g7
tRp161
S'do'
p162
F0.25
sS'the'
p163
F0.25
sS'too'
p164
F0.25
sS'that'
p165
F0.25
ss(S'turned'
p166
S'our'
p167
tp168
g1
(g7
tRp169
S'backs'
p170
F1
ss(S'protects'
p171
S'all'
p172
tp173
g1
(g7
tRp174
S'of'
p175
F1
ss(S'What'
S'could'
p176
tp177
g1
(g7
tRp178
S'you'
p179
F1
ss(S'if'
p180
tp181
g1
(g7
tRp182
S'not'
p183
F0.25
sS'Uncle'
p184
F0.25
sS'anybody'
p185
F0.25
sS'he'
p186
F0.25
ss(S'estate'
p187
tp188
g1
(g7
tRp189
S'dealings'
p190
F1
ss(S'large'
p191
S'deductible,'
p192
tp193
g1
(g7
tRp194
S'versus'
p195
F1
ss(S"they're"
p196
tp197
g1
(g7
tRp198
S'all'
p199
F1
ss(S'believe'
p200
S'it'
p201
tp202
g1
(g7
tRp203
g49
F1
ss(S'could'
p204
S'still'
p205
tp206
g1
(g7
tRp207
S'have'
p208
F1
ss(S'an'
p209
S'interview'
p210
tp211
g1
(g7
tRp212
S'will'
p213
F1
ss(S'And'
S'we'
p214
tp215
g1
(g7
tRp216
S'need'
p217
F0.20061728395061729
sS'also'
p218
F0.20061728395061729
sS'have'
p219
F0.39814814814814814
sS'give'
p220
F0.20061728395061729
ss(S'Joe'
p221
tp222
g1
(g7
tRp223
S'is'
p224
F1
ss(S'everybody,'
p225
S'you'
p226
tp227
g1
(g7
tRp228
S"didn't"
p229
F1
ss(S'about'
p230
S'us,'
p231
tp232
g1
(g7
tRp233
S"it's"
p234
F1
ss(S'anything'
p235
S'and'
p236
tp237
g1
(g7
tRp238
S'they'
p239
F1
ss(S'It'
S'guards'
p240
tp241
g1
(g7
tRp242
S'us'
p243
F1
ss(S'we'
p244
S'had'
p245
tp246
g1
(g7
tRp247
g166
F1
ss(S'not'
p248
S'us,'
p249
tp250
g1
(g7
tRp251
S'who'
p252
F1
ss(S'woman'
p253
S'and'
p254
tp255
g1
(g7
tRp256
S'child,'
p257
F1
ss(S'math'
p258
tp259
g1
(g7
tRp260
S''
F1
ss(S'ways'
p261
S'of'
p262
tp263
g1
(g7
tRp264
S'--'
p265
F1
ss(S'the'
p266
S'Constitution'
p267
tp268
g1
(g7
tRp269
g171
F1
ss(S'terrorists'
p270
S'who'
p271
tp272
g1
(g7
tRp273
S'want'
p274
F1
ss(S'which'
p275
S'is'
p276
tp277
g1
(g7
tRp278
S'way'
p279
F1
ss(S'seizure'
p280
tp281
g1
(g7
tRp282
S''
F1
ss(S'lot'
p283
S'because'
p284
tp285
g1
(g7
tRp286
S'I'
F1
ss(g146
g149
tp287
g1
(g7
tRp288
S'begin'
p289
F1
ss(S'You'
S'can'
p290
tp291
g1
(g7
tRp292
S'buy'
p293
F1
ss(S'care,'
p294
S'but'
p295
tp296
g1
(g7
tRp297
g106
F1
ss(S'If'
g248
tp298
g1
(g7
tRp299
g249
F1
ss(S'no'
p300
S'bureaucrats'
p301
tp302
g1
(g7
tRp303
S''
F1
ss(S'he'
p304
g59
tp305
g1
(g7
tRp306
g62
F1
ss(S'per'
p307
tp308
g1
(g7
tRp309
S'capita'
p310
F1
ss(S'to'
p311
S'say'
p312
tp313
g1
(g7
tRp314
S'about'
p315
F1
ss(S'expect'
p316
tp317
g1
(g7
tRp318
S'Apple'
p319
F1
ss(S'everybody'
p320
tp321
g1
(g7
tRp322
S''
F0.20061728395061729
sS'has'
p323
F0.20061728395061729
sS'from'
p324
F0.20061728395061729
sS'else'
p325
F0.39814814814814814
ss(S'they'
p326
tp327
g1
(g7
tRp328
S'do'
p329
F0.090894770006301223
sS'made'
p330
F0.045473639991598411
sS'have'
p331
F0.13631590002100399
sS"don't"
p332
F0.13631590002100399
sS'die'
p333
F0.045473639991598411
sg86
F0.090894770006301223
sS'will'
p334
F0.045473639991598411
sg76
F0.13631590002100399
sS'done'
p335
F0.045473639991598411
sg93
F0.045473639991598411
sS'want'
p336
F0.045473639991598411
sg54
F0.045473639991598411
sS"won't"
p337
F0.045473639991598411
sS'came'
p338
F0.045473639991598411
ss(S'savings'
p339
S'account'
p340
tp341
g1
(g7
tRp342
S'with'
p343
F1
ss(S'group'
p344
tp345
g1
(g7
tRp346
S''
F1
ss(g191
tp347
g1
(g7
tRp348
g192
F1
ss(S'are'
p349
S'like'
p350
tp351
g1
(g7
tRp352
S'a'
F1
ss(S'for'
p353
S'us'
p354
tp355
g1
(g7
tRp356
S'but'
p357
F1
ss(S'one'
p358
tp359
g1
(g7
tRp360
S''
F0.20061728395061729
sg150
F0.39814814814814814
sS'costs'
p361
F0.20061728395061729
sS'who'
p362
F0.20061728395061729
ss(S'saved'
p363
tp364
g1
(g7
tRp365
S'many'
p366
F1
ss(S'illegal'
p367
tp368
g1
(g7
tRp369
S'and'
p370
F0.5
sS'immigration,'
p371
F0.5
ss(S'is'
p372
S'actually'
p373
tp374
g1
(g7
tRp375
S'fair'
p376
F1
ss(S'responsibility'
p377
S'for'
p378
tp379
g1
(g7
tRp380
S'a'
F1
ss(S'at'
p381
g14
tp382
g1
(g7
tRp383
S'it'
p384
F1
ss(S'of'
p385
S'75'
p386
tp387
g1
(g7
tRp388
S'percent'
p389
F1
ss(S'a'
S'year'
p390
tp391
g1
(g7
tRp392
S''
F1
ss(S'de-fund'
p393
S'it'
p394
tp395
g1
(g7
tRp396
S''
F1
ss(S'about'
p397
S'these'
p398
tp399
g1
(g7
tRp400
S'hands'
p401
F1
ss(S'join'
p402
tp403
g1
(g7
tRp404
S'hands'
p405
F1
ss(S'gets'
p406
S'to'
p407
tp408
g1
(g7
tRp409
S'redefine'
p410
F1
ss(g68
tp411
g1
(g7
tRp412
g71
F1
ss(S'fruit'
p413
S'salad'
p414
tp415
g1
(g7
tRp416
S'of'
p417
F1
ss(g128
S'organization'
p418
tp419
g1
(g7
tRp420
S'like'
p421
F1
ss(g219
S'to'
p422
tp423
g1
(g7
tRp424
S'conform'
p425
F0.12510288065843622
sS'remember'
p426
F0.12510288065843622
sS'pay'
p427
F0.24938271604938272
sS'stop'
p428
F0.12510288065843622
sS'encourage'
p429
F0.12510288065843622
sg68
F0.12510288065843622
sS'present'
p430
F0.12510288065843622
ss(g261
tp431
g1
(g7
tRp432
g262
F1
ss(S'within'
p433
S'their'
p434
tp435
g1
(g7
tRp436
S'health'
p437
F0.5
sS'family'
p438
F0.5
ss(S'and'
p439
S'choose'
p440
tp441
g1
(g7
tRp442
S'winners'
p443
F1
ss(S'easily'
p444
tp445
g1
(g7
tRp446
S''
F1
ss(S'these'
p447
S'problems'
p448
tp449
g1
(g7
tRp450
S'by'
p451
F1
ss(S'rights,'
p452
tp453
g1
(g7
tRp454
S'nobody'
p455
F1
ss(S'God'
p456
S'have'
p457
tp458
g1
(g7
tRp459
g363
F1
ss(S'only'
p460
S'the'
p461
tp462
g1
(g7
tRp463
S'North'
p464
F1
ss(S'not'
S'vote'
p465
tp466
g1
(g7
tRp467
S''
F1
ss(S'--'
p468
S'your'
p469
tp470
g1
(g7
tRp471
S'catastrophic'
p472
F1
ss(S'citizens,'
p473
tp474
g1
(g7
tRp475
S'they'
p476
F1
ss(S"let's"
p477
S'look'
p478
tp479
g1
(g7
tRp480
S'at'
p481
F1
ss(S'than'
p482
g209
tp483
g1
(g7
tRp484
g210
F1
ss(g22
g25
tp485
g1
(g7
tRp486
S'things'
p487
F1
ss(S'just'
S'add'
p488
tp489
g1
(g7
tRp490
S'my'
p491
F1
ss(S'I'
S'do'
p492
tp493
g1
(g7
tRp494
g200
F1
ss(S'they'
p495
g333
tp496
g1
(g7
tRp497
S''
F1
ss(g170
tp498
g1
(g7
tRp499
S'on'
p500
F1
ss(S'policy'
p501
tp502
g1
(g7
tRp503
S'where'
p504
F0.5
sS'with'
p505
F0.5
ss(S'is'
p506
S'catastrophic'
p507
tp508
g1
(g7
tRp509
S'healthcare'
p510
F1
ss(S'well,'
p511
tp512
g1
(g7
tRp513
S'first'
p514
F1
ss(S'foundation,'
p515
S'and'
p516
tp517
g1
(g7
tRp518
S'the'
p519
F1
ss(S'them'
p520
S'have'
p521
tp522
g1
(g7
tRp523
S'to'
p524
F1
ss(S"didn't"
p525
tp526
g1
(g7
tRp527
S'ask'
p528
F0.12535612535612536
sg89
F0.37416904083570751
sS'hear'
p529
F0.12535612535612536
sS'think'
p530
F0.12535612535612536
sS'get'
p531
F0.24976258309591642
ss(g429
tp532
g1
(g7
tRp533
S'them'
p534
F1
ss(g332
S'have'
p535
tp536
g1
(g7
tRp537
g67
F1
ss(S'less'
S'money'
p538
tp539
g1
(g7
tRp540
g81
F1
ss(S'associations'
p541
S'do'
p542
tp543
g1
(g7
tRp544
S'they'
p545
F1
ss(S'have'
p546
S'fashioned'
p547
tp548
g1
(g7
tRp549
S'virtually'
p550
F1
ss(S'Secondly,'
p551
tp552
g1
(g7
tRp553
S'several'
p554
F1
ss(S'person,'
p555
S'but'
p556
tp557
g1
(g7
tRp558
g304
F1
ss(S'forward,'
p559
S'but'
p560
tp561
g1
(g7
tRp562
S'they'
p563
F1
ss(S'are'
p564
g270
tp565
g1
(g7
tRp566
g271
F1
ss(S'something'
p567
tp568
g1
(g7
tRp569
g311
F1
ss(S'matter'
p570
tp571
g1
(g7
tRp572
S'is'
p573
F1
ss(S'to'
p574
S'come'
p575
tp576
g1
(g7
tRp577
S'over'
p578
F0.5
sS'back'
p579
F0.5
ss(S'healthcare'
p580
S'with'
p581
tp582
g1
(g7
tRp583
S''
F1
ss(S'of'
p584
g447
tp585
g1
(g7
tRp586
g448
F1
ss(S'Japan'
p587
S'and'
p588
tp589
g1
(g7
tRp590
S'South'
p591
F1
ss(S'it,'
p592
S'although'
p593
tp594
g1
(g7
tRp595
S'if'
p596
F1
ss(S'solutions'
p597
S'tonight'
p598
tp599
g1
(g7
tRp600
S''
F1
ss(S'Justice'
p601
S'Scalia'
p602
tp603
g1
(g7
tRp604
S''
F1
ss(S'A'
tp605
g1
(g7
tRp606
S'tremendous'
p607
F0.5
sS'concierge'
p608
F0.5
ss(S'health'
p609
g294
tp610
g1
(g7
tRp611
g295
F1
ss(S'Think'
p612
tp613
g1
(g7
tRp614
S'about'
p615
F1
ss(S'Kim'
p616
S'Jung'
p617
tp618
g1
(g7
tRp619
S'Un'
p620
F1
ss(S'say'
p621
S'that'
p622
tp623
g1
(g7
tRp624
S'I'
F1
ss(S'buy'
p625
S'your'
p626
tp627
g1
(g7
tRp628
S'catastrophic'
p629
F1
ss(S"we're"
p630
S'going'
p631
tp632
g1
(g7
tRp633
S'to'
p634
F1
ss(S'are'
p635
S'here'
p636
tp637
g1
(g7
tRp638
S'already,'
p639
F1
ss(S'everybody'
p640
g323
tp641
g1
(g7
tRp642
S'the'
p643
F1
ss(g426
S'is'
p644
tp645
g1
(g7
tRp646
S'even'
p647
F1
ss(S'for'
p648
S'your'
p649
tp650
g1
(g7
tRp651
S'own'
p652
F1
ss(g145
tp653
g1
(g7
tRp654
g477
F0.49714285714285716
sS"you're"
p655
F0.25142857142857145
sg77
F0.25142857142857145
ss(S'Association'
p656
tp657
g1
(g7
tRp658
S'for'
p659
F1
ss(S'first'
p660
tp661
g1
(g7
tRp662
S'of'
p663
F0.71250000000000002
sS'part'
p664
F0.14374999999999999
sS'met'
p665
F0.14374999999999999
ss(S'our'
p666
S'system'
p667
tp668
g1
(g7
tRp669
S''
F1
ss(S'fabric'
p670
tp671
g1
(g7
tRp672
S'of'
p673
F1
ss(S"That's"
p674
S'unfair'
p675
tp676
g1
(g7
tRp677
S''
F1
ss(g235
tp678
g1
(g7
tRp679
g236
F0.5
sS'because'
p680
F0.5
ss(S'in'
p681
S'disbelief'
p682
tp683
g1
(g7
tRp684
S''
F1
ss(g310
S'on'
p685
tp686
g1
(g7
tRp687
S'healthcare'
p688
F1
ss(S'else'
p689
tp690
g1
(g7
tRp691
S''
F0.49714285714285716
sS'and'
p692
F0.25142857142857145
sS'goes'
p693
F0.25142857142857145
ss(S'they'
p694
g335
tp695
g1
(g7
tRp696
g102
F1
ss(g524
g425
tp697
g1
(g7
tRp698
S'to'
p699
F1
ss(g38
tp700
g1
(g7
tRp701
S''
F1
ss(S'that'
p702
tp703
g1
(g7
tRp704
S''
F0.15382415254237292
sS'area,'
p705
F0.025646186440677975
sS'we'
p706
F0.12818855932203393
sS'last'
p707
F0.025646186440677975
sS'give'
p708
F0.025646186440677975
sS'I'
F0.10255296610169494
sg372
F0.12818855932203393
sS'nobody'
p709
F0.025646186440677975
sS'seems'
p710
F0.025646186440677975
sS'anybody'
p711
F0.025646186440677975
sg135
F0.076917372881355972
sS'much'
p712
F0.025646186440677975
sS'if'
p713
F0.025646186440677975
sS'are'
p714
F0.025646186440677975
sg326
F0.051281779661016963
sS'our'
p715
F0.025646186440677975
sg266
F0.025646186440677975
sS'he'
p716
F0.025646186440677975
sS'nature'
p717
F0.025646186440677975
sS'improve'
p718
F0.025646186440677975
ss(S'wrong'
p719
tp720
g1
(g7
tRp721
S''
F1
ss(S'long'
p722
tp723
g1
(g7
tRp724
S'time'
p725
F1
ss(S'every'
p726
tp727
g1
(g7
tRp728
S'policy,'
p729
F0.25
sg344
F0.25
sS'family'
p730
F0.25
sS'scratch'
p731
F0.25
ss(S'after'
p732
S'we'
p733
tp734
g1
(g7
tRp735
S'--'
p736
F0.5
sS'stop'
p737
F0.5
ss(S'take'
p738
S'care'
p739
tp740
g1
(g7
tRp741
g385
F1
ss(S'all,'
p742
g136
tp743
g1
(g7
tRp744
g137
F1
ss(S'sure'
p745
S'that'
p746
tp747
g1
(g7
tRp748
g716
F1
ss(S'$10,000'
p749
tp750
g1
(g7
tRp751
S'a'
F1
ss(S'we'
p752
S'are'
p753
tp754
g1
(g7
tRp755
S'that'
p756
F1
ss(S'any'
p757
g584
tp758
g1
(g7
tRp759
g447
F1
ss(S'And'
S'as'
p760
tp761
g1
(g7
tRp762
S'far'
p763
F0.5
sS'president,'
p764
F0.5
ss(S'state'
p765
S'of'
p766
tp767
g1
(g7
tRp768
S'dependence'
p769
F1
ss(g155
tp770
g1
(g7
tRp771
g156
F0.28515625000000006
sS'people'
p772
F0.14322916666666669
sS'it'
p773
F0.28515625000000006
sS'is'
p774
F0.14322916666666669
sS'liberty'
p775
F0.14322916666666669
ss(S'chaos'
p776
tp777
g1
(g7
tRp778
S'in'
p779
F1
ss(g329
S'not'
p780
tp781
g1
(g7
tRp782
g465
F0.5
sS'become'
p783
F0.5
ss(S'be'
p784
S'reasonable'
p785
tp786
g1
(g7
tRp787
S''
F1
ss(S'as'
p788
S'well'
p789
tp790
g1
(g7
tRp791
S''
F1
ss(S'borders'
p792
S'fairly'
p793
tp794
g1
(g7
tRp795
g444
F1
ss(g652
g118
tp796
g1
(g7
tRp797
S''
F1
ss(S'IRS'
p798
tp799
g1
(g7
tRp800
S'is'
p801
F1
ss(S'people'
p802
S'to'
p803
tp804
g1
(g7
tRp805
S'think'
p806
F1
ss(g25
g487
tp807
g1
(g7
tRp808
S'of'
p809
F1
ss(S'which'
p810
g349
tp811
g1
(g7
tRp812
g350
F1
ss(S'all'
p813
tp814
g1
(g7
tRp815
S''
F0.12522045855379188
sS'people'
p816
F0.12522045855379188
sS'--'
p817
F0.12522045855379188
sg175
F0.24955908289241624
sS'interested'
p818
F0.12522045855379188
sS'the'
p819
F0.24955908289241624
ss(S'ourselves'
p820
tp821
g1
(g7
tRp822
S''
F1
ss(g710
tp823
g1
(g7
tRp824
S'to'
p825
F1
ss(g717
tp826
g1
(g7
tRp827
S''
F1
ss(S'liberty'
p828
tp829
g1
(g7
tRp830
S'and'
p831
F1
ss(S'My'
p832
S'name'
p833
tp834
g1
(g7
tRp835
S'was'
p836
F1
ss(g384
g50
tp837
g1
(g7
tRp838
S'be'
p839
F1
ss(g27
g30
tp840
g1
(g7
tRp841
S'Part'
p842
F1
ss(S'for'
p843
tp844
g1
(g7
tRp845
S'everybody'
p846
F0.090909090909090925
sS'a'
F0.090909090909090925
sg813
F0.090909090909090925
sS'America'
p847
F0.090909090909090925
sS'it'
p848
F0.090909090909090925
sg354
F0.090909090909090925
sS'traditional'
p849
F0.090909090909090925
sg597
F0.090909090909090925
sS'each'
p850
F0.090909090909090925
sS'Latino'
p851
F0.090909090909090925
sg649
F0.090909090909090925
ss(S'other'
p852
tp853
g1
(g7
tRp854
S''
F0.19999999999999998
sg261
F0.19999999999999998
sS'people'
p855
F0.19999999999999998
sS'people,'
p856
F0.19999999999999998
sS'nations'
p857
F0.19999999999999998
ss(S'you'
p858
S'tonight,'
p859
tp860
g1
(g7
tRp861
S'America,'
p862
F1
ss(S'in'
p863
S'which'
p864
tp865
g1
(g7
tRp866
S'to'
p867
F0.5
sS'we'
p868
F0.5
ss(S'to'
p869
S'do'
p870
tp871
g1
(g7
tRp872
S'is'
p873
F1
ss(S'secondary'
p874
tp875
g1
(g7
tRp876
S'to'
p877
F1
ss(S'National'
p878
tp879
g1
(g7
tRp880
g656
F0.5
sS'Prayer'
p881
F0.5
ss(S'it'
g48
tp882
g1
(g7
tRp883
S'every'
p884
F1
ss(g663
g742
tp885
g1
(g7
tRp886
S'I'
F0.20061728395061729
sS'people'
p887
F0.20061728395061729
sg136
F0.39814814814814814
sS'healthcare'
p888
F0.20061728395061729
ss(S'responsibility'
p889
S'of'
p890
tp891
g1
(g7
tRp892
S'Congress'
p893
F1
ss(S'together'
p894
tp895
g1
(g7
tRp896
S'a'
F1
ss(S'other'
g856
tp897
g1
(g7
tRp898
S'but,'
p899
F1
ss(g792
tp900
g1
(g7
tRp901
g793
F1
ss(S'Korea'
p902
S'is'
p903
tp904
g1
(g7
tRp905
S'concerned,'
p906
F1
ss(S'way'
g163
tp907
g1
(g7
tRp908
S'Republican'
p909
F1
ss(S"that's"
p910
tp911
g1
(g7
tRp912
S'probably'
p913
F0.16734693877551018
sS'the'
p914
F0.49795918367346931
sS'why'
p915
F0.16734693877551018
sS'left'
p916
F0.16734693877551018
ss(S'I'
S'think'
p917
tp918
g1
(g7
tRp919
S'everything'
p920
F0.12535612535612536
sS'we'
p921
F0.37416904083570751
sS'allowing'
p922
F0.12535612535612536
sS'they'
p923
F0.12535612535612536
sg910
F0.24976258309591642
ss(g894
S'a'
tp924
g1
(g7
tRp925
g722
F1
ss(S'in'
p926
S'same-sex'
p927
tp928
g1
(g7
tRp929
S'marriage'
p930
F1
ss(S'That'
p931
tp932
g1
(g7
tRp933
S'will'
p934
F0.66249999999999998
sS'would'
p935
F0.33750000000000002
ss(S'almost'
p936
g72
tp937
g1
(g7
tRp938
g75
F1
ss(g689
g693
tp939
g1
(g7
tRp940
S'through'
p941
F1
ss(S'--'
p942
S'we'
p943
tp944
g1
(g7
tRp945
S'have'
p946
F1
ss(S'to'
p947
S'talk'
p948
tp949
g1
(g7
tRp950
S'about'
p951
F0.5
sS'that'
p952
F0.5
ss(S'to'
S'have'
p953
tp954
g1
(g7
tRp955
S'a'
F0.16666666666666666
sS'long-range'
p956
F0.16666666666666666
sS'nuclear'
p957
F0.16666666666666666
sS'to'
p958
F0.16666666666666666
sS'policies'
p959
F0.16666666666666666
sS'catastrophic'
p960
F0.16666666666666666
ss(S'left'
p961
S'over'
p962
tp963
g1
(g7
tRp964
S''
F0.5
sS'to'
p965
F0.5
ss(S'able'
p966
tp967
g1
(g7
tRp968
S'to'
p969
F1
ss(g870
g873
tp970
g1
(g7
tRp971
S'be'
p972
F0.5
sS'to'
p973
F0.5
ss(S"It's"
p974
S'not'
p975
tp976
g1
(g7
tRp977
g230
F1
ss(g531
S'asked'
p978
tp979
g1
(g7
tRp980
S'about'
p981
F1
ss(S'though'
p982
g640
tp983
g1
(g7
tRp984
g323
F1
ss(S'participate,'
p985
g275
tp986
g1
(g7
tRp987
g276
F1
ss(S'this'
p988
S'man'
p989
tp990
g1
(g7
tRp991
S'is'
p992
F1
ss(S'court'
p993
tp994
g1
(g7
tRp995
S'order'
p996
F1
ss(S'Breakfast,'
p997
tp998
g1
(g7
tRp999
S'and'
p1000
F1
ss(S'the'
S'placement'
p1001
tp1002
g1
(g7
tRp1003
S'of'
p1004
F1
ss(S'by'
p1005
S'the'
p1006
tp1007
g1
(g7
tRp1008
S'grace'
p1009
F1
ss(g738
tp1010
g1
(g7
tRp1011
g739
F1
ss(S'real'
p1012
tp1013
g1
(g7
tRp1014
S'compassion'
p1015
F0.5
sg187
F0.5
ss(S'last'
p1016
S'thing'
p1017
tp1018
g1
(g7
tRp1019
S'we'
p1020
F0.5
sS'he'
p1021
F0.5
ss(S'know,'
p1022
S"it's"
p1023
tp1024
g1
(g7
tRp1025
S'like'
p1026
F1
ss(S'in,'
p1027
S'they'
p1028
tp1029
g1
(g7
tRp1030
g76
F1
ss(S'there'
p1031
tp1032
g1
(g7
tRp1033
S''
F0.49714285714285716
sS'several'
p1034
F0.25142857142857145
sg564
F0.25142857142857145
ss(g30
g842
tp1035
g1
(g7
tRp1036
S'C,'
p1037
F1
ss(g183
S'now,'
p1038
tp1039
g1
(g7
tRp1040
S'when'
p1041
F1
ss(S'anything,'
p1042
S'so'
p1043
tp1044
g1
(g7
tRp1045
S'they'
p1046
F1
ss(S'know,'
g616
tp1047
g1
(g7
tRp1048
g617
F1
ss(S'still'
p1049
g393
tp1050
g1
(g7
tRp1051
g394
F1
ss(S'the'
p1052
g367
tp1053
g1
(g7
tRp1054
g371
F1
ss(g707
tp1055
g1
(g7
tRp1056
g1017
F0.66249999999999998
sS'year'
p1057
F0.33750000000000002
ss(S'providing'
p1058
S'people'
p1059
tp1060
g1
(g7
tRp1061
S'with'
p1062
F1
ss(g310
tp1063
g1
(g7
tRp1064
g685
F1
ss(S'$500'
p1065
S'short,'
p1066
tp1067
g1
(g7
tRp1068
S'mom'
p1069
F1
ss(g765
tp1070
g1
(g7
tRp1071
g766
F1
ss(S'less'
p1072
S'than'
p1073
tp1074
g1
(g7
tRp1075
S'borrowing'
p1076
F1
ss(g464
S'Koreans'
p1077
tp1078
g1
(g7
tRp1079
S'but'
p1080
F1
ss(S'the'
p1081
S'community'
p1082
tp1083
g1
(g7
tRp1084
S'as'
p1085
F1
ss(g62
S'strength'
p1086
tp1087
g1
(g7
tRp1088
S''
F1
ss(S'you'
p1089
S'know,'
p1090
tp1091
g1
(g7
tRp1092
g1023
F0.14285714285714288
sS'when'
p1093
F0.14285714285714288
sS"let's"
p1094
F0.14285714285714288
sS'how'
p1095
F0.14285714285714288
sg616
F0.14285714285714288
sS'you'
p1096
F0.14285714285714288
sg180
F0.14285714285714288
ss(S'most'
p1097
S'importantly,'
p1098
tp1099
g1
(g7
tRp1100
S'we'
p1101
F1
ss(S'the'
p1102
S'past'
p1103
tp1104
g1
(g7
tRp1105
S''
F1
ss(g199
g818
tp1106
g1
(g7
tRp1107
S'in'
p1108
F1
ss(S'the'
p1109
S'THAAD,'
p1110
tp1111
g1
(g7
tRp1112
S'the'
p1113
F1
ss(S'because'
p1114
g988
tp1115
g1
(g7
tRp1116
g989
F1
ss(g240
tp1117
g1
(g7
tRp1118
g243
F1
ss(g433
tp1119
g1
(g7
tRp1120
g434
F1
ss(S'do'
p1121
S'we'
p1122
tp1123
g1
(g7
tRp1124
S'take'
p1125
F1
ss(S'tell'
p1126
tp1127
g1
(g7
tRp1128
S'you'
p1129
F1
ss(g673
S'America'
p1130
tp1131
g1
(g7
tRp1132
S''
F1
ss(S'to'
p1133
g427
tp1134
g1
(g7
tRp1135
S'a'
F0.5
sS'taxes'
p1136
F0.5
ss(S'FISA'
p1137
tp1138
g1
(g7
tRp1139
g22
F1
ss(S'through'
p1140
S'and'
p1141
tp1142
g1
(g7
tRp1143
S'I'
F1
ss(S'because'
p1144
S"it's"
p1145
tp1146
g1
(g7
tRp1147
S'not'
p1148
F1
ss(S'billion;'
p1149
tp1150
g1
(g7
tRp1151
g936
F1
ss(S'system'
p1152
tp1153
g1
(g7
tRp1154
S''
F0.25
sS'of'
p1155
F0.25
sS'that'
p1156
F0.25
sS'in'
p1157
F0.25
ss(S"that's"
p1158
g916
tp1159
g1
(g7
tRp1160
S'over'
p1161
F1
ss(S'paying'
p1162
tp1163
g1
(g7
tRp1164
S'interest'
p1165
F1
ss(S'search'
p1166
S'and'
p1167
tp1168
g1
(g7
tRp1169
g280
F1
ss(g192
g195
tp1170
g1
(g7
tRp1171
S'a'
F1
ss(S'a'
S'chimney,'
p1172
tp1173
g1
(g7
tRp1174
S"everybody's"
p1175
F1
ss(S'to'
p1176
g726
tp1177
g1
(g7
tRp1178
g344
F1
ss(S'best'
p1179
S'way'
p1180
tp1181
g1
(g7
tRp1182
g162
F1
ss(g267
g171
tp1183
g1
(g7
tRp1184
g172
F1
ss(g725
S'ago'
p1185
tp1186
g1
(g7
tRp1187
S''
F1
ss(g973
S'reject'
p1188
tp1189
g1
(g7
tRp1190
S'Israel'
p1191
F1
ss(g729
S'looking'
p1192
tp1193
g1
(g7
tRp1194
S'at'
p1195
F1
ss(S'not'
p1196
S'a'
tp1197
g1
(g7
tRp1198
S'right'
p1199
F1
ss(g617
tp1200
g1
(g7
tRp1201
g620
F1
ss(S'just'
p1202
S'like'
p1203
tp1204
g1
(g7
tRp1205
S'we'
p1206
F1
ss(g323
tp1207
g1
(g7
tRp1208
g643
F0.33333333333333331
sg99
F0.33333333333333331
sS'been'
p1209
F0.33333333333333331
ss(S'money'
p1210
tp1211
g1
(g7
tRp1212
g81
F0.25
sg433
F0.25
sS'from'
p1213
F0.25
sg1158
F0.25
ss(S'finish,'
p1214
tp1215
g1
(g7
tRp1216
S'because'
p1217
F1
ss(S'strategic'
p1218
S'defense'
p1219
tp1220
g1
(g7
tRp1221
S'initiative'
p1222
F1
ss(S'encouraging'
p1223
tp1224
g1
(g7
tRp1225
S'the'
p1226
F0.66249999999999998
sg776
F0.33750000000000002
ss(S'in'
p1227
S'from'
p1228
tp1229
g1
(g7
tRp1230
S'South'
p1231
F1
ss(g75
S'people'
p1232
tp1233
g1
(g7
tRp1234
g985
F1
ss(g1199
tp1235
g1
(g7
tRp1236
S''
F1
ss(g1188
g1191
tp1237
g1
(g7
tRp1238
S''
F1
ss(g451
S'trying'
p1239
tp1240
g1
(g7
tRp1241
S'to'
p1242
F1
ss(S'as'
p1243
S'a'
tp1244
g1
(g7
tRp1245
S'whole'
p1246
F0.66249999999999998
sS'guest'
p1247
F0.33750000000000002
ss(g340
tp1248
g1
(g7
tRp1249
S'within'
p1250
F0.5
sg343
F0.5
ss(S'they'
p1251
g334
tp1252
g1
(g7
tRp1253
S'have'
p1254
F1
ss(g887
g621
tp1255
g1
(g7
tRp1256
g622
F1
ss(g1001
tp1257
g1
(g7
tRp1258
g1004
F1
ss(g952
g712
tp1259
g1
(g7
tRp1260
S''
F1
ss(S'lot'
p1261
g1072
tp1262
g1
(g7
tRp1263
g538
F0.5
sg1073
F0.5
ss(S'want'
p1264
S'and'
p1265
tp1266
g1
(g7
tRp1267
S'what'
p1268
F1
ss(S'to'
p1269
g402
tp1270
g1
(g7
tRp1271
g405
F1
ss(S'a'
g1246
tp1272
g1
(g7
tRp1273
S''
F0.5
sS'or'
p1274
F0.5
ss(S'are'
p1275
S'getting'
p1276
tp1277
g1
(g7
tRp1278
S'across'
p1279
F1
ss(S'and'
p1280
tp1281
g1
(g7
tRp1282
S'all'
p1283
F0.028573878110915146
sg280
F0.028573878110915146
sS'healed'
p1284
F0.028573878110915146
sS'our'
p1285
F0.028573878110915146
sS'intellect'
p1286
F0.028573878110915146
sg1268
F0.028573878110915146
sS'justice'
p1287
F0.057135508524397402
sg487
F0.028573878110915146
sS'revive'
p1288
F0.028573878110915146
sS'everything'
p1289
F0.028573878110915146
sg440
F0.028573878110915146
sS'correct'
p1290
F0.028573878110915146
sS'then'
p1291
F0.057135508524397402
sg752
F0.057135508524397402
sS'Central'
p1292
F0.028573878110915146
sg132
F0.028573878110915146
sS'I'
F0.085697138937879669
sS'Mexico,'
p1293
F0.028573878110915146
sS'failure'
p1294
F0.028573878110915146
sS'they'
p1295
F0.057135508524397402
sg257
F0.028573878110915146
sg591
F0.028573878110915146
sg95
F0.028573878110915146
sS'unreasonable'
p1296
F0.028573878110915146
sS'losers'
p1297
F0.028573878110915146
sS'become'
p1298
F0.028573878110915146
sS'the'
p1299
F0.057135508524397402
sS"that's"
p1300
F0.028573878110915146
ss(g839
S'the'
p1301
tp1302
g1
(g7
tRp1303
S'last'
p1304
F1
ss(g711
g689
tp1305
g1
(g7
tRp1306
g693
F1
ss(g402
g405
tp1307
g1
(g7
tRp1308
S'with'
p1309
F1
ss(g972
tp1310
g1
(g7
tRp1311
S'fair'
p1312
F0.38411078717201169
sS'developing'
p1313
F0.077016520894071919
sg966
F0.077016520894071919
sg1223
F0.15379008746355685
sS'looking'
p1314
F0.077016520894071919
sg785
F0.077016520894071919
sS'such'
p1315
F0.077016520894071919
sg1301
F0.077016520894071919
ss(S'about'
p1316
S'taxes'
p1317
tp1318
g1
(g7
tRp1319
S''
F1
ss(S'But'
g1012
tp1320
g1
(g7
tRp1321
g1015
F1
ss(S'Defense,'
p1322
tp1323
g1
(g7
tRp1324
S'that'
p1325
F1
ss(S'sudden,'
p1326
tp1327
g1
(g7
tRp1328
S'they'
p1329
F1
ss(g608
S'practice'
p1330
tp1331
g1
(g7
tRp1332
S''
F1
ss(S'someone'
p1333
S'had'
p1334
tp1335
g1
(g7
tRp1336
S'tried'
p1337
F1
ss(S'access'
p1338
S'than'
p1339
tp1340
g1
(g7
tRp1341
S'we'
p1342
F1
ss(g629
S'insurance'
p1343
tp1344
g1
(g7
tRp1345
S''
F1
ss(S'and'
p1346
g1300
tp1347
g1
(g7
tRp1348
g913
F1
ss(S'the'
p1349
S'people'
p1350
tp1351
g1
(g7
tRp1352
S''
F0.5
sS'who'
p1353
F0.5
ss(g709
S'will'
p1354
tp1355
g1
(g7
tRp1356
S'want'
p1357
F1
ss(S'doing'
p1358
S'things'
p1359
tp1360
g1
(g7
tRp1361
S'in'
p1362
F1
ss(S'acceptable'
p1363
S'record'
p1364
tp1365
g1
(g7
tRp1366
S''
F1
ss(S'extra'
p1367
S'rights'
p1368
tp1369
g1
(g7
tRp1370
S''
F1
ss(g1217
S'I'
tp1371
g1
(g7
tRp1372
S"didn't"
p1373
F0.33750000000000002
sS"don't"
p1374
F0.66249999999999998
ss(S'off'
p1375
S'the'
p1376
tp1377
g1
(g7
tRp1378
S'abyss'
p1379
F1
ss(S'many,'
p1380
g131
tp1381
g1
(g7
tRp1382
g132
F1
ss(g621
tp1383
g1
(g7
tRp1384
g315
F0.5
sg622
F0.5
ss(g753
g756
tp1385
g1
(g7
tRp1386
S''
F1
ss(S'menu,'
p1387
tp1388
g1
(g7
tRp1389
g1202
F1
ss(S"That's"
S'why'
p1390
tp1391
g1
(g7
tRp1392
S'we'
p1393
F1
ss(S'to'
p1394
g103
tp1395
g1
(g7
tRp1396
S''
F1
ss(S'strategic'
p1397
S'partner'
p1398
tp1399
g1
(g7
tRp1400
g353
F1
ss(S'that'
p1401
g711
tp1402
g1
(g7
tRp1403
g689
F1
ss(S'a'
g1247
tp1404
g1
(g7
tRp1405
S'worker,'
p1406
F1
ss(g98
g718
tp1407
g1
(g7
tRp1408
S'the'
p1409
F1
ss(S'our'
p1410
S'religious'
p1411
tp1412
g1
(g7
tRp1413
S'freedom'
p1414
F1
ss(S'had'
p1415
g567
tp1416
g1
(g7
tRp1417
g311
F1
ss(g455
S'get'
p1418
tp1419
g1
(g7
tRp1420
g1367
F1
ss(g48
g884
tp1421
g1
(g7
tRp1422
g730
F1
ss(S'to'
p1423
S'a'
tp1424
g1
(g7
tRp1425
S'lot'
p1426
F1
ss(S'terms'
p1427
S'of'
p1428
tp1429
g1
(g7
tRp1430
g1349
F1
ss(g772
S'the'
p1431
tp1432
g1
(g7
tRp1433
S'ability'
p1434
F1
ss(g1148
S'just'
p1435
tp1436
g1
(g7
tRp1437
S'people'
p1438
F1
ss(S'can'
p1439
S'always'
p1440
tp1441
g1
(g7
tRp1442
S'be'
p1443
F1
ss(g127
S'because'
p1444
tp1445
g1
(g7
tRp1446
S'I'
F1
ss(g708
g775
tp1447
g1
(g7
tRp1448
S'and'
p1449
F1
ss(S'attract'
p1450
tp1451
g1
(g7
tRp1452
g320
F1
ss(S"what's"
p1453
S'going'
p1454
tp1455
g1
(g7
tRp1456
S'on'
p1457
F1
ss(g95
g98
tp1458
g1
(g7
tRp1459
g718
F1
ss(S'movie'
p1460
S'was'
p1461
tp1462
g1
(g7
tRp1463
S'made'
p1464
F1
ss(S'We'
S'have'
p1465
tp1466
g1
(g7
tRp1467
S'a'
F1
ss(g693
g941
tp1468
g1
(g7
tRp1469
S''
F1
ss(S'a'
S'six-month'
p1470
tp1471
g1
(g7
tRp1472
S'period'
p1473
F1
ss(g75
tp1474
g1
(g7
tRp1475
g1232
F1
ss(S'society,'
p1476
tp1477
g1
(g7
tRp1478
S'and'
p1479
F1
ss(S"couldn't"
p1480
S'find'
p1481
tp1482
g1
(g7
tRp1483
S'a'
F1
ss(g225
tp1484
g1
(g7
tRp1485
g226
F1
ss(g501
g505
tp1486
g1
(g7
tRp1487
S'a'
F1
ss(S'rid'
p1488
S'of'
p1489
tp1490
g1
(g7
tRp1491
S'them'
p1492
F1
ss(g52
S'the'
p1493
tp1494
g1
(g7
tRp1495
S'judicial'
p1496
F0.33333333333333331
sg993
F0.33333333333333331
sS'same'
p1497
F0.33333333333333331
ss(g769
tp1498
g1
(g7
tRp1499
S'and'
p1500
F1
ss(g1289
S'else'
p1501
tp1502
g1
(g7
tRp1503
S''
F1
ss(S'find'
p1504
g235
tp1505
g1
(g7
tRp1506
g236
F0.5
sg680
F0.5
ss(g856
tp1507
g1
(g7
tRp1508
g899
F1
ss(S'of'
p1509
S'this'
p1510
tp1511
g1
(g7
tRp1512
S'nation,'
p1513
F1
ss(S'to'
p1514
S'become'
p1515
tp1516
g1
(g7
tRp1517
S'an'
p1518
F1
ss(g1315
tp1519
g1
(g7
tRp1520
S'a'
F1
ss(g1297
tp1521
g1
(g7
tRp1522
S''
F1
ss(S'Elected'
p1523
S'Officials,'
p1524
tp1525
g1
(g7
tRp1526
S'I'
F1
ss(S'you'
p1527
S'would'
p1528
tp1529
g1
(g7
tRp1530
S'have'
p1531
F1
ss(g1440
g1443
tp1532
g1
(g7
tRp1533
S'fair'
p1534
F1
ss(g1188
tp1535
g1
(g7
tRp1536
g1191
F1
ss(S'have'
p1537
S'mechanisms'
p1538
tp1539
g1
(g7
tRp1540
S'in'
p1541
F1
ss(S'So'
g111
tp1542
g1
(g7
tRp1543
S'I'
F1
ss(S'much'
p1544
g307
tp1545
g1
(g7
tRp1546
g310
F1
ss(g825
S'disturb'
p1547
tp1548
g1
(g7
tRp1549
S'not'
p1550
F1
ss(S'costs'
p1551
S'$1,500'
p1552
tp1553
g1
(g7
tRp1554
S'a'
F1
ss(S'many'
p1555
S'other'
p1556
tp1557
g1
(g7
tRp1558
g857
F1
ss(S'against'
p1559
tp1560
g1
(g7
tRp1561
S'illegal'
p1562
F1
ss(S'of'
p1563
S'utilizing'
p1564
tp1565
g1
(g7
tRp1566
S'our'
p1567
F1
ss(S'next'
p1568
S'year'
p1569
tp1570
g1
(g7
tRp1571
S'and'
p1572
F0.5
sS''
F0.5
ss(S'man,'
p1573
tp1574
g1
(g7
tRp1575
g253
F1
ss(g914
S'kind'
p1576
tp1577
g1
(g7
tRp1578
S'of'
p1579
F1
ss(S'Area'
p1580
tp1581
g1
(g7
tRp1582
g1322
F1
ss(g17
g21
tp1583
g1
(g7
tRp1584
S'you'
p1585
F1
ss(S'Terminal'
p1586
S'High-Altitude'
p1587
tp1588
g1
(g7
tRp1589
g1580
F1
ss(g208
S'thousands'
p1590
tp1591
g1
(g7
tRp1592
S'of'
p1593
F1
ss(S'middle'
p1594
S'man'
p1595
tp1596
g1
(g7
tRp1597
S''
F1
ss(S'with'
p1598
g587
tp1599
g1
(g7
tRp1600
g588
F1
ss(S'missile'
p1601
tp1602
g1
(g7
tRp1603
g381
F1
ss(g1165
tp1604
g1
(g7
tRp1605
S'on'
p1606
F1
ss(g1155
S'taxation'
p1607
tp1608
g1
(g7
tRp1609
S'in'
p1610
F1
ss(g1434
tp1611
g1
(g7
tRp1612
S'to'
p1613
F1
ss(g30
tp1614
g1
(g7
tRp1615
g842
F1
ss(g63
tp1616
g1
(g7
tRp1617
S'and'
p1618
F0.5
sg64
F0.5
ss(g340
g343
tp1619
g1
(g7
tRp1620
g300
F1
ss(S'mention'
p1621
S'that'
p1622
tp1623
g1
(g7
tRp1624
g707
F1
ss(S'of'
S'them'
p1625
tp1626
g1
(g7
tRp1627
S''
F0.5
sS'now'
p1628
F0.5
ss(g1122
g1125
tp1629
g1
(g7
tRp1630
S'care'
p1631
F1
ss(g421
S'that'
p1632
tp1633
g1
(g7
tRp1634
S'is'
p1635
F1
ss(g731
tp1636
g1
(g7
tRp1637
S'covered'
p1638
F1
ss(S'life'
p1639
S'is'
p1640
tp1641
g1
(g7
tRp1642
S'what'
p1643
F1
ss(S'So'
S"dad's"
p1644
tp1645
g1
(g7
tRp1646
g1065
F1
ss(S'And'
S'this'
p1647
tp1648
g1
(g7
tRp1649
S'is'
p1650
F1
ss(g819
S'borders,'
p1651
tp1652
g1
(g7
tRp1653
g1144
F1
ss(g989
g992
tp1654
g1
(g7
tRp1655
S'going'
p1656
F1
ss(S'citizen,'
p1657
S'they'
p1658
tp1659
g1
(g7
tRp1660
g54
F1
ss(g427
tp1661
g1
(g7
tRp1662
S'a'
F0.25142857142857145
sS'for'
p1663
F0.49714285714285716
sg1136
F0.25142857142857145
ss(g608
tp1664
g1
(g7
tRp1665
g1330
F1
ss(g190
tp1666
g1
(g7
tRp1667
S''
F1
ss(S'the'
p1668
g878
tp1669
g1
(g7
tRp1670
g656
F0.5
sg881
F0.5
ss(g457
g363
tp1671
g1
(g7
tRp1672
g366
F1
ss(S'the'
p1673
S'question'
p1674
tp1675
g1
(g7
tRp1676
S''
F1
ss(g440
g443
tp1677
g1
(g7
tRp1678
S'and'
p1679
F1
ss(g899
tp1680
g1
(g7
tRp1681
S'you'
p1682
F1
ss(S'Can'
p1683
tp1684
g1
(g7
tRp1685
S'somebody'
p1686
F1
ss(S'And'
S'now,'
p1687
tp1688
g1
(g7
tRp1689
S'as'
p1690
F1
ss(g1480
tp1691
g1
(g7
tRp1692
g1481
F1
ss(S'I'
g1415
tp1693
g1
(g7
tRp1694
g567
F1
ss(g1576
tp1695
g1
(g7
tRp1696
g1579
F1
ss(S'or'
p1697
S'a'
tp1698
g1
(g7
tRp1699
S'cousin'
p1700
F1
ss(g472
S'healthcare'
p1701
tp1702
g1
(g7
tRp1703
S''
F0.5
sS'is'
p1704
F0.5
ss(g682
tp1705
g1
(g7
tRp1706
S''
F1
ss(S'thing'
p1707
tp1708
g1
(g7
tRp1709
g1020
F0.33333333333333331
sg1021
F0.33333333333333331
sS'coming'
p1710
F0.33333333333333331
ss(g276
g279
tp1711
g1
(g7
tRp1712
g164
F1
ss(S'in'
p1713
S'that'
p1714
tp1715
g1
(g7
tRp1716
g705
F1
ss(S'Party'
p1717
tp1718
g1
(g7
tRp1719
S'generally'
p1720
F1
ss(S'candidates'
p1721
tp1722
g1
(g7
tRp1723
S'to'
p1724
F1
ss(S'need'
p1725
g869
tp1726
g1
(g7
tRp1727
g870
F0.19989669421487605
sS'secure'
p1728
F0.10020661157024795
sS'get'
p1729
F0.10020661157024795
sg953
F0.19989669421487605
sg784
F0.29958677685950419
sg575
F0.10020661157024795
ss(S"you're"
p1730
S'encouraging'
p1731
tp1732
g1
(g7
tRp1733
g776
F1
ss(S'insurance'
p1734
S'carrier'
p1735
tp1736
g1
(g7
tRp1737
S'with'
p1738
F1
ss(S'cigarettes'
p1739
S'because'
p1740
tp1741
g1
(g7
tRp1742
g196
F1
ss(g1510
g1513
tp1743
g1
(g7
tRp1744
S'and'
p1745
F1
ss(g175
S'our'
p1746
tp1747
g1
(g7
tRp1748
S'rights'
p1749
F1
ss(g166
tp1750
g1
(g7
tRp1751
g167
F1
ss(S'And'
p1752
S"I've"
p1753
tp1754
g1
(g7
tRp1755
S'already'
p1756
F1
ss(g1359
g1362
tp1757
g1
(g7
tRp1758
S'South'
p1759
F1
ss(S'this'
p1760
S'country'
p1761
tp1762
g1
(g7
tRp1763
S'that'
p1764
F1
ss(S'would'
p1765
g316
tp1766
g1
(g7
tRp1767
g319
F1
ss(g579
tp1768
g1
(g7
tRp1769
S'and'
p1770
F1
ss(S'lot'
p1771
S'more'
p1772
tp1773
g1
(g7
tRp1774
S'flexibility'
p1775
F0.5
sg482
F0.5
ss(S'back-tax'
p1776
tp1777
g1
(g7
tRp1778
S'penalty,'
p1779
F1
ss(g930
tp1780
g1
(g7
tRp1781
S'the'
p1782
F1
ss(S'a'
S'Fourth'
p1783
tp1784
g1
(g7
tRp1785
S'Amendment'
p1786
F1
ss(S'know,'
p1787
g1096
tp1788
g1
(g7
tRp1789
S'want'
p1790
F1
ss(S'to'
p1791
g225
tp1792
g1
(g7
tRp1793
g226
F1
ss(S'do'
p1794
S'should'
p1795
tp1796
g1
(g7
tRp1797
S'be'
p1798
F1
ss(g969
S'defend'
p1799
tp1800
g1
(g7
tRp1801
g820
F1
ss(S'Ted,'
p1802
S'John,'
p1803
tp1804
g1
(g7
tRp1805
S'we'
p1806
F1
ss(g851
g1523
tp1807
g1
(g7
tRp1808
g1524
F1
ss(S'listened'
p1809
tp1810
g1
(g7
tRp1811
g681
F1
ss(S'that,'
p1812
S'I'
tp1813
g1
(g7
tRp1814
S'think'
p1815
F1
ss(g1783
g1786
tp1816
g1
(g7
tRp1817
S''
F1
ss(S'propose'
p1818
S'a'
tp1819
g1
(g7
tRp1820
g1152
F1
ss(S'These'
p1821
tp1822
g1
(g7
tRp1823
S'hands'
p1824
F1
ss(S'not'
p1825
S'only'
p1826
tp1827
g1
(g7
tRp1828
S'to'
p1829
F0.5
sg461
F0.5
ss(g798
g801
tp1830
g1
(g7
tRp1831
S'not'
p1832
F1
ss(S'only'
p1833
g1707
tp1834
g1
(g7
tRp1835
g1710
F1
ss(g961
tp1836
g1
(g7
tRp1837
g962
F1
ss(g72
g75
tp1838
g1
(g7
tRp1839
g1232
F1
ss(S'twice'
p1840
tp1841
g1
(g7
tRp1842
S'as'
p1843
F1
ss(S'be'
g1313
tp1844
g1
(g7
tRp1845
g1218
F1
ss(g86
g89
tp1846
g1
(g7
tRp1847
g235
F0.33750000000000002
sg1042
F0.66249999999999998
ss(g42
g121
tp1848
g1
(g7
tRp1849
g122
F1
ss(g525
g529
tp1850
g1
(g7
tRp1851
S'the'
p1852
F1
ss(S'Yes,'
p1853
S'amen,'
p1854
tp1855
g1
(g7
tRp1856
S'amen'
p1857
F1
ss(g1552
tp1858
g1
(g7
tRp1859
S'a'
F0.5
sS'one'
p1860
F0.5
ss(g274
S'to'
p1861
tp1862
g1
(g7
tRp1863
S'destroy'
p1864
F0.25
sS'be'
p1865
F0.25
sS'look'
p1866
F0.25
sg1515
F0.25
ss(S'think'
g910
tp1867
g1
(g7
tRp1868
g914
F1
ss(S'situation'
p1869
S'that'
p1870
tp1871
g1
(g7
tRp1872
g372
F1
ss(S'ago,'
p1873
S'I'
tp1874
g1
(g7
tRp1875
S'talked'
p1876
F1
ss(g1009
S'of'
p1877
tp1878
g1
(g7
tRp1879
g456
F1
ss(g730
S'their'
p1880
tp1881
g1
(g7
tRp1882
S'own'
p1883
F1
ss(S'And'
S'then'
p1884
tp1885
g1
(g7
tRp1886
g85
F1
ss(S'when'
p1887
S'we'
p1888
tp1889
g1
(g7
tRp1890
S'got'
p1891
F0.5
sS'fix'
p1892
F0.5
ss(g647
tp1893
g1
(g7
tRp1894
g982
F1
ss(S'opportunity'
p1895
S'to'
p1896
tp1897
g1
(g7
tRp1898
S'climb'
p1899
F1
ss(S'an'
p1900
S'honorary'
p1901
tp1902
g1
(g7
tRp1903
S'degree'
p1904
F1
ss(S'look'
p1905
tp1906
g1
(g7
tRp1907
S'at'
p1908
F1
ss(S'But'
S'what'
p1909
tp1910
g1
(g7
tRp1911
S'we'
p1912
F1
ss(S'destroy'
p1913
S'each'
p1914
tp1915
g1
(g7
tRp1916
g852
F1
ss(g447
tp1917
g1
(g7
tRp1918
g448
F0.5
sg401
F0.5
ss(g888
S'is'
p1919
tp1920
g1
(g7
tRp1921
g1196
F0.5
sS'going'
p1922
F0.5
ss(S'border'
p1923
tp1924
g1
(g7
tRp1925
S''
F1
ss(S'do'
p1926
S'you'
p1927
tp1928
g1
(g7
tRp1929
g1264
F1
ss(g1073
tp1930
g1
(g7
tRp1931
g1342
F0.33333333333333331
sg1076
F0.33333333333333331
sg209
F0.33333333333333331
ss(g145
g655
tp1932
g1
(g7
tRp1933
S'going'
p1934
F1
ss(S'to'
g784
tp1935
g1
(g7
tRp1936
g966
F0.20061728395061729
sS'fair'
p1937
F0.39814814814814814
sg785
F0.20061728395061729
sg1313
F0.20061728395061729
ss(g1300
g913
tp1938
g1
(g7
tRp1939
S'the'
p1940
F1
ss(S'a'
S'special'
p1941
tp1942
g1
(g7
tRp1943
S'attention'
p1944
F1
ss(S'So,'
p1945
tp1946
g1
(g7
tRp1947
S"it's"
p1948
F1
ss(S'still'
p1949
S'did,'
p1950
tp1951
g1
(g7
tRp1952
S'I'
F1
ss(g171
tp1953
g1
(g7
tRp1954
g172
F1
ss(S'a'
g1261
tp1955
g1
(g7
tRp1956
S'better'
p1957
F0.14322916666666669
sS'of'
p1958
F0.14322916666666669
sg1772
F0.28515625000000006
sg284
F0.14322916666666669
sg1072
F0.28515625000000006
ss(S'for'
p1959
g850
tp1960
g1
(g7
tRp1961
g1573
F1
ss(g126
S'his'
p1962
tp1963
g1
(g7
tRp1964
g1739
F1
ss(g1945
g1948
tp1965
g1
(g7
tRp1966
S'like'
p1967
F1
ss(g184
tp1968
g1
(g7
tRp1969
g221
F1
ss(g1779
tp1970
g1
(g7
tRp1971
S'have'
p1972
F1
ss(S'a'
S'much'
p1973
tp1974
g1
(g7
tRp1975
S'more'
p1976
F1
ss(S'will'
p1977
g1450
tp1978
g1
(g7
tRp1979
g320
F1
ss(S'things'
p1980
S'is'
p1981
tp1982
g1
(g7
tRp1983
S'bad'
p1984
F1
ss(g1984
S'for'
p1985
tp1986
g1
(g7
tRp1987
g847
F1
ss(g1569
g1572
tp1988
g1
(g7
tRp1989
g1299
F1
ss(S'that'
p1990
S'I'
tp1991
g1
(g7
tRp1992
S'give'
p1993
F0.25
sS'whine'
p1994
F0.25
sg546
F0.25
sg39
F0.25
ss(S'the'
p1995
S'reason'
p1996
tp1997
g1
(g7
tRp1998
g1990
F1
ss(g186
S'ever'
p1999
tp2000
g1
(g7
tRp2001
S'shoots'
p2002
F0.5
sS'does'
p2003
F0.5
ss(S'be'
g966
tp2004
g1
(g7
tRp2005
g969
F1
ss(S'should'
p2006
S'make'
p2007
tp2008
g1
(g7
tRp2009
g745
F1
ss(g1538
tp2010
g1
(g7
tRp2011
g1541
F1
ss(g1749
tp2012
g1
(g7
tRp2013
S''
F0.66249999999999998
sS'as'
p2014
F0.33750000000000002
ss(S'the'
g1568
tp2015
g1
(g7
tRp2016
g1569
F1
ss(g1806
S'will'
p2017
tp2018
g1
(g7
tRp2019
S'not'
p2020
F0.33333333333333331
sg1450
F0.33333333333333331
sS'lose'
p2021
F0.33333333333333331
ss(g195
S'a'
tp2022
g1
(g7
tRp2023
S'homeowners'
p2024
F1
ss(g1283
g817
tp2025
g1
(g7
tRp2026
g1251
F1
ss(g1950
tp2027
g1
(g7
tRp2028
S'I'
F1
ss(S'after'
p2029
S'that,'
p2030
tp2031
g1
(g7
tRp2032
g1346
F1
ss(S'I'
S'hope'
p2033
tp2034
g1
(g7
tRp2035
S'we'
p2036
F1
ss(g80
S'want'
p2037
tp2038
g1
(g7
tRp2039
S'to'
p2040
F1
ss(g332
tp2041
g1
(g7
tRp2042
g43
F0.28485576923076927
sS'feel'
p2043
F0.14302884615384615
sg535
F0.14302884615384615
sS'pick'
p2044
F0.14302884615384615
sg42
F0.14302884615384615
sS'comply'
p2045
F0.14302884615384615
ss(S'presence'
p2046
g1713
tp2047
g1
(g7
tRp2048
g1714
F1
ss(S'policy'
g504
tp2049
g1
(g7
tRp2050
S'you'
p2051
F1
ss(S'know,'
S'we'
p2052
tp2053
g1
(g7
tRp2054
S'have'
p2055
F1
ss(g1683
g1686
tp2056
g1
(g7
tRp2057
S'attack'
p2058
F1
ss(g2044
g439
tp2059
g1
(g7
tRp2060
g440
F1
ss(g300
tp2061
g1
(g7
tRp2062
g1594
F0.5
sg301
F0.5
ss(g1551
tp2063
g1
(g7
tRp2064
g1552
F0.5
sg749
F0.5
ss(S'about'
p2065
S'the'
p2066
tp2067
g1
(g7
tRp2068
S'American'
p2069
F1
ss(g2014
S'everybody'
p2070
tp2071
g1
(g7
tRp2072
g325
F1
ss(S'far'
p2073
tp2074
g1
(g7
tRp2075
S'as'
p2076
F1
ss(g1043
g1046
tp2077
g1
(g7
tRp2078
S'said'
p2079
F1
ss(g257
tp2080
g1
(g7
tRp2081
S'and'
p2082
F0.5
sS'you'
p2083
F0.5
ss(S'act'
p2084
tp2085
g1
(g7
tRp2086
S'in'
p2087
F1
ss(g1962
tp2088
g1
(g7
tRp2089
g1739
F1
ss(S'chance'
p2090
g947
tp2091
g1
(g7
tRp2092
g948
F1
ss(S'around'
p2093
S'but'
p2094
tp2095
g1
(g7
tRp2096
S'you'
p2097
F1
ss(g129
S'a'
tp2098
g1
(g7
tRp2099
S'lot'
p2100
F1
ss(g1876
g1423
tp2101
g1
(g7
tRp2102
S'a'
F1
ss(g1913
tp2103
g1
(g7
tRp2104
S'us,'
p2105
F0.5
sg1914
F0.5
ss(g1428
g1349
tp2106
g1
(g7
tRp2107
g670
F0.14302884615384615
sg1350
F0.28485576923076927
sg1674
F0.14302884615384615
sg570
F0.14302884615384615
sS'basic'
p2108
F0.14302884615384615
sg1110
F0.14302884615384615
ss(g670
g673
tp2109
g1
(g7
tRp2110
g1130
F1
ss(g1314
g843
tp2111
g1
(g7
tRp2112
g597
F1
ss(S'They'
S"didn't"
p2113
tp2114
g1
(g7
tRp2115
g1504
F1
ss(g1279
tp2116
g1
(g7
tRp2117
S'our'
p2118
F1
ss(g179
S'buy'
p2119
tp2120
g1
(g7
tRp2121
S'with'
p2122
F1
ss(g1095
tp2123
g1
(g7
tRp2124
g1121
F0.5
sS'we'
p2125
F0.5
ss(g428
tp2126
g1
(g7
tRp2127
g1052
F0.5
sS'that'
p2128
F0.5
ss(g1721
g1724
tp2129
g1
(g7
tRp2130
S'go'
p2131
F1
ss(S'get'
S'time'
p2132
tp2133
g1
(g7
tRp2134
S''
F1
ss(S'smoking'
p2135
tp2136
g1
(g7
tRp2137
S'like'
p2138
F1
ss(g1028
g76
tp2139
g1
(g7
tRp2140
g477
F0.66249999999999998
sg77
F0.33750000000000002
ss(g1914
g852
tp2141
g1
(g7
tRp2142
S''
F1
ss(g1291
S'have'
p2143
tp2144
g1
(g7
tRp2145
g520
F1
ss(S'also,'
p2146
tp2147
g1
(g7
tRp2148
S'you'
p2149
F1
ss(g2108
tp2150
g1
(g7
tRp2151
S'tenets'
p2152
F1
ss(S'taxes,'
p2153
tp2154
g1
(g7
tRp2155
S'I'
F1
ss(g1076
tp2156
g1
(g7
tRp2157
g1210
F1
ss(S'As'
p2158
g2073
tp2159
g1
(g7
tRp2160
g2076
F1
ss(S'process'
p2161
tp2162
g1
(g7
tRp2163
g1401
F1
ss(S'mean'
p2164
tp2165
g1
(g7
tRp2166
S'that'
p2167
F1
ss(g1379
S'of'
p2168
tp2169
g1
(g7
tRp2170
S'destruction,'
p2171
F1
ss(g180
g184
tp2172
g1
(g7
tRp2173
g221
F1
ss(g893
S'to'
p2174
tp2175
g1
(g7
tRp2176
S'come'
p2177
F1
ss(g542
g545
tp2178
g1
(g7
tRp2179
S'have'
p2180
F1
ss(g693
tp2181
g1
(g7
tRp2182
g941
F1
ss(g1895
tp2183
g1
(g7
tRp2184
g1896
F1
ss(g1223
g1226
tp2185
g1
(g7
tRp2186
S'alliance'
p2187
F0.5
sg1001
F0.5
ss(S'comply'
p2188
tp2189
g1
(g7
tRp2190
S'with'
p2191
F1
ss(S'will'
p2192
S'allow'
p2193
tp2194
g1
(g7
tRp2195
S'them'
p2196
F0.5
sS'us'
p2197
F0.5
ss(S'or'
p2198
S'we'
p2199
tp2200
g1
(g7
tRp2201
S'will'
p2202
F1
ss(g338
g1027
tp2203
g1
(g7
tRp2204
g1028
F1
ss(S'empowerment'
p2205
S'account'
p2206
tp2207
g1
(g7
tRp2208
g1250
F1
ss(S'And'
S'if'
p2209
tp2210
g1
(g7
tRp2211
g183
F1
ss(g469
g472
tp2212
g1
(g7
tRp2213
g1343
F0.5
sg1701
F0.5
ss(g948
tp2214
g1
(g7
tRp2215
g951
F0.5
sg952
F0.5
ss(g1073
g1076
tp2216
g1
(g7
tRp2217
g1210
F1
ss(S'which'
p2218
g868
tp2219
g1
(g7
tRp2220
S'use'
p2221
F1
ss(S'their'
p2222
tp2223
g1
(g7
tRp2224
g1639
F0.25
sg1883
F0.25
sg437
F0.25
sg438
F0.25
ss(g1607
g1610
tp2225
g1
(g7
tRp2226
g1760
F1
ss(g1427
tp2227
g1
(g7
tRp2228
g1428
F1
ss(S'to'
p2229
g126
tp2230
g1
(g7
tRp2231
g1962
F1
ss(g1957
S'when'
p2232
tp2233
g1
(g7
tRp2234
S'we'
p2235
F1
ss(S'we'
g220
tp2236
g1
(g7
tRp2237
S'them'
p2238
F0.5
sg773
F0.5
ss(S'assuming'
p2239
tp2240
g1
(g7
tRp2241
S'that'
p2242
F1
ss(g48
tp2243
g1
(g7
tRp2244
g884
F1
ss(g1941
tp2245
g1
(g7
tRp2246
g1944
F1
ss(g1940
g1179
tp2247
g1
(g7
tRp2248
g1180
F1
ss(g1165
g1606
tp2249
g1
(g7
tRp2250
g44
F1
ss(g529
g1852
tp2251
g1
(g7
tRp2252
g660
F1
ss(g1710
S'out'
p2253
tp2254
g1
(g7
tRp2255
S'of'
p2256
F1
ss(S'empowerment'
p2257
tp2258
g1
(g7
tRp2259
S'accounts,'
p2260
F0.5
sg2206
F0.5
ss(g2043
tp2261
g1
(g7
tRp2262
S'the'
p2263
F1
ss(g1017
g1020
tp2264
g1
(g7
tRp2265
S'need'
p2266
F1
ss(g156
S'a'
tp2267
g1
(g7
tRp2268
g1470
F0.5
sg1387
F0.5
ss(S'30'
p2269
S'years'
p2270
tp2271
g1
(g7
tRp2272
S'ago,'
p2273
F1
ss(S"can't"
p2274
S'be'
p2275
tp2276
g1
(g7
tRp2277
S'fair'
p2278
F1
ss(S'audit'
p2279
S'until'
p2280
tp2281
g1
(g7
tRp2282
S'I'
F1
ss(S'who'
p2283
S'have'
p2284
tp2285
g1
(g7
tRp2286
S'actually'
p2287
F1
ss(g1996
tp2288
g1
(g7
tRp2289
g1990
F1
ss(S'know'
p2290
g702
tp2291
g1
(g7
tRp2292
g715
F1
ss(S"don't"
p2293
g2043
tp2294
g1
(g7
tRp2295
g2263
F1
ss(g62
tp2296
g1
(g7
tRp2297
g1086
F1
ss(g315
S'that'
p2298
tp2299
g1
(g7
tRp2300
S''
F1
ss(g323
g643
tp2301
g1
(g7
tRp2302
S'same'
p2303
F1
ss(g2040
g1866
tp2304
g1
(g7
tRp2305
S'at'
p2306
F1
ss(g737
g1052
tp2307
g1
(g7
tRp2308
g367
F1
ss(S'have'
p2309
g960
tp2310
g1
(g7
tRp2311
g609
F1
ss(g1290
S'what'
p2312
tp2313
g1
(g7
tRp2314
S'the'
p2315
F1
ss(S'message'
p2316
g1176
tp2317
g1
(g7
tRp2318
g726
F1
ss(g1984
tp2319
g1
(g7
tRp2320
g1985
F1
ss(g1457
S'there'
p2321
tp2322
g1
(g7
tRp2323
S''
F1
ss(g958
g429
tp2324
g1
(g7
tRp2325
g534
F1
ss(S'praise'
p2326
tp2327
g1
(g7
tRp2328
S'to'
p2329
F1
ss(S'for'
p2330
g813
tp2331
g1
(g7
tRp2332
S''
F1
ss(g1192
g1195
tp2333
g1
(g7
tRp2334
g13
F1
ss(S'inspire'
p2335
S'and'
p2336
tp2337
g1
(g7
tRp2338
g1288
F1
ss(g1985
g847
tp2339
g1
(g7
tRp2340
S''
F1
ss(S'flexibility'
p2341
tp2342
g1
(g7
tRp2343
S''
F1
ss(g418
tp2344
g1
(g7
tRp2345
g421
F1
ss(S'have'
g1137
tp2346
g1
(g7
tRp2347
g22
F1
ss(S'it'
p2348
g47
tp2349
g1
(g7
tRp2350
S'when'
p2351
F1
ss(g1562
g370
tp2352
g1
(g7
tRp2353
g1296
F1
ss(S'a'
tp2354
g1
(g7
tRp2355
g1199
F0.022728551336146288
sS'Constitution'
p2356
F0.022728551336146288
sg1397
F0.022728551336146288
sS'single'
p2357
F0.022728551336146288
sg1783
F0.022728551336146288
sg390
F0.022728551336146288
sg1941
F0.022728551336146288
sg1470
F0.022728551336146288
sg1247
F0.022728551336146288
sg1460
F0.022728551336146288
sS'responsible'
p2358
F0.022728551336146288
sg1152
F0.045450851695577457
sg722
F0.022728551336146288
sg765
F0.022728551336146288
sg1973
F0.022728551336146288
sS'health'
p2359
F0.022728551336146288
sg1261
F0.15906235349273332
sS'Judeo'
p2360
F0.022728551336146288
sS'good'
p2361
F0.022728551336146288
sS'year;'
p2362
F0.022728551336146288
sS'very'
p2363
F0.022728551336146288
sS'ladder'
p2364
F0.022728551336146288
sg1601
F0.022728551336146288
sg2090
F0.022728551336146288
sg1326
F0.022728551336146288
sg1700
F0.022728551336146288
sg1776
F0.022728551336146288
sS'child,'
p2365
F0.022728551336146288
sS'homeowners'
p2366
F0.045450851695577457
sg1387
F0.022728551336146288
sg1172
F0.022728551336146288
sg191
F0.022728551336146288
sg377
F0.022728551336146288
sg1246
F0.045450851695577457
sS"person's"
p2367
F0.022728551336146288
ss(S'was'
p2368
tp2369
g1
(g7
tRp2370
S'mentioned'
p2371
F0.25
sS'the'
p2372
F0.25
sS'there'
p2373
F0.25
sg1464
F0.25
ss(S'What'
p2374
S'we'
p2375
tp2376
g1
(g7
tRp2377
g1725
F1
ss(S'A'
g608
tp2378
g1
(g7
tRp2379
g1330
F1
ss(g1339
g1342
tp2380
g1
(g7
tRp2381
S'do'
p2382
F1
ss(g923
g329
tp2383
g1
(g7
tRp2384
g780
F1
ss(g2263
S'need'
p2385
tp2386
g1
(g7
tRp2387
g574
F1
ss(S'to'
p2388
S'lead'
p2389
tp2390
g1
(g7
tRp2391
S''
F1
ss(g832
tp2392
g1
(g7
tRp2393
g833
F1
ss(g1077
g1080
tp2394
g1
(g7
tRp2395
S'the'
p2396
F1
ss(S'knows'
p2397
S'that'
p2398
tp2399
g1
(g7
tRp2400
g713
F1
ss(S'one'
p2401
g362
tp2402
g1
(g7
tRp2403
S"didn't"
p2404
F1
ss(g1435
tp2405
g1
(g7
tRp2406
g1214
F0.16666666666666666
sg1203
F0.16666666666666666
sg1438
F0.16666666666666666
sg1621
F0.16666666666666666
sg488
F0.16666666666666666
sg2037
F0.16666666666666666
ss(g350
S'a'
tp2407
g1
(g7
tRp2408
g2366
F0.33333333333333331
sg2359
F0.33333333333333331
sg1172
F0.33333333333333331
ss(S'Almost'
p2409
S'$500'
p2410
tp2411
g1
(g7
tRp2412
g1149
F1
ss(g1172
tp2413
g1
(g7
tRp2414
g1175
F1
ss(g664
S'of'
p2415
tp2416
g1
(g7
tRp2417
g1673
F1
ss(g1572
g1299
tp2418
g1
(g7
tRp2419
g1016
F0.5
sS'next'
p2420
F0.5
ss(g1350
g1353
tp2421
g1
(g7
tRp2422
S'believe'
p2423
F0.33750000000000002
sg635
F0.66249999999999998
ss(g2079
g477
tp2424
g1
(g7
tRp2425
g478
F1
ss(g164
tp2426
g1
(g7
tRp2427
g1380
F1
ss(S'Donald,'
p2428
g1802
tp2429
g1
(g7
tRp2430
g1803
F1
ss(S'health'
p2431
g2257
tp2432
g1
(g7
tRp2433
g2260
F0.5
sg2206
F0.5
ss(g639
g732
tp2434
g1
(g7
tRp2435
g733
F1
ss(S'me'
p2436
S'to'
p2437
tp2438
g1
(g7
tRp2439
S'heal,'
p2440
F1
ss(S'money'
p2441
g433
tp2442
g1
(g7
tRp2443
g434
F1
ss(g1097
tp2444
g1
(g7
tRp2445
g1098
F1
ss(g1222
tp2446
g1
(g7
tRp2447
g1114
F1
ss(S'get'
p2448
S'a'
tp2449
g1
(g7
tRp2450
g2090
F0.5
sS'lot'
p2451
F0.5
ss(g547
tp2452
g1
(g7
tRp2453
g550
F1
ss(S'heading'
p2454
tp2455
g1
(g7
tRp2456
g1375
F1
ss(g1398
g353
tp2457
g1
(g7
tRp2458
g354
F1
ss(g434
g437
tp2459
g1
(g7
tRp2460
g2205
F1
ss(g780
g783
tp2461
g1
(g7
tRp2462
S'American'
p2463
F1
ss(S'describe'
p2464
S"today's"
p2465
tp2466
g1
(g7
tRp2467
g17
F1
ss(S'economy,'
p2468
tp2469
g1
(g7
tRp2470
S'which'
p2471
F1
ss(g192
tp2472
g1
(g7
tRp2473
g195
F1
ss(S'want'
p2474
S'every'
p2475
tp2476
g1
(g7
tRp2477
g731
F1
ss(g705
tp2478
g1
(g7
tRp2479
S'and'
p2480
F1
ss(g114
g117
tp2481
g1
(g7
tRp2482
g2006
F1
ss(g2428
tp2483
g1
(g7
tRp2484
g1802
F1
ss(g1720
tp2485
g1
(g7
tRp2486
S'thinks'
p2487
F1
ss(g2361
S'program'
p2488
tp2489
g1
(g7
tRp2490
S'that'
p2491
F1
ss(g151
g154
tp2492
g1
(g7
tRp2493
g1721
F1
ss(S'cost'
p2494
tp2495
g1
(g7
tRp2496
S'a'
F0.5
sS'us'
p2497
F0.5
ss(g90
g93
tp2498
g1
(g7
tRp2499
S'a'
F1
ss(g2221
g2431
tp2500
g1
(g7
tRp2501
g2257
F1
ss(g1095
g2125
tp2502
g1
(g7
tRp2503
S'can'
p2504
F1
ss(S'Obamacare'
p2505
g2029
tp2506
g1
(g7
tRp2507
g2030
F1
ss(S'solve'
p2508
tp2509
g1
(g7
tRp2510
g757
F1
ss(g1779
g1972
tp2511
g1
(g7
tRp2512
S'to'
p2513
F1
ss(S'I'
g525
tp2514
g1
(g7
tRp2515
g529
F0.33750000000000002
sg531
F0.66249999999999998
ss(g739
tp2516
g1
(g7
tRp2517
g110
F0.33750000000000002
sg385
F0.66249999999999998
ss(g443
g1679
tp2518
g1
(g7
tRp2519
g1297
F1
ss(g713
g186
tp2520
g1
(g7
tRp2521
g1999
F1
ss(g551
g554
tp2522
g1
(g7
tRp2523
S'years'
p2524
F1
ss(S'better'
p2525
g1338
tp2526
g1
(g7
tRp2527
g1339
F1
ss(g1058
tp2528
g1
(g7
tRp2529
g1059
F1
ss(g491
g2326
tp2530
g1
(g7
tRp2531
g2329
F1
ss(S'If'
S'they'
p2532
tp2533
g1
(g7
tRp2534
g336
F0.5
sS"don't"
p2535
F0.5
ss(g1213
S'China,'
p2536
tp2537
g1
(g7
tRp2538
g1162
F1
ss(g2497
S'a'
tp2539
g1
(g7
tRp2540
g1261
F1
ss(g2363
g63
tp2541
g1
(g7
tRp2542
g64
F1
ss(g878
g656
tp2543
g1
(g7
tRp2544
g659
F1
ss(g1884
g85
tp2545
g1
(g7
tRp2546
g86
F1
ss(g2465
g17
tp2547
g1
(g7
tRp2548
g21
F1
ss(g2487
tp2549
g1
(g7
tRp2550
S''
F1
ss(S'--'
p2551
S'that'
p2552
tp2553
g1
(g7
tRp2554
g708
F1
ss(g1334
tp2555
g1
(g7
tRp2556
S'an'
p2557
F0.25
sg166
F0.25
sg567
F0.25
sg1337
F0.25
ss(g1857
tp2558
g1
(g7
tRp2559
S''
F1
ss(g376
S'to'
p2560
tp2561
g1
(g7
tRp2562
S'all'
p2563
F0.20061728395061729
sS'other'
p2564
F0.39814814814814814
sg225
F0.20061728395061729
sS'people'
p2565
F0.20061728395061729
ss(g491
tp2566
g1
(g7
tRp2567
g2326
F1
ss(g803
g806
tp2568
g1
(g7
tRp2569
S'about'
p2570
F1
ss(g262
g265
tp2571
g1
(g7
tRp2572
g1563
F1
ss(g354
g357
tp2573
g1
(g7
tRp2574
S'also'
p2575
F1
ss(g338
tp2576
g1
(g7
tRp2577
g1027
F1
ss(g1363
tp2578
g1
(g7
tRp2579
g1364
F1
ss(g2389
tp2580
g1
(g7
tRp2581
S''
F1
ss(g1515
g1518
tp2582
g1
(g7
tRp2583
S'American'
p2584
F1
ss(S'NALEO,'
p2585
g1668
tp2586
g1
(g7
tRp2587
g878
F1
ss(S'horribly'
p2588
g719
tp2589
g1
(g7
tRp2590
S''
F1
ss(g2454
g1375
tp2591
g1
(g7
tRp2592
g1376
F1
ss(S'that'
p2593
g706
tp2594
g1
(g7
tRp2595
g1794
F0.19999999999999998
sg245
F0.19999999999999998
sg2274
F0.19999999999999998
sS'have'
p2596
F0.19999999999999998
sS'pay'
p2597
F0.19999999999999998
ss(g2021
g1410
tp2598
g1
(g7
tRp2599
g1411
F1
ss(g2193
tp2600
g1
(g7
tRp2601
g2196
F0.5
sg2197
F0.5
ss(g398
g401
tp2602
g1
(g7
tRp2603
S''
F1
ss(S'a'
g2357
tp2604
g1
(g7
tRp2605
g2401
F1
ss(g176
tp2606
g1
(g7
tRp2607
g179
F0.5
sg205
F0.5
ss(S'what'
p2608
S'kind'
p2609
tp2610
g1
(g7
tRp2611
S'of'
p2612
F1
ss(g2404
g530
tp2613
g1
(g7
tRp2614
S'that'
p2615
F1
ss(g2002
S'a'
tp2616
g1
(g7
tRp2617
g1601
F1
ss(S'unstable'
p2618
g555
tp2619
g1
(g7
tRp2620
g556
F1
ss(g602
tp2621
g1
(g7
tRp2622
S''
F1
ss(g1232
g985
tp2623
g1
(g7
tRp2624
g275
F1
ss(g401
tp2625
g1
(g7
tRp2626
S''
F0.33333333333333331
sg1309
F0.33333333333333331
sg1005
F0.33333333333333331
ss(g1166
tp2627
g1
(g7
tRp2628
g1167
F1
ss(g909
g1717
tp2629
g1
(g7
tRp2630
g1720
F1
ss(g1086
tp2631
g1
(g7
tRp2632
S''
F0.5
sS'to'
p2633
F0.5
ss(g1461
g1464
tp2634
g1
(g7
tRp2635
g397
F1
ss(g1338
tp2636
g1
(g7
tRp2637
g1339
F1
ss(S'I'
S'first'
p2638
tp2639
g1
(g7
tRp2640
g665
F1
ss(g2058
tp2641
g1
(g7
tRp2642
g35
F1
ss(g718
g1409
tp2643
g1
(g7
tRp2644
S'economy'
p2645
F1
ss(g2253
tp2646
g1
(g7
tRp2647
g2256
F1
ss(S'the'
p2648
g468
tp2649
g1
(g7
tRp2650
g943
F0.5
sg469
F0.5
ss(g783
tp2651
g1
(g7
tRp2652
g2463
F0.33333333333333331
sS'part'
p2653
F0.33333333333333331
sg1518
F0.33333333333333331
ss(g774
S'the'
p2654
tp2655
g1
(g7
tRp2656
g798
F0.33333333333333331
sg889
F0.33333333333333331
sS'same'
p2657
F0.33333333333333331
ss(S'We'
S'spend'
p2658
tp2659
g1
(g7
tRp2660
S'almost'
p2661
F1
ss(S'pass'
p2662
tp2663
g1
(g7
tRp2664
g2348
F1
ss(g877
S'divisiveness,'
p2665
tp2666
g1
(g7
tRp2667
S'fiscal'
p2668
F1
ss(S'whole'
p2669
S'year'
p2670
tp2671
g1
(g7
tRp2672
S''
F1
ss(g1015
tp2673
g1
(g7
tRp2674
S'is'
p2675
F1
ss(g1110
g1113
tp2676
g1
(g7
tRp2677
g1586
F1
ss(S'will'
p2678
S'look'
p2679
tp2680
g1
(g7
tRp2681
S'at'
p2682
F1
ss(g1729
g1488
tp2683
g1
(g7
tRp2684
g1489
F1
ss(g1679
g1297
tp2685
g1
(g7
tRp2686
S''
F1
ss(S"I'm"
p2687
S'a'
tp2688
g1
(g7
tRp2689
g2363
F1
ss(g2409
tp2690
g1
(g7
tRp2691
g2410
F1
ss(S'allow'
g2197
tp2692
g1
(g7
tRp2693
S'to'
p2694
F1
ss(g2131
g57
tp2695
g1
(g7
tRp2696
S''
F1
ss(g864
g867
tp2697
g1
(g7
tRp2698
S'get'
p2699
F1
ss(g1899
S'up'
p2700
tp2701
g1
(g7
tRp2702
S'from'
p2703
F1
ss(S'of'
g541
tp2704
g1
(g7
tRp2705
g542
F1
ss(S'their'
p2706
g438
tp2707
g1
(g7
tRp2708
S''
F1
ss(S'that'
p2709
g266
tp2710
g1
(g7
tRp2711
g267
F1
ss(g1136
S'going'
p2712
tp2713
g1
(g7
tRp2714
g559
F1
ss(g1298
g2653
tp2715
g1
(g7
tRp2716
S'of'
p2717
F1
ss(S'religious'
p2718
S'freedom'
p2719
tp2720
g1
(g7
tRp2721
S''
F0.5
sS'is'
p2722
F0.5
ss(g1622
g707
tp2723
g1
(g7
tRp2724
g1057
F1
ss(g746
g716
tp2725
g1
(g7
tRp2726
g2397
F1
ss(S'then'
p2727
S'all'
p2728
tp2729
g1
(g7
tRp2730
S'of'
p2731
F1
ss(g39
g42
tp2732
g1
(g7
tRp2733
g121
F1
ss(g1854
g1857
tp2734
g1
(g7
tRp2735
S''
F1
ss(g2668
S'irresponsibility,'
p2736
tp2737
g1
(g7
tRp2738
g1280
F1
ss(g1094
tp2739
g1
(g7
tRp2740
S''
F0.33750000000000002
sg478
F0.66249999999999998
ss(g982
tp2741
g1
(g7
tRp2742
g640
F1
ss(g455
tp2743
g1
(g7
tRp2744
g1354
F0.33333333333333331
sg406
F0.33333333333333331
sg1418
F0.33333333333333331
ss(g136
tp2745
g1
(g7
tRp2746
g137
F1
ss(S'And'
g2146
tp2747
g1
(g7
tRp2748
g2149
F1
ss(g1464
g397
tp2749
g1
(g7
tRp2750
g398
F1
ss(S'to'
g2564
tp2751
g1
(g7
tRp2752
g856
F0.5
sg855
F0.5
ss(g1313
g1218
tp2753
g1
(g7
tRp2754
g1219
F1
ss(S'asking'
p2755
g858
tp2756
g1
(g7
tRp2757
g859
F1
ss(S'we'
p2758
g2274
tp2759
g1
(g7
tRp2760
g2275
F1
ss(g849
g580
tp2761
g1
(g7
tRp2762
g581
F1
ss(g358
g150
tp2763
g1
(g7
tRp2764
S'the'
p2765
F0.5
sg151
F0.5
ss(S'indigent,'
p2766
tp2767
g1
(g7
tRp2768
S'how'
p2769
F1
ss(S'know,'
p2770
g1093
tp2771
g1
(g7
tRp2772
S'I'
F1
ss(S'he'
p2773
S'is'
p2774
tp2775
g1
(g7
tRp2776
S'going'
p2777
F1
ss(g2575
S'recognize'
p2778
tp2779
g1
(g7
tRp2780
S'that'
p2781
F1
ss(S'is'
p2782
g2588
tp2783
g1
(g7
tRp2784
g719
F1
ss(g592
tp2785
g1
(g7
tRp2786
g593
F1
ss(g2069
S'people'
p2787
tp2788
g1
(g7
tRp2789
S''
F1
ss(g2357
g2401
tp2790
g1
(g7
tRp2791
g362
F1
ss(g2094
g2097
tp2792
g1
(g7
tRp2793
S'have'
p2794
F1
ss(g2365
g2083
tp2795
g1
(g7
tRp2796
g1787
F1
ss(g1288
tp2797
g1
(g7
tRp2798
S'America'
p2799
F1
ss(g1195
g13
tp2800
g1
(g7
tRp2801
S''
F1
ss(g779
g666
tp2802
g1
(g7
tRp2803
g667
F1
ss(g1246
g1274
tp2804
g1
(g7
tRp2805
g1081
F1
ss(g319
S'to'
p2806
tp2807
g1
(g7
tRp2808
g2188
F1
ss(S'Chinese'
p2809
tp2810
g1
(g7
tRp2811
g788
F1
ss(g1364
tp2812
g1
(g7
tRp2813
S''
F1
ss(g1707
g1710
tp2814
g1
(g7
tRp2815
g2253
F1
ss(S'ever'
p2816
g2003
tp2817
g1
(g7
tRp2818
S''
F1
ss(g993
g996
tp2819
g1
(g7
tRp2820
S''
F1
ss(g469
tp2821
g1
(g7
tRp2822
S'real'
p2823
F0.20061728395061729
sg472
F0.39814814814814814
sg652
F0.20061728395061729
sS'kids'
p2824
F0.20061728395061729
ss(g1496
tp2825
g1
(g7
tRp2826
S'system'
p2827
F1
ss(S'facilities'
p2828
tp2829
g1
(g7
tRp2830
S'and'
p2831
F1
ss(g2766
g2769
tp2832
g1
(g7
tRp2833
g1121
F1
ss(g386
tp2834
g1
(g7
tRp2835
g389
F1
ss(g89
tp2836
g1
(g7
tRp2837
S'a'
F0.2013888888888889
sg235
F0.39930555555555558
sg1042
F0.39930555555555558
ss(g2658
g2661
tp2838
g1
(g7
tRp2839
g1840
F1
ss(S'the'
p2840
S'children'
p2841
tp2842
g1
(g7
tRp2843
g2093
F1
ss(g665
S'him'
p2844
tp2845
g1
(g7
tRp2846
g1887
F1
ss(S'nation'
p2847
S'is'
p2848
tp2849
g1
(g7
tRp2850
g2454
F1
ss(S'rights'
p2851
g2014
tp2852
g1
(g7
tRp2853
g2070
F1
ss(g1663
g848
tp2854
g1
(g7
tRp2855
g52
F1
ss(g636
g639
tp2856
g1
(g7
tRp2857
g732
F1
ss(g1731
g776
tp2858
g1
(g7
tRp2859
g779
F1
ss(g2253
g2256
tp2860
g1
(g7
tRp2861
S'that'
p2862
F1
ss(g1144
tp2863
g1
(g7
tRp2864
g196
F0.11133333333333333
sS'I'
F0.33266666666666667
sg1145
F0.11133333333333333
sg988
F0.11133333333333333
sS'the'
p2865
F0.22199999999999998
sg2687
F0.11133333333333333
ss(g1387
g1202
tp2866
g1
(g7
tRp2867
g1203
F1
ss(g718
tp2868
g1
(g7
tRp2869
g1409
F1
ss(g267
tp2870
g1
(g7
tRp2871
S''
F0.5
sg171
F0.5
ss(g1586
tp2872
g1
(g7
tRp2873
g1587
F1
ss(g1294
tp2874
g1
(g7
tRp2875
g2388
F1
ss(g789
tp2876
g1
(g7
tRp2877
S''
F1
ss(S'ago,'
p2878
S'a'
tp2879
g1
(g7
tRp2880
g1460
F1
ss(g1136
tp2881
g1
(g7
tRp2882
S''
F0.5
sg2712
F0.5
ss(S'a'
g1601
tp2883
g1
(g7
tRp2884
g381
F1
ss(g2694
S'gain'
p2885
tp2886
g1
(g7
tRp2887
S'material'
p2888
F1
ss(S'as'
p2889
g1555
tp2890
g1
(g7
tRp2891
g1556
F1
ss(g1753
tp2892
g1
(g7
tRp2893
g1756
F1
ss(g2287
S'much'
p2894
tp2895
g1
(g7
tRp2896
g2525
F1
ss(g2865
S'message'
p2897
tp2898
g1
(g7
tRp2899
S'that'
p2900
F1
ss(g2168
tp2901
g1
(g7
tRp2902
g1510
F0.025643939393939386
sS'judgments'
p2903
F0.025643939393939386
sS'people'
p2904
F0.025643939393939386
sg456
F0.025643939393939386
sg1746
F0.025643939393939386
sg893
F0.025643939393939386
sS'person'
p2905
F0.025643939393939386
sg1895
F0.025643939393939386
sg2222
F0.025643939393939386
sg1564
F0.025643939393939386
sg1130
F0.025643939393939386
sS'leader'
p2906
F0.025643939393939386
sg541
F0.025643939393939386
sg1625
F0.051278409090909076
sg2862
F0.051278409090909076
sg1607
F0.025643939393939386
sg386
F0.025643939393939386
sg2171
F0.025643939393939386
sS'a'
F0.025643939393939386
sg151
F0.025643939393939386
sg447
F0.025643939393939386
sS'dollars'
p2907
F0.025643939393939386
sg742
F0.12818181818181815
sg769
F0.025643939393939386
sg265
F0.025643939393939386
sg1869
F0.025643939393939386
sg1349
F0.17945075757575754
ss(S'registered'
p2908
g1243
tp2909
g1
(g7
tRp2910
S'a'
F1
ss(g1815
g921
tp2911
g1
(g7
tRp2912
g1977
F0.33333333333333331
sS'need'
p2913
F0.33333333333333331
sS'have'
p2914
F0.33333333333333331
ss(g913
tp2915
g1
(g7
tRp2916
g1940
F1
ss(g836
g2371
tp2917
g1
(g7
tRp2918
S''
F1
ss(g1899
tp2919
g1
(g7
tRp2920
g2700
F1
ss(S'there,'
p2921
tp2922
g1
(g7
tRp2923
S'so'
p2924
F1
ss(g1069
tp2925
g1
(g7
tRp2926
S'can'
p2927
F1
ss(g456
tp2928
g1
(g7
tRp2929
g457
F1
ss(S'is'
p2930
S'an'
p2931
tp2932
g1
(g7
tRp2933
g2618
F1
ss(g1037
tp2934
g1
(g7
tRp2935
S'and'
p2936
F1
ss(g319
tp2937
g1
(g7
tRp2938
g2806
F1
ss(g15
g2585
tp2939
g1
(g7
tRp2940
g1668
F1
ss(g465
tp2941
g1
(g7
tRp2942
S''
F1
ss(S'concerned,'
p2943
tp2944
g1
(g7
tRp2945
S'you'
p2946
F0.66249999999999998
sS'one'
p2947
F0.33750000000000002
ss(S'a'
g1326
tp2948
g1
(g7
tRp2949
g1329
F1
ss(S'I'
S'want'
p2950
tp2951
g1
(g7
tRp2952
g802
F1
ss(S'coming'
p2953
g1227
tp2954
g1
(g7
tRp2955
g1228
F1
ss(S'money'
p2956
g1158
tp2957
g1
(g7
tRp2958
g916
F1
ss(g664
tp2959
g1
(g7
tRp2960
g2415
F1
ss(g1840
g1843
tp2961
g1
(g7
tRp2962
g1544
F1
ss(g655
tp2963
g1
(g7
tRp2964
g1934
F0.5
sg1731
F0.5
ss(g1824
g1005
tp2965
g1
(g7
tRp2966
g1006
F1
ss(S'terrorist'
p2967
tp2968
g1
(g7
tRp2969
S'to'
p2970
F1
ss(g240
g243
tp2971
g1
(g7
tRp2972
g1559
F1
ss(g1265
g1268
tp2973
g1
(g7
tRp2974
S'kind'
p2975
F1
ss(g547
g550
tp2976
g1
(g7
tRp2977
S'every'
p2978
F1
ss(g2847
tp2979
g1
(g7
tRp2980
g2848
F0.5
sS'as'
p2981
F0.5
ss(g239
g337
tp2982
g1
(g7
tRp2983
S'find'
p2984
F1
ss(g888
tp2985
g1
(g7
tRp2986
S''
F0.20061728395061729
sg1919
F0.39814814814814814
sg581
F0.20061728395061729
sg2889
F0.20061728395061729
ss(g1175
S'going'
p2987
tp2988
g1
(g7
tRp2989
g2229
F1
ss(g874
g877
tp2990
g1
(g7
tRp2991
g2665
F1
ss(g1883
g1734
tp2992
g1
(g7
tRp2993
g1735
F1
ss(S'he'
p2994
S'fact'
p2995
tp2996
g1
(g7
tRp2997
S'of'
p2998
F1
ss(g1962
g1739
tp2999
g1
(g7
tRp3000
g1740
F1
ss(g1891
tp3001
g1
(g7
tRp3002
g1900
F1
ss(g2669
tp3003
g1
(g7
tRp3004
S''
F0.33333333333333331
sg1274
F0.33333333333333331
sg2670
F0.33333333333333331
ss(g1057
tp3005
g1
(g7
tRp3006
S''
F0.59722222222222221
sg1572
F0.20138888888888887
sg9
F0.20138888888888887
ss(g1284
S'many'
p3007
tp3008
g1
(g7
tRp3009
S'families'
p3010
F1
ss(S'Christian'
p3011
tp3012
g1
(g7
tRp3013
g515
F1
ss(g2464
tp3014
g1
(g7
tRp3015
g2465
F1
ss(S'Well'
p3016
tp3017
g1
(g7
tRp3018
S'first'
p3019
F1
ss(S'Israel'
p3020
S'is'
p3021
tp3022
g1
(g7
tRp3023
S'concerned,'
p3024
F1
ss(g1635
S'because'
p3025
tp3026
g1
(g7
tRp3027
g2865
F1
ss(g1329
g338
tp3028
g1
(g7
tRp3029
g1027
F1
ss(S'that,'
p3030
g1730
tp3031
g1
(g7
tRp3032
g1731
F1
ss(g2002
tp3033
g1
(g7
tRp3034
S'a'
F1
ss(g959
tp3035
g1
(g7
tRp3036
S'that'
p3037
F1
ss(g1082
g1085
tp3038
g1
(g7
tRp3039
S'a'
F1
ss(g2335
tp3040
g1
(g7
tRp3041
g2336
F1
ss(g1239
g1242
tp3042
g1
(g7
tRp3043
g1913
F1
ss(g828
g831
tp3044
g1
(g7
tRp3045
g1287
F1
ss(g2787
tp3046
g1
(g7
tRp3047
S''
F0.39962635869565222
sg1353
F0.19989809782608697
sg803
F0.066745923913043487
sg621
F0.066745923913043487
sg985
F0.066745923913043487
sg2953
F0.066745923913043487
sg1431
F0.066745923913043487
sg1062
F0.066745923913043487
ss(g2943
g2947
tp3048
g1
(g7
tRp3049
S'of'
p3050
F1
ss(g373
tp3051
g1
(g7
tRp3052
g2894
F0.5
sg376
F0.5
ss(g760
g764
tp3053
g1
(g7
tRp3054
S'I'
F1
ss(g1783
tp3055
g1
(g7
tRp3056
g1786
F1
ss(g953
g959
tp3057
g1
(g7
tRp3058
g3037
F1
ss(g2806
g2188
tp3059
g1
(g7
tRp3060
g2191
F1
ss(g2336
g1288
tp3061
g1
(g7
tRp3062
g2799
F1
ss(S'gives'
p3063
S'you'
p3064
tp3065
g1
(g7
tRp3066
S'enormous'
p3067
F1
ss(g137
g140
tp3068
g1
(g7
tRp3069
g1621
F0.33333333333333331
sg488
F0.33333333333333331
sg1214
F0.33333333333333331
ss(g2809
g788
tp3070
g1
(g7
tRp3071
g789
F1
ss(g414
tp3072
g1
(g7
tRp3073
g417
F1
ss(S'Well,'
p3074
tp3075
g1
(g7
tRp3076
S'first'
p3077
F1
ss(g2036
S'get'
p3078
tp3079
g1
(g7
tRp3080
S'a'
F1
ss(g1473
g863
tp3081
g1
(g7
tRp3082
g864
F1
ss(S'They'
p3083
tp3084
g1
(g7
tRp3085
g2113
F0.33333333333333331
sS'can'
p3086
F0.33333333333333331
sS'have'
p3087
F0.33333333333333331
ss(g2273
tp3088
g1
(g7
tRp3089
S'I'
F0.33333333333333331
sS'a'
F0.33333333333333331
sg1527
F0.33333333333333331
ss(g1406
g2239
tp3090
g1
(g7
tRp3091
g2242
F1
ss(S'Court'
p3092
tp3093
g1
(g7
tRp3094
S'has'
p3095
F1
ss(g617
g620
tp3096
g1
(g7
tRp3097
g2930
F1
ss(g1843
g1544
tp3098
g1
(g7
tRp3099
g307
F1
ss(S'the'
p3100
g570
tp3101
g1
(g7
tRp3102
g573
F1
ss(g1059
g1062
tp3103
g1
(g7
tRp3104
S'a'
F1
ss(g294
tp3105
g1
(g7
tRp3106
g295
F1
ss(g1644
g1065
tp3107
g1
(g7
tRp3108
g1066
F1
ss(S'the'
p3109
S'same'
p3110
tp3111
g1
(g7
tRp3112
g2161
F0.19999999999999998
sg452
F0.19999999999999998
sg2316
F0.19999999999999998
sS'dollars'
p3113
F0.19999999999999998
sg2851
F0.19999999999999998
ss(S'a'
g1397
tp3114
g1
(g7
tRp3115
g1398
F1
ss(S'all,'
S'I'
tp3116
g1
(g7
tRp3117
g2950
F1
ss(g2051
g2474
tp3118
g1
(g7
tRp3119
g1265
F0.25
sS'to'
p3120
F0.25
sg2475
F0.25
sS'your'
p3121
F0.25
ss(S'honest'
p3122
g1618
tp3123
g1
(g7
tRp3124
S'we'
p3125
F1
ss(g1826
g1829
tp3126
g1
(g7
tRp3127
g2309
F1
ss(g848
g52
tp3128
g1
(g7
tRp3129
g1493
F1
ss(g1809
g681
tp3130
g1
(g7
tRp3131
g682
F1
ss(g1090
g1095
tp3132
g1
(g7
tRp3133
g2125
F1
ss(g339
tp3134
g1
(g7
tRp3135
g340
F1
ss(g1203
g1206
tp3136
g1
(g7
tRp3137
g26
F1
ss(g630
tp3138
g1
(g7
tRp3139
g631
F1
ss(g425
tp3140
g1
(g7
tRp3141
g699
F1
ss(S'this'
p3142
tp3143
g1
(g7
tRp3144
g1513
F0.20061728395061729
sg1761
F0.20061728395061729
sS'is'
p3145
F0.39814814814814814
sg989
F0.20061728395061729
ss(g1883
tp3146
g1
(g7
tRp3147
g1734
F0.5
sg118
F0.5
ss(g913
g1940
tp3148
g1
(g7
tRp3149
g1179
F1
ss(g106
tp3150
g1
(g7
tRp3151
g107
F1
ss(S'OK,'
p3152
g511
tp3153
g1
(g7
tRp3154
g514
F1
ss(g414
g417
tp3155
g1
(g7
tRp3156
g2222
F1
ss(g859
g862
tp3157
g1
(g7
tRp3158
g1269
F1
ss(g1528
g1531
tp3159
g1
(g7
tRp3160
g1809
F1
ss(g2242
g326
tp3161
g1
(g7
tRp3162
g331
F0.5
sg2293
F0.5
ss(S'have'
p3163
S'divided'
p3164
tp3165
g1
(g7
tRp3166
S'government'
p3167
F1
ss(g254
g257
tp3168
g1
(g7
tRp3169
g2082
F1
ss(S''
tp3170
g1
(g7
tRp3171
S''
F0
sg2374
F0.04166636616902842
sg1853
F0.008333612619373567
sg974
F0.008333612619373567
sg146
F0.008333612619373567
sS"I'm"
p3172
F0.008333612619373567
sS'You'
p3173
F0.04166636616902842
sg3152
F0.008333612619373567
sS'We'
p3174
F0.099998684880924421
sg931
F0.024999989394200992
sS"What's"
p3175
F0.008333612619373567
sg1945
F0.008333612619373567
sS'But'
p3176
F0.066665931331269551
sg141
F0.008333612619373567
sS'Medicaid'
p3177
F0.008333612619373567
sg3083
F0.024999989394200992
sS'you'
p3178
F0.008333612619373567
sS'Now'
p3179
F0.008333612619373567
sS'A'
F0.016666801006787278
sS'And,'
p3180
F0.008333612619373567
sS'I'
F0.074999119718683269
sg3016
F0.016666801006787278
sS'So'
p3181
F0.024999989394200992
sg1683
F0.008333612619373567
sS'Also,'
p3182
F0.008333612619373567
sS'Marco,'
p3183
F0.008333612619373567
sS'The'
p3184
F0.016666801006787278
sg1821
F0.008333612619373567
sg832
F0.008333612619373567
sg612
F0.008333612619373567
sg551
F0.008333612619373567
sg674
F0.016666801006787278
sg1752
F0.23332969907954382
sS'OK'
p3185
F0.016666801006787278
sg2409
F0.008333612619373567
sS'Over'
p3186
F0.008333612619373567
sS'It'
p3187
F0.033333177781614709
sS'One'
p3188
F0.008333612619373567
sg3074
F0.016666801006787278
sg2158
F0.008333612619373567
sS'Americans'
p3189
F0.008333612619373567
sS'If'
p3190
F0.033333177781614709
ss(g2171
tp3191
g1
(g7
tRp3192
g874
F1
ss(S'way,'
p3193
tp3194
g1
(g7
tRp3195
g2198
F1
ss(g371
S'we'
p3196
tp3197
g1
(g7
tRp3198
S'need'
p3199
F1
ss(g1333
tp3200
g1
(g7
tRp3201
g1334
F1
ss(g647
g982
tp3202
g1
(g7
tRp3203
g640
F1
ss(g2044
tp3204
g1
(g7
tRp3205
g439
F1
ss(g1524
S'I'
tp3206
g1
(g7
tRp3207
g2368
F1
ss(g2366
tp3208
g1
(g7
tRp3209
g501
F1
ss(g1290
tp3210
g1
(g7
tRp3211
g2312
F1
ss(g519
g1016
tp3212
g1
(g7
tRp3213
g1017
F1
ss(S'who'
p3214
g1275
tp3215
g1
(g7
tRp3216
g2766
F0.33333333333333331
sg636
F0.33333333333333331
sg1276
F0.33333333333333331
ss(S'--'
p3217
g1089
tp3218
g1
(g7
tRp3219
g1090
F1
ss(g889
tp3220
g1
(g7
tRp3221
g890
F0.5
sg378
F0.5
ss(g859
tp3222
g1
(g7
tRp3223
g862
F1
ss(g3175
tp3224
g1
(g7
tRp3225
S'the'
p3226
F1
ss(g1876
tp3227
g1
(g7
tRp3228
g1423
F1
ss(g1359
tp3229
g1
(g7
tRp3230
g809
F0.25
sg1981
F0.25
sS'for'
p3231
F0.25
sg1362
F0.25
ss(g1057
g9
tp3232
g1
(g7
tRp3233
g15
F1
ss(g975
g230
tp3234
g1
(g7
tRp3235
g231
F1
ss(g2351
g495
tp3236
g1
(g7
tRp3237
g333
F1
ss(g1568
tp3238
g1
(g7
tRp3239
g1569
F1
ss(g996
tp3240
g1
(g7
tRp3241
S''
F1
ss(S'of'
p3242
g1895
tp3243
g1
(g7
tRp3244
g1896
F1
ss(g473
g476
tp3245
g1
(g7
tRp3246
S'do'
p3247
F1
ss(g205
g208
tp3248
g1
(g7
tRp3249
g1590
F1
ss(g1500
g1298
tp3250
g1
(g7
tRp3251
g2653
F1
ss(g1734
tp3252
g1
(g7
tRp3253
S''
F0.5
sg1735
F0.5
ss(g575
g578
tp3254
g1
(g7
tRp3255
S'here'
p3256
F1
ss(g3181
S'nobody'
p3257
tp3258
g1
(g7
tRp3259
g406
F1
ss(g2638
g665
tp3260
g1
(g7
tRp3261
g2844
F1
ss(g1996
g1990
tp3262
g1
(g7
tRp3263
S'I'
F1
ss(g2093
tp3264
g1
(g7
tRp3265
g2094
F1
ss(g438
tp3266
g1
(g7
tRp3267
S''
F0.5
sg1880
F0.5
ss(S'talents'
p3268
tp3269
g1
(g7
tRp3270
S'as'
p3271
F1
ss(g1042
tp3272
g1
(g7
tRp3273
g1043
F1
ss(g1034
tp3274
g1
(g7
tRp3275
S'months'
p3276
F0.5
sg2524
F0.5
ss(g2280
S'I'
tp3277
g1
(g7
tRp3278
S'spoke'
p3279
F1
ss(S'or'
p3280
S'uncle'
p3281
tp3282
g1
(g7
tRp3283
S''
F1
ss(g295
g106
tp3284
g1
(g7
tRp3285
g107
F1
ss(g2824
g1394
tp3286
g1
(g7
tRp3287
g103
F1
ss(g362
g2404
tp3288
g1
(g7
tRp3289
g530
F1
ss(g560
g563
tp3290
g1
(g7
tRp3291
g332
F1
ss(S'It'
S"doesn't"
p3292
tp3293
g1
(g7
tRp3294
g2164
F1
ss(g440
tp3295
g1
(g7
tRp3296
g443
F1
ss(g234
g2065
tp3297
g1
(g7
tRp3298
g2066
F1
ss(g1686
g2058
tp3299
g1
(g7
tRp3300
g35
F1
ss(S'the'
p3301
g2956
tp3302
g1
(g7
tRp3303
g1158
F1
ss(g3164
g3167
tp3304
g1
(g7
tRp3305
S''
F1
ss(g1210
g1213
tp3306
g1
(g7
tRp3307
g2536
F1
ss(g2046
tp3308
g1
(g7
tRp3309
g1713
F1
ss(g293
S'the'
p3310
tp3311
g1
(g7
tRp3312
S'$1,500'
p3313
F1
ss(S'We'
S'are'
p3314
tp3315
g1
(g7
tRp3316
S'compassionate'
p3317
F1
ss(g2831
g1285
tp3318
g1
(g7
tRp3319
g3268
F1
ss(g428
g2128
tp3320
g1
(g7
tRp3321
S''
F1
ss(g2557
g2279
tp3322
g1
(g7
tRp3323
g2280
F1
ss(g111
S'I'
tp3324
g1
(g7
tRp3325
S'would'
p3326
F1
ss(S'system'
p3327
g1155
tp3328
g1
(g7
tRp3329
g1607
F1
ss(g2848
g2454
tp3330
g1
(g7
tRp3331
g1375
F1
ss(g1735
tp3332
g1
(g7
tRp3333
g1738
F1
ss(g2256
g2862
tp3334
g1
(g7
tRp3335
g506
F0.5
sg717
F0.5
ss(g530
g2615
tp3336
g1
(g7
tRp3337
g244
F1
ss(S'the'
p3338
g889
tp3339
g1
(g7
tRp3340
g890
F1
ss(g1376
g1379
tp3341
g1
(g7
tRp3342
g2168
F1
ss(g2135
g2138
tp3343
g1
(g7
tRp3344
S'a'
F1
ss(g1231
tp3345
g1
(g7
tRp3346
S'America'
p3347
F0.66249999999999998
sS'Korea'
p3348
F0.33750000000000002
ss(g1440
tp3349
g1
(g7
tRp3350
g1443
F1
ss(g2827
g1156
tp3351
g1
(g7
tRp3352
S'will'
p3353
F1
ss(g1651
g1144
tp3354
g1
(g7
tRp3355
g1145
F1
ss(g2585
tp3356
g1
(g7
tRp3357
g1668
F1
ss(g1887
tp3358
g1
(g7
tRp3359
S'I'
F0.16697588126159554
sS''
F0.16697588126159554
sg1888
F0.33209647495361783
sg31
F0.16697588126159554
sg495
F0.16697588126159554
ss(g1279
g2118
tp3360
g1
(g7
tRp3361
g792
F1
ss(g2700
tp3362
g1
(g7
tRp3363
g2703
F1
ss(g528
S'me'
p3364
tp3365
g1
(g7
tRp3366
g1316
F1
ss(g2082
g1283
tp3367
g1
(g7
tRp3368
g817
F1
ss(S'They'
g3086
tp3369
g1
(g7
tRp3370
g2662
F1
ss(g1812
tp3371
g1
(g7
tRp3372
S'I'
F0.33333333333333331
sg1346
F0.33333333333333331
sg1730
F0.33333333333333331
ss(g2398
g713
tp3373
g1
(g7
tRp3374
g186
F1
ss(g890
g893
tp3375
g1
(g7
tRp3376
g2174
F1
ss(g1090
tp3377
g1
(g7
tRp3378
g3142
F0.090909090909090925
sg2052
F0.090909090909090925
sg616
F0.090909090909090925
sS'I'
F0.090909090909090925
sg1023
F0.090909090909090925
sg1093
F0.090909090909090925
sg1094
F0.090909090909090925
sg1095
F0.090909090909090925
sg90
F0.090909090909090925
sg1096
F0.090909090909090925
sg180
F0.090909090909090925
ss(g3186
S'$5,000'
p3379
tp3380
g1
(g7
tRp3381
g1959
F1
ss(g3292
tp3382
g1
(g7
tRp3383
g2164
F1
ss(g326
g331
tp3384
g1
(g7
tRp3385
S''
F0.33333333333333331
sS'the'
p3386
F0.33333333333333331
sS'an'
p3387
F0.33333333333333331
ss(g245
g166
tp3388
g1
(g7
tRp3389
g167
F1
ss(g710
g825
tp3390
g1
(g7
tRp3391
g1547
F1
ss(S'birth'
p3392
S'until'
p3393
tp3394
g1
(g7
tRp3395
S'death'
p3396
F1
ss(S'appropriate'
p3397
tp3398
g1
(g7
tRp3399
g3193
F1
ss(g1453
tp3400
g1
(g7
tRp3401
g1454
F1
ss(S'to'
p3402
g2464
tp3403
g1
(g7
tRp3404
g2465
F1
ss(g140
g1621
tp3405
g1
(g7
tRp3406
g1622
F1
ss(S'life'
p3407
S'has'
p3408
tp3409
g1
(g7
tRp3410
g1209
F1
ss(S"don't"
p3411
g2044
tp3412
g1
(g7
tRp3413
g439
F1
ss(g3177
tp3414
g1
(g7
tRp3415
S''
F0.66249999999999998
sg5
F0.33750000000000002
ss(g851
tp3416
g1
(g7
tRp3417
g1523
F1
ss(g2362
S'one'
p3418
tp3419
g1
(g7
tRp3420
g361
F1
ss(g1337
g3402
tp3421
g1
(g7
tRp3422
g2464
F1
ss(S'think'
g922
tp3423
g1
(g7
tRp3424
g2967
F1
ss(g1334
g1337
tp3425
g1
(g7
tRp3426
g3402
F1
ss(S'exactly'
p3427
g3109
tp3428
g1
(g7
tRp3429
g3110
F1
ss(g393
tp3430
g1
(g7
tRp3431
g394
F1
ss(g3184
g413
tp3432
g1
(g7
tRp3433
g414
F1
ss(g857
tp3434
g1
(g7
tRp3435
g2283
F1
ss(g77
g80
tp3436
g1
(g7
tRp3437
g2037
F1
ss(g71
S'anymore'
p3438
tp3439
g1
(g7
tRp3440
S''
F1
ss(g1373
g531
tp3441
g1
(g7
tRp3442
g978
F1
ss(g1309
g2436
tp3443
g1
(g7
tRp3444
g2437
F1
ss(g2017
tp3445
g1
(g7
tRp3446
S'be'
p3447
F0.14275555555555558
sg2679
F0.071466666666666678
sg1357
F0.071466666666666678
sg2448
F0.071466666666666678
sg2193
F0.14275555555555558
sg738
F0.071466666666666678
sg1254
F0.071466666666666678
sg2021
F0.071466666666666678
sg2020
F0.071466666666666678
sg1450
F0.071466666666666678
sg1126
F0.14275555555555558
ss(g2504
S'secure'
p3448
tp3449
g1
(g7
tRp3450
S'the'
p3451
F1
ss(S'talk'
p3452
g952
tp3453
g1
(g7
tRp3454
g712
F1
ss(g793
g444
tp3455
g1
(g7
tRp3456
S''
F1
ss(g930
g1782
tp3457
g1
(g7
tRp3458
S'same'
p3459
F1
ss(g1137
g22
tp3460
g1
(g7
tRp3461
g25
F1
ss(g2994
tp3462
g1
(g7
tRp3463
g2774
F0.16697588126159554
sg59
F0.16697588126159554
sg1999
F0.33209647495361783
sg2397
F0.16697588126159554
sg2995
F0.16697588126159554
ss(g607
S'wit'
p3464
tp3465
g1
(g7
tRp3466
S'and'
p3467
F1
ss(g71
tp3468
g1
(g7
tRp3469
g3438
F1
ss(S'away'
p3470
S'with'
p3471
tp3472
g1
(g7
tRp3473
g1980
F1
ss(g1869
tp3474
g1
(g7
tRp3475
g1870
F1
ss(g917
g920
tp3476
g1
(g7
tRp3477
g2593
F1
ss(S'to'
p3478
g2084
tp3479
g1
(g7
tRp3480
g2087
F1
ss(g1798
g1312
tp3481
g1
(g7
tRp3482
S''
F0.20238095238095236
sg1791
F0.79761904761904756
ss(S'have'
g956
tp3483
g1
(g7
tRp3484
S'missiles,'
p3485
F1
ss(g1523
tp3486
g1
(g7
tRp3487
g1524
F1
ss(g3188
g1551
tp3488
g1
(g7
tRp3489
g1552
F1
ss(g389
S'of'
p3490
tp3491
g1
(g7
tRp3492
S'the'
p3493
F1
ss(S'they'
p3494
g330
tp3495
g1
(g7
tRp3496
S''
F1
ss(g47
g2351
tp3497
g1
(g7
tRp3498
g495
F1
ss(g733
g736
tp3499
g1
(g7
tRp3500
S'after'
p3501
F1
ss(g1409
g2645
tp3502
g1
(g7
tRp3503
g2921
F1
ss(g2475
g731
tp3504
g1
(g7
tRp3505
g1638
F1
ss(g1870
g372
tp3506
g1
(g7
tRp3507
g507
F0.19999999999999998
sg3025
F0.19999999999999998
sS'necessary'
p3508
F0.19999999999999998
sg2588
F0.19999999999999998
sg373
F0.19999999999999998
ss(g3176
tp3509
g1
(g7
tRp3510
g1012
F0.125
sS'do'
p3511
F0.125
sg1909
F0.125
sS'I'
F0.125
sS'we'
p3512
F0.125
sg1097
F0.125
sS'in'
p3513
F0.125
sg2994
F0.125
ss(g1904
g894
tp3514
g1
(g7
tRp3515
S'a'
F1
ss(S'be'
p3516
g1223
tp3517
g1
(g7
tRp3518
g1226
F1
ss(g126
tp3519
g1
(g7
tRp3520
g1962
F1
ss(S'I'
g1818
tp3521
g1
(g7
tRp3522
S'a'
F1
ss(S'all,'
g888
tp3523
g1
(g7
tRp3524
g1919
F1
ss(g893
tp3525
g1
(g7
tRp3526
g2174
F1
ss(g229
g528
tp3527
g1
(g7
tRp3528
g3364
F1
ss(g1172
g1175
tp3529
g1
(g7
tRp3530
g2987
F1
ss(g170
g500
tp3531
g1
(g7
tRp3532
S'Israel'
p3533
F1
ss(g538
g81
tp3534
g1
(g7
tRp3535
g84
F1
ss(g554
g2524
tp3536
g1
(g7
tRp3537
g2878
F1
ss(g1686
tp3538
g1
(g7
tRp3539
g2058
F1
ss(g598
tp3540
g1
(g7
tRp3541
S''
F1
ss(g413
tp3542
g1
(g7
tRp3543
g414
F1
ss(S'naval'
p3544
g2046
tp3545
g1
(g7
tRp3546
g1713
F1
ss(g1418
g1367
tp3547
g1
(g7
tRp3548
g1368
F1
ss(g2844
g1887
tp3549
g1
(g7
tRp3550
g1888
F1
ss(S'pay'
p3551
g1663
tp3552
g1
(g7
tRp3553
g849
F0.5
sg848
F0.5
ss(g1082
tp3554
g1
(g7
tRp3555
g1085
F1
ss(g205
tp3556
g1
(g7
tRp3557
g1950
F0.33333333333333331
sg393
F0.33333333333333331
sg208
F0.33333333333333331
ss(g1950
S'I'
tp3558
g1
(g7
tRp3559
S'would'
p3560
F1
ss(g2306
g16
tp3561
g1
(g7
tRp3562
g2823
F1
ss(g2007
tp3563
g1
(g7
tRp3564
g745
F1
ss(g132
g135
tp3565
g1
(g7
tRp3566
g2193
F0.66249999999999998
sg2448
F0.33750000000000002
ss(S'everybody'
p3567
g324
tp3568
g1
(g7
tRp3569
g3392
F1
ss(g2069
tp3570
g1
(g7
tRp3571
g1657
F0.33333333333333331
sg473
F0.33333333333333331
sg2787
F0.33333333333333331
ss(g1076
g1210
tp3572
g1
(g7
tRp3573
g1213
F1
ss(g2239
g2242
tp3574
g1
(g7
tRp3575
g326
F1
ss(S'we'
g218
tp3576
g1
(g7
tRp3577
S'need'
p3578
F1
ss(g3182
tp3579
g1
(g7
tRp3580
g2648
F1
ss(g2765
g2108
tp3581
g1
(g7
tRp3582
g2152
F1
ss(S'a'
g722
tp3583
g1
(g7
tRp3584
g725
F1
ss(g1892
S'the'
p3585
tp3586
g1
(g7
tRp3587
g2468
F1
ss(g2908
tp3588
g1
(g7
tRp3589
g1243
F1
ss(g1397
tp3590
g1
(g7
tRp3591
g1398
F0.5
sg1219
F0.5
ss(g357
g2575
tp3592
g1
(g7
tRp3593
g2778
F1
ss(g3447
g1315
tp3594
g1
(g7
tRp3595
S'a'
F1
ss(g2718
tp3596
g1
(g7
tRp3597
g2719
F1
ss(g2451
g1957
tp3598
g1
(g7
tRp3599
g2232
F1
ss(g58
g3427
tp3600
g1
(g7
tRp3601
g3109
F1
ss(g3379
g1959
tp3602
g1
(g7
tRp3603
g850
F1
ss(g2357
tp3604
g1
(g7
tRp3605
g2401
F1
ss(S'of'
g2905
tp3606
g1
(g7
tRp3607
S'do'
p3608
F1
ss(g2171
g874
tp3609
g1
(g7
tRp3610
g877
F1
ss(g1460
tp3611
g1
(g7
tRp3612
g1461
F1
ss(g230
tp3613
g1
(g7
tRp3614
S''
F0.10004349717268379
sS'Israel'
p3615
F0.10004349717268379
sg231
F0.10004349717268379
sg2298
F0.19965202261852985
sg398
F0.10004349717268379
sg2153
F0.10004349717268379
sg2608
F0.10004349717268379
sg1317
F0.10004349717268379
sg2066
F0.10004349717268379
ss(S'shift'
p3616
g2441
tp3617
g1
(g7
tRp3618
g433
F1
ss(g3276
g1873
tp3619
g1
(g7
tRp3620
S'I'
F1
ss(g959
g3037
tp3621
g1
(g7
tRp3622
g714
F1
ss(g2396
g2809
tp3623
g1
(g7
tRp3624
g788
F1
ss(g2303
g452
tp3625
g1
(g7
tRp3626
g455
F1
ss(S'would'
p3627
g1905
tp3628
g1
(g7
tRp3629
g1908
F1
ss(S'And'
S'you'
p3630
tp3631
g1
(g7
tRp3632
g204
F1
ss(g1080
g2396
tp3633
g1
(g7
tRp3634
g2809
F1
ss(g1312
tp3635
g1
(g7
tRp3636
S''
F0.1683673469387755
sg2560
F0.83163265306122447
ss(S'We'
g1439
tp3637
g1
(g7
tRp3638
g1440
F1
ss(g2070
g325
tp3639
g1
(g7
tRp3640
S''
F0.5
sg692
F0.5
ss(g1644
tp3641
g1
(g7
tRp3642
g1065
F1
ss(g706
g1794
tp3643
g1
(g7
tRp3644
S''
F0.33333333333333331
sg27
F0.33333333333333331
sg1795
F0.33333333333333331
ss(S'to'
p3645
g1728
tp3646
g1
(g7
tRp3647
S'all'
p3648
F1
ss(g3037
g714
tp3649
g1
(g7
tRp3650
g2551
F1
ss(g2209
g183
tp3651
g1
(g7
tRp3652
g1038
F1
ss(g3427
tp3653
g1
(g7
tRp3654
g3109
F1
ss(g3189
tp3655
g1
(g7
tRp3656
g2290
F1
ss(g2897
tp3657
g1
(g7
tRp3658
g1176
F0.5
sg2900
F0.5
ss(g1325
g710
tp3659
g1
(g7
tRp3660
g825
F1
ss(g934
g1126
tp3661
g1
(g7
tRp3662
g1129
F1
ss(g1941
g1944
tp3663
g1
(g7
tRp3664
g648
F1
ss(g2657
g2316
tp3665
g1
(g7
tRp3666
g1176
F1
ss(S'would'
p3667
S'go'
p3668
tp3669
g1
(g7
tRp3670
g1140
F1
ss(g2570
g2608
tp3671
g1
(g7
tRp3672
g2609
F1
ss(S'place'
p3673
tp3674
g1
(g7
tRp3675
S'with'
p3676
F1
ss(g1651
tp3677
g1
(g7
tRp3678
g1144
F1
ss(g2497
tp3679
g1
(g7
tRp3680
S'a'
F0.25
sg2694
F0.25
sg1559
F0.25
sg357
F0.25
ss(S'can'
p3681
S'have'
p3682
tp3683
g1
(g7
tRp3684
g3301
F1
ss(g2198
tp3685
g1
(g7
tRp3686
S'a'
F0.25
sg2199
F0.25
sg3281
F0.25
sg1081
F0.25
ss(g363
g366
tp3687
g1
(g7
tRp3688
S'lives'
p3689
F1
ss(g2612
g2906
tp3690
g1
(g7
tRp3691
g1926
F1
ss(S'I'
g2678
tp3692
g1
(g7
tRp3693
g2679
F1
ss(g593
g596
tp3694
g1
(g7
tRp3695
g185
F1
ss(g312
g315
tp3696
g1
(g7
tRp3697
g2298
F1
ss(g425
g699
tp3698
g1
(g7
tRp3699
S'it'
p3700
F1
ss(g1438
g2953
tp3701
g1
(g7
tRp3702
g1227
F1
ss(g2508
g757
tp3703
g1
(g7
tRp3704
g584
F1
ss(g3317
tp3705
g1
(g7
tRp3706
S''
F1
ss(g102
g1102
tp3707
g1
(g7
tRp3708
g1103
F1
ss(g1031
g564
tp3709
g1
(g7
tRp3710
g270
F1
ss(g3110
tp3711
g1
(g7
tRp3712
g2161
F0.19999999999999998
sg452
F0.19999999999999998
sg2316
F0.19999999999999998
sg3113
F0.19999999999999998
sg2851
F0.19999999999999998
ss(S'choices'
p3713
tp3714
g1
(g7
tRp3715
S'that'
p3716
F1
ss(g2197
g2694
tp3717
g1
(g7
tRp3718
g2885
F1
ss(g764
tp3719
g1
(g7
tRp3720
S'I'
F1
ss(g2488
g2491
tp3721
g1
(g7
tRp3722
g709
F1
ss(g3544
tp3723
g1
(g7
tRp3724
g2046
F1
ss(g726
g344
tp3725
g1
(g7
tRp3726
S''
F1
ss(S'but'
p3727
tp3728
g1
(g7
tRp3729
g1031
F0.14285714285714288
sg106
F0.14285714285714288
sg2575
F0.14285714285714288
sg563
F0.14285714285714288
sg2097
F0.14285714285714288
sg2396
F0.14285714285714288
sg304
F0.14285714285714288
ss(S'robust'
p3730
tp3731
g1
(g7
tRp3732
g3544
F1
ss(g2463
g473
tp3733
g1
(g7
tRp3734
g476
F1
ss(g1606
g44
tp3735
g1
(g7
tRp3736
S''
F1
ss(g451
tp3737
g1
(g7
tRp3738
g1006
F0.5
sg1239
F0.5
ss(g3086
g2662
tp3739
g1
(g7
tRp3740
g2348
F1
ss(g1756
tp3741
g1
(g7
tRp3742
S'described'
p3743
F1
ss(g3448
g3451
tp3744
g1
(g7
tRp3745
g1923
F1
ss(g2043
g2263
tp3746
g1
(g7
tRp3747
g2385
F1
ss(S'all,'
g887
tp3748
g1
(g7
tRp3749
g621
F1
ss(g1497
g3113
tp3750
g1
(g7
tRp3751
S'that'
p3752
F1
ss(S'him'
p3753
g1697
tp3754
g1
(g7
tRp3755
S'a'
F1
ss(S'And'
S'they'
p3756
tp3757
g1
(g7
tRp3758
S"didn't"
p3759
F1
ss(S'I'
S'never'
p3760
tp3761
g1
(g7
tRp3762
S'had'
p3763
F1
ss(g1994
tp3764
g1
(g7
tRp3765
S'a'
F0.5
sg1444
F0.5
ss(g2552
g708
tp3766
g1
(g7
tRp3767
g775
F1
ss(S'know,'
p3768
g3142
tp3769
g1
(g7
tRp3770
g3145
F1
ss(S'only'
p3771
tp3772
g1
(g7
tRp3773
g1707
F0.25
sg461
F0.25
sg1829
F0.25
sg358
F0.25
ss(g361
g749
tp3774
g1
(g7
tRp3775
S'a'
F1
ss(g960
g609
tp3776
g1
(g7
tRp3777
g294
F1
ss(g1994
S'a'
tp3778
g1
(g7
tRp3779
g283
F1
ss(g3511
S'the'
p3780
tp3781
g1
(g7
tRp3782
g258
F1
ss(S'the'
p3783
g159
tp3784
g1
(g7
tRp3785
g163
F0.5
sg165
F0.5
ss(g1280
g1294
tp3786
g1
(g7
tRp3787
g2388
F1
ss(g1892
tp3788
g1
(g7
tRp3789
g3585
F1
ss(g410
tp3790
g1
(g7
tRp3791
S'things'
p3792
F1
ss(g3190
g1333
tp3793
g1
(g7
tRp3794
g1334
F1
ss(g2468
g2471
tp3795
g1
(g7
tRp3796
S'I'
F1
ss(g681
tp3797
g1
(g7
tRp3798
g927
F0.062506976225025102
sg1228
F0.062506976225025102
sg682
F0.062506976225025102
sg1714
F0.062506976225025102
sg1760
F0.062506976225025102
sg1453
F0.062506976225025102
sg828
F0.062506976225025102
sS'an'
p3799
F0.062506976225025102
sg30
F0.062506976225025102
sg3673
F0.062506976225025102
sg864
F0.12490233284964838
sg666
F0.062506976225025102
sg1427
F0.062506976225025102
sg1102
F0.062506976225025102
sg1759
F0.062506976225025102
ss(g2906
tp3800
g1
(g7
tRp3801
g1926
F1
ss(g1772
tp3802
g1
(g7
tRp3803
g3730
F0.33333333333333331
sg1775
F0.33333333333333331
sg482
F0.33333333333333331
ss(g833
tp3804
g1
(g7
tRp3805
g836
F1
ss(g655
g1934
tp3806
g1
(g7
tRp3807
S'to'
p3808
F1
ss(g806
g2570
tp3809
g1
(g7
tRp3810
g2608
F1
ss(g2575
tp3811
g1
(g7
tRp3812
g3578
F0.5
sg2778
F0.5
ss(g371
tp3813
g1
(g7
tRp3814
g3196
F1
ss(g1799
g820
tp3815
g1
(g7
tRp3816
S''
F1
ss(g1745
S'I'
tp3817
g1
(g7
tRp3818
S'believe'
p3819
F0.33333333333333331
sS'think'
p3820
F0.33333333333333331
sg3627
F0.33333333333333331
ss(g1496
g2827
tp3821
g1
(g7
tRp3822
g1156
F1
ss(g1714
g705
tp3823
g1
(g7
tRp3824
g2480
F1
ss(g184
g221
tp3825
g1
(g7
tRp3826
g224
F1
ss(g1880
g1883
tp3827
g1
(g7
tRp3828
g1734
F1
ss(S'about'
g3615
tp3829
g1
(g7
tRp3830
S''
F1
ss(g2661
g1840
tp3831
g1
(g7
tRp3832
g1843
F1
ss(g722
g725
tp3833
g1
(g7
tRp3834
g1185
F1
ss(g1379
tp3835
g1
(g7
tRp3836
g2168
F1
ss(g1803
g1806
tp3837
g1
(g7
tRp3838
g2017
F1
ss(g2658
tp3839
g1
(g7
tRp3840
g2661
F1
ss(g3396
tp3841
g1
(g7
tRp3842
S''
F1
ss(g16
g2823
tp3843
g1
(g7
tRp3844
g187
F1
ss(g2058
g35
tp3845
g1
(g7
tRp3846
g38
F1
ss(g3175
g3226
tp3847
g1
(g7
tRp3848
g4
F1
ss(g528
tp3849
g1
(g7
tRp3850
g3364
F1
ss(g1944
g648
tp3851
g1
(g7
tRp3852
g649
F1
ss(g1357
g2505
tp3853
g1
(g7
tRp3854
g2029
F1
ss(g1286
tp3855
g1
(g7
tRp3856
S''
F1
ss(g607
tp3857
g1
(g7
tRp3858
g3464
F1
ss(g3459
g2851
tp3859
g1
(g7
tRp3860
g2014
F1
ss(g1555
tp3861
g1
(g7
tRp3862
g3010
F0.33333333333333331
sg1556
F0.33333333333333331
sg3689
F0.33333333333333331
ss(g366
g3689
tp3863
g1
(g7
tRp3864
S'and'
p3865
F1
ss(S'I'
S'believe'
p3866
tp3867
g1
(g7
tRp3868
g2709
F0.5
sS'in'
p3869
F0.5
ss(g1728
g3648
tp3870
g1
(g7
tRp3871
g819
F1
ss(g1026
S'when'
p3872
tp3873
g1
(g7
tRp3874
g31
F1
ss(g461
g464
tp3875
g1
(g7
tRp3876
g1077
F1
ss(S'foreign'
p3877
tp3878
g1
(g7
tRp3879
S'aid:'
p3880
F1
ss(g307
g310
tp3881
g1
(g7
tRp3882
g685
F1
ss(g1108
g1453
tp3883
g1
(g7
tRp3884
g1454
F1
ss(g2995
tp3885
g1
(g7
tRp3886
g2998
F1
ss(g714
g2551
tp3887
g1
(g7
tRp3888
g2552
F1
ss(S'will'
g738
tp3889
g1
(g7
tRp3890
g739
F1
ss(g2375
g1725
tp3891
g1
(g7
tRp3892
g869
F1
ss(S'strength'
p3893
g2633
tp3894
g1
(g7
tRp3895
S'him'
p3896
F1
ss(g3865
g1284
tp3897
g1
(g7
tRp3898
g3007
F1
ss(g51
g3567
tp3899
g1
(g7
tRp3900
g324
F1
ss(g3217
tp3901
g1
(g7
tRp3902
g943
F0.125
sg2552
F0.125
sS'I'
F0.125
sg1563
F0.125
sg3501
F0.125
sg1251
F0.125
sg1089
F0.125
sg469
F0.125
ss(g1476
g1479
tp3903
g1
(g7
tRp3904
g752
F1
ss(g2073
g2076
tp3905
g1
(g7
tRp3906
S'North'
p3907
F0.33333333333333331
sg3020
F0.33333333333333331
sg2718
F0.33333333333333331
ss(g1587
g1580
tp3908
g1
(g7
tRp3909
g1322
F1
ss(g279
g164
tp3910
g1
(g7
tRp3911
g1380
F1
ss(g1564
tp3912
g1
(g7
tRp3913
g1567
F1
ss(g3113
g3752
tp3914
g1
(g7
tRp3915
S'we'
p3916
F1
ss(g2665
tp3917
g1
(g7
tRp3918
g2668
F1
ss(g2152
g1509
tp3919
g1
(g7
tRp3920
g1510
F1
ss(g448
g451
tp3921
g1
(g7
tRp3922
g1239
F1
ss(g1066
g1069
tp3923
g1
(g7
tRp3924
g2927
F1
ss(S'Supreme'
p3925
g3092
tp3926
g1
(g7
tRp3927
g3095
F1
ss(g2888
S'that'
p3928
tp3929
g1
(g7
tRp3930
S'is'
p3931
F1
ss(S'to'
p3932
g129
tp3933
g1
(g7
tRp3934
S'a'
F1
ss(S'a'
g1700
tp3935
g1
(g7
tRp3936
g3280
F1
ss(g2841
tp3937
g1
(g7
tRp3938
g2093
F1
ss(S'else'
p3939
g692
tp3940
g1
(g7
tRp3941
g1291
F1
ss(g1795
g1798
tp3942
g1
(g7
tRp3943
g1223
F0.66249999999999998
sg1312
F0.33750000000000002
ss(g2269
tp3944
g1
(g7
tRp3945
g2270
F1
ss(g3713
g3716
tp3946
g1
(g7
tRp3947
g2192
F1
ss(S'nation'
p3948
g2981
tp3949
g1
(g7
tRp3950
S'a'
F1
ss(g2645
g2921
tp3951
g1
(g7
tRp3952
g2924
F1
ss(g3281
tp3953
g1
(g7
tRp3954
S''
F1
ss(g935
g2494
tp3955
g1
(g7
tRp3956
g2497
F1
ss(g2736
tp3957
g1
(g7
tRp3958
g1280
F1
ss(g337
g2984
tp3959
g1
(g7
tRp3960
S'anything'
p3961
F1
ss(g1034
g3276
tp3962
g1
(g7
tRp3963
g1873
F1
ss(g920
tp3964
g1
(g7
tRp3965
g1501
F0.5
sg2593
F0.5
ss(g818
g1108
tp3966
g1
(g7
tRp3967
g1453
F1
ss(g1579
g1869
tp3968
g1
(g7
tRp3969
g1870
F1
ss(S'it'
p3970
g53
tp3971
g1
(g7
tRp3972
S'people'
p3973
F1
ss(g3470
tp3974
g1
(g7
tRp3975
g3471
F1
ss(g430
g3893
tp3976
g1
(g7
tRp3977
g2633
F1
ss(g957
tp3978
g1
(g7
tRp3979
S'capabilities'
p3980
F1
ss(g1595
tp3981
g1
(g7
tRp3982
S''
F0.5
sg992
F0.5
ss(g2188
g2191
tp3983
g1
(g7
tRp3984
g3030
F0.5
sS'the'
p3985
F0.5
ss(g2367
g3407
tp3986
g1
(g7
tRp3987
g3408
F1
ss(g3397
g3193
tp3988
g1
(g7
tRp3989
g2198
F1
ss(S'And'
g3970
tp3990
g1
(g7
tRp3991
g48
F0.5
sg53
F0.5
ss(g922
g2967
tp3992
g1
(g7
tRp3993
g2970
F1
ss(g2897
g2900
tp3994
g1
(g7
tRp3995
S'I'
F1
ss(g3760
tp3996
g1
(g7
tRp3997
g3763
F1
ss(g367
g371
tp3998
g1
(g7
tRp3999
g3196
F1
ss(g2372
g3771
tp4000
g1
(g7
tRp4001
g1707
F0.5
sg358
F0.5
ss(g427
S'a'
tp4002
g1
(g7
tRp4003
g1776
F1
ss(g870
tp4004
g1
(g7
tRp4005
S''
F0.071466666666666664
sg1122
F0.071466666666666664
sg873
F0.14275555555555552
sg592
F0.071466666666666664
sg1795
F0.071466666666666664
sg545
F0.071466666666666664
sg27
F0.071466666666666664
sg780
F0.14275555555555552
sg3780
F0.071466666666666664
sg200
F0.071466666666666664
sg1927
F0.14275555555555552
ss(g1015
g2675
tp4006
g1
(g7
tRp4007
g1058
F1
ss(g3310
g3313
tp4008
g1
(g7
tRp4009
g1860
F1
ss(g1027
tp4010
g1
(g7
tRp4011
g1028
F1
ss(g742
tp4012
g1
(g7
tRp4013
S'I'
F0.20061728395061729
sg887
F0.20061728395061729
sg136
F0.39814814814814814
sg888
F0.20061728395061729
ss(g764
S'I'
tp4014
g1
(g7
tRp4015
g3667
F1
ss(g1638
tp4016
g1
(g7
tRp4017
S''
F1
ss(S'We'
g3411
tp4018
g1
(g7
tRp4019
g2044
F1
ss(g154
tp4020
g1
(g7
tRp4021
g1717
F0.5
sg1721
F0.5
ss(g504
tp4022
g1
(g7
tRp4023
g2051
F1
ss(g2326
g2329
tp4024
g1
(g7
tRp4025
g601
F1
ss(g1226
g2187
tp4026
g1
(g7
tRp4027
g1598
F1
ss(S'that'
p4028
g717
tp4029
g1
(g7
tRp4030
S''
F1
ss(g290
g293
tp4031
g1
(g7
tRp4032
g3310
F1
ss(g334
g1254
tp4033
g1
(g7
tRp4034
S'a'
F1
ss(g3402
tp4035
g1
(g7
tRp4036
g425
F0.013889285044098339
sS'all'
p4037
F0.027777068868455643
sg1728
F0.013889285044098339
sg2565
F0.013889285044098339
sg601
F0.013889285044098339
sg2464
F0.013889285044098339
sg410
F0.013889285044098339
sg128
F0.013889285044098339
sg312
F0.013889285044098339
sg129
F0.013889285044098339
sg953
F0.083328204165884837
sg2131
F0.013889285044098339
sg225
F0.013889285044098339
sg3567
F0.013889285044098339
sg126
F0.013889285044098339
sg2389
F0.013889285044098339
sg427
F0.027777068868455643
sg1799
F0.013889285044098339
sg68
F0.013889285044098339
sg429
F0.013889285044098339
sg2564
F0.027777068868455643
sS'emphasize'
p4038
F0.013889285044098339
sg1188
F0.013889285044098339
sg1913
F0.027777068868455643
sg1585
F0.013889285044098339
sg784
F0.069440420341527545
sg2440
F0.013889285044098339
sg870
F0.027777068868455643
sg2699
F0.041664852692812948
sg103
F0.013889285044098339
sg428
F0.013889285044098339
sg3700
F0.013889285044098339
sg726
F0.013889285044098339
sg2885
F0.013889285044098339
sg625
F0.013889285044098339
sg575
F0.027777068868455643
sg3753
F0.027777068868455643
sg2188
F0.013889285044098339
sg1866
F0.013889285044098339
sS'a'
F0.013889285044098339
sg1547
F0.013889285044098339
sg402
F0.013889285044098339
sg426
F0.013889285044098339
sg3616
F0.013889285044098339
sg127
F0.013889285044098339
sg806
F0.013889285044098339
sS'benefit'
p4039
F0.013889285044098339
sg430
F0.013889285044098339
sg2084
F0.013889285044098339
sg1515
F0.013889285044098339
sg1899
F0.013889285044098339
sg2665
F0.013889285044098339
sg948
F0.027777068868455643
ss(g3464
g3467
tp4040
g1
(g7
tRp4041
g1286
F1
ss(S'is'
g973
tp4042
g1
(g7
tRp4043
g1188
F1
ss(g2931
g2618
tp4044
g1
(g7
tRp4045
g555
F1
ss(g2535
g2045
tp4046
g1
(g7
tRp4047
S'with'
p4048
F1
ss(g2584
g1657
tp4049
g1
(g7
tRp4050
g1658
F1
ss(g3907
g902
tp4051
g1
(g7
tRp4052
g903
F1
ss(g1072
tp4053
g1
(g7
tRp4054
g538
F0.5
sg1073
F0.5
ss(g1538
g1541
tp4055
g1
(g7
tRp4056
g3673
F1
ss(g210
tp4057
g1
(g7
tRp4058
g213
F1
ss(g731
g1638
tp4059
g1
(g7
tRp4060
S''
F1
ss(g1752
tp4061
g1
(g7
tRp4062
g1687
F0.03572351755156903
sg1884
F0.03572351755156903
sg214
F0.17851419118027187
sg3756
F0.03572351755156903
sg1753
F0.03572351755156903
sS'I'
F0.14281652277309617
sg3970
F0.071421185958744735
sg1995
F0.03572351755156903
sg1647
F0.03572351755156903
sg760
F0.071421185958744735
sS'let'
p4063
F0.03572351755156903
sg630
F0.03572351755156903
sg2146
F0.03572351755156903
sg3630
F0.03572351755156903
sg2209
F0.03572351755156903
sg114
F0.03572351755156903
sS"I'm"
p4064
F0.03572351755156903
sS"that's"
p4065
F0.071421185958744735
ss(g2153
S'I'
tp4066
g1
(g7
tRp4067
S"didn't"
p4068
F1
ss(g2084
g2087
tp4069
g1
(g7
tRp4070
g3799
F1
ss(g3508
tp4071
g1
(g7
tRp4072
S'to'
p4073
F1
ss(g3279
tp4074
g1
(g7
tRp4075
S'at'
p4076
F1
ss(g1330
tp4077
g1
(g7
tRp4078
S''
F1
ss(g1242
g1913
tp4079
g1
(g7
tRp4080
g2105
F0.5
sg1914
F0.5
ss(g1012
g1015
tp4081
g1
(g7
tRp4082
g2675
F1
ss(g766
g769
tp4083
g1
(g7
tRp4084
g1500
F1
ss(g867
g2699
tp4085
g1
(g7
tRp4086
g2908
F0.33333333333333331
sg1488
F0.33333333333333331
sg3470
F0.33333333333333331
ss(g253
tp4087
g1
(g7
tRp4088
g254
F1
ss(g707
g1057
tp4089
g1
(g7
tRp4090
g9
F1
ss(g725
tp4091
g1
(g7
tRp4092
g1185
F0.5
sS''
F0.5
ss(S'a'
g1460
tp4093
g1
(g7
tRp4094
g1461
F1
ss(g343
g300
tp4095
g1
(g7
tRp4096
g1594
F0.5
sg301
F0.5
ss(S'But'
g2994
tp4097
g1
(g7
tRp4098
g2995
F1
ss(g53
tp4099
g1
(g7
tRp4100
g3064
F0.5
sg3973
F0.5
ss(g2364
tp4101
g1
(g7
tRp4102
g3242
F1
ss(g159
g165
tp4103
g1
(g7
tRp4104
S'I'
F1
ss(g588
g591
tp4105
g1
(g7
tRp4106
g3348
F1
ss(g1145
g1148
tp4107
g1
(g7
tRp4108
g1435
F1
ss(g2712
tp4109
g1
(g7
tRp4110
g559
F0.10044500953591862
sg1457
F0.10044500953591862
sg122
F0.79910998092816277
ss(g2312
g2315
tp4111
g1
(g7
tRp4112
g3925
F1
ss(g842
tp4113
g1
(g7
tRp4114
g1037
F1
ss(g578
g3256
tp4115
g1
(g7
tRp4116
S''
F1
ss(g1904
tp4117
g1
(g7
tRp4118
g894
F1
ss(S'We'
S'should'
p4119
tp4120
g1
(g7
tRp4121
g3516
F1
ss(g1098
g1101
tp4122
g1
(g7
tRp4123
S'give'
p4124
F1
ss(g3187
g3063
tp4125
g1
(g7
tRp4126
g3064
F1
ss(g2206
g1250
tp4127
g1
(g7
tRp4128
g2706
F1
ss(g2020
g2508
tp4129
g1
(g7
tRp4130
g757
F1
ss(g1590
tp4131
g1
(g7
tRp4132
g1593
F1
ss(g3167
tp4133
g1
(g7
tRp4134
S''
F1
ss(g1247
g1406
tp4135
g1
(g7
tRp4136
g2239
F1
ss(S'get'
p4137
g3470
tp4138
g1
(g7
tRp4139
g3471
F1
ss(g2885
g2888
tp4140
g1
(g7
tRp4141
g3928
F1
ss(S'We'
g3551
tp4142
g1
(g7
tRp4143
g1663
F1
ss(g2108
g2152
tp4144
g1
(g7
tRp4145
g1509
F1
ss(g3164
tp4146
g1
(g7
tRp4147
g3167
F1
ss(g1513
g1745
tp4148
g1
(g7
tRp4149
S'I'
F1
ss(g231
tp4150
g1
(g7
tRp4151
g234
F0.25142857142857145
sg3214
F0.49714285714285716
sg384
F0.25142857142857145
ss(g529
tp4152
g1
(g7
tRp4153
g1852
F1
ss(g164
g1380
tp4154
g1
(g7
tRp4155
g131
F1
ss(g1854
tp4156
g1
(g7
tRp4157
g1857
F1
ss(g3392
tp4158
g1
(g7
tRp4159
g3393
F1
ss(g2187
tp4160
g1
(g7
tRp4161
g1598
F1
ss(g330
tp4162
g1
(g7
tRp4163
S''
F0.5
sg397
F0.5
ss(g3074
g3077
tp4164
g1
(g7
tRp4165
S'of'
p4166
F1
ss(g3961
g680
tp4167
g1
(g7
tRp4168
g2687
F1
ss(g1470
tp4169
g1
(g7
tRp4170
g1473
F1
ss(g443
tp4171
g1
(g7
tRp4172
g1679
F1
ss(g1541
g3673
tp4173
g1
(g7
tRp4174
g3676
F1
ss(S'have'
p4175
g694
tp4176
g1
(g7
tRp4177
g330
F0.5
sg335
F0.5
ss(g234
tp4178
g1
(g7
tRp4179
g1148
F0.25142857142857145
sg2065
F0.25142857142857145
sg1967
F0.49714285714285716
ss(g3268
g3271
tp4180
g1
(g7
tRp4181
g3877
F1
ss(g337
tp4182
g1
(g7
tRp4183
g2984
F1
ss(g1864
g2105
tp4184
g1
(g7
tRp4185
g3214
F1
ss(g3095
g99
tp4186
g1
(g7
tRp4187
S''
F1
ss(g3067
tp4188
g1
(g7
tRp4189
g2341
F1
ss(g1098
tp4190
g1
(g7
tRp4191
g1101
F1
ss(g2270
g2273
tp4192
g1
(g7
tRp4193
S'a'
F0.5
sg1527
F0.5
ss(g1593
g2907
tp4194
g1
(g7
tRp4195
g961
F1
ss(g1314
tp4196
g1
(g7
tRp4197
g1195
F0.5
sg843
F0.5
ss(g422
g428
tp4198
g1
(g7
tRp4199
g2128
F1
ss(g2505
tp4200
g1
(g7
tRp4201
g2029
F1
ss(g187
g190
tp4202
g1
(g7
tRp4203
S''
F1
ss(g2927
S'give'
p4204
tp4205
g1
(g7
tRp4206
S'it'
p4207
F1
ss(g154
g1721
tp4208
g1
(g7
tRp4209
g1724
F1
ss(g1585
g2269
tp4210
g1
(g7
tRp4211
g2270
F1
ss(g2905
g3608
tp4212
g1
(g7
tRp4213
S'you'
p4214
F1
ss(g2152
tp4215
g1
(g7
tRp4216
g1509
F1
ss(g1175
tp4217
g1
(g7
tRp4218
g2987
F1
ss(g881
tp4219
g1
(g7
tRp4220
g997
F1
ss(g5
tp4221
g1
(g7
tRp4222
S''
F1
ss(S'for'
p4223
g849
tp4224
g1
(g7
tRp4225
g580
F1
ss(g3181
tp4226
g1
(g7
tRp4227
g111
F0.33333333333333331
sg3257
F0.33333333333333331
sg1644
F0.33333333333333331
ss(g776
g779
tp4228
g1
(g7
tRp4229
g666
F1
ss(g2221
tp4230
g1
(g7
tRp4231
g2431
F1
ss(S'we'
p4232
g737
tp4233
g1
(g7
tRp4234
g1052
F1
ss(g2161
g1401
tp4235
g1
(g7
tRp4236
g711
F1
ss(g675
tp4237
g1
(g7
tRp4238
S''
F1
ss(g3110
g2161
tp4239
g1
(g7
tRp4240
g1401
F1
ss(g4038
tp4241
g1
(g7
tRp4242
g1812
F1
ss(g2273
g1527
tp4243
g1
(g7
tRp4244
g1528
F1
ss(g550
tp4245
g1
(g7
tRp4246
g2978
F1
ss(g1065
tp4247
g1
(g7
tRp4248
g1066
F0.5
sg1149
F0.5
ss(g1287
g2330
tp4249
g1
(g7
tRp4250
g813
F1
ss(g3467
g1286
tp4251
g1
(g7
tRp4252
S''
F1
ss(g1479
g752
tp4253
g1
(g7
tRp4254
S'need'
p4255
F0.5
sg753
F0.5
ss(g2279
tp4256
g1
(g7
tRp4257
g2280
F1
ss(g1296
g1166
tp4258
g1
(g7
tRp4259
g1167
F1
ss(g386
g389
tp4260
g1
(g7
tRp4261
g3490
F1
ss(g407
g410
tp4262
g1
(g7
tRp4263
g3792
F1
ss(g1556
g857
tp4264
g1
(g7
tRp4265
g2283
F1
ss(g2076
g2718
tp4266
g1
(g7
tRp4267
g2719
F1
ss(g3121
g2824
tp4268
g1
(g7
tRp4269
g1394
F1
ss(g511
g514
tp4270
g1
(g7
tRp4271
g663
F1
ss(S'a'
g1199
tp4272
g1
(g7
tRp4273
S''
F1
ss(g864
tp4274
g1
(g7
tRp4275
S'I'
F0.19999999999999998
sg867
F0.19999999999999998
sg868
F0.19999999999999998
sg349
F0.19999999999999998
sg276
F0.19999999999999998
ss(g2284
g2287
tp4276
g1
(g7
tRp4277
g2894
F1
ss(g3092
g3095
tp4278
g1
(g7
tRp4279
g99
F1
ss(g2235
g1892
tp4280
g1
(g7
tRp4281
g3585
F1
ss(g1126
g1129
tp4282
g1
(g7
tRp4283
S'a'
F0.5
sS''
F0.5
ss(g550
g2978
tp4284
g1
(g7
tRp4285
g729
F1
ss(g1293
tp4286
g1
(g7
tRp4287
g3727
F1
ss(g2202
g2021
tp4288
g1
(g7
tRp4289
g1410
F1
ss(g3743
tp4290
g1
(g7
tRp4291
g3217
F1
ss(g1354
g1357
tp4292
g1
(g7
tRp4293
g2505
F1
ss(g373
g376
tp4294
g1
(g7
tRp4295
g2560
F1
ss(S'know,'
p4296
g1094
tp4297
g1
(g7
tRp4298
S''
F1
ss(g1180
g162
tp4299
g1
(g7
tRp4300
g592
F1
ss(g1587
tp4301
g1
(g7
tRp4302
g1580
F1
ss(g674
tp4303
g1
(g7
tRp4304
g675
F0.5
sg1390
F0.5
ss(g2950
g802
tp4305
g1
(g7
tRp4306
g803
F1
ss(g81
g84
tp4307
g1
(g7
tRp4308
S'the'
p4309
F1
ss(g135
g2448
tp4310
g1
(g7
tRp4311
S'a'
F1
ss(g2125
g2504
tp4312
g1
(g7
tRp4313
g3448
F1
ss(g3145
S'America'
p4314
tp4315
g1
(g7
tRp4316
S''
F1
ss(g2431
tp4317
g1
(g7
tRp4318
g294
F0.25142857142857145
sg2257
F0.49714285714285716
sg339
F0.25142857142857145
ss(g4073
g4039
tp4319
g1
(g7
tRp4320
S'the'
p4321
F1
ss(g1687
g1690
tp4322
g1
(g7
tRp4323
S'far'
p4324
F1
ss(S'the'
g670
tp4325
g1
(g7
tRp4326
g673
F1
ss(g2712
g559
tp4327
g1
(g7
tRp4328
g560
F1
ss(g1219
tp4329
g1
(g7
tRp4330
g1222
F1
ss(g2066
g2069
tp4331
g1
(g7
tRp4332
g2787
F1
ss(g862
g1269
tp4333
g1
(g7
tRp4334
g402
F1
ss(g685
g688
tp4335
g1
(g7
tRp4336
g2889
F1
ss(g3174
tp4337
g1
(g7
tRp4338
S'give'
p4339
F0.083403775711468009
sg3551
F0.083403775711468009
sg3411
F0.083403775711468009
sg4119
F0.16652578191039732
sg3314
F0.083403775711468009
sg1465
F0.16652578191039732
sS'need'
p4340
F0.16652578191039732
sg2658
F0.083403775711468009
sg1439
F0.083403775711468009
ss(g1901
g1904
tp4341
g1
(g7
tRp4342
g894
F1
ss(g2722
g2943
tp4343
g1
(g7
tRp4344
g2946
F0.66249999999999998
sg2947
F0.33750000000000002
ss(g421
tp4345
g1
(g7
tRp4346
S'a'
F0.49795918367346931
sg1206
F0.16734693877551018
sg3872
F0.16734693877551018
sg1632
F0.16734693877551018
ss(g1528
tp4347
g1
(g7
tRp4348
g1905
F0.125
sg155
F0.125
sS'--'
p4349
F0.125
sg2494
F0.125
sg316
F0.125
sg1531
F0.125
sg3668
F0.125
sg1049
F0.125
ss(g1473
tp4350
g1
(g7
tRp4351
g863
F1
ss(g559
tp4352
g1
(g7
tRp4353
g560
F1
ss(g2924
tp4354
g1
(g7
tRp4355
g1046
F0.66249999999999998
sS'that'
p4356
F0.33750000000000002
ss(g3387
tp4357
g1
(g7
tRp4358
g2279
F0.125
sg1363
F0.125
sg2584
F0.125
sg3397
F0.125
sg2618
F0.125
sg210
F0.125
sg418
F0.125
sg1901
F0.125
ss(S'just'
g1214
tp4359
g1
(g7
tRp4360
g1217
F1
ss(g218
g3578
tp4361
g1
(g7
tRp4362
S'to'
p4363
F1
ss(g660
g664
tp4364
g1
(g7
tRp4365
g2415
F1
ss(g2844
tp4366
g1
(g7
tRp4367
S''
F0.33333333333333331
sg1887
F0.33333333333333331
sg1697
F0.33333333333333331
ss(g35
g38
tp4368
g1
(g7
tRp4369
S''
F1
ss(g59
g62
tp4370
g1
(g7
tRp4371
g1086
F1
ss(g2841
g2093
tp4372
g1
(g7
tRp4373
g2094
F1
ss(S'to'
g426
tp4374
g1
(g7
tRp4375
g644
F1
ss(g1700
g3280
tp4376
g1
(g7
tRp4377
g3281
F1
ss(g3189
g2290
tp4378
g1
(g7
tRp4379
g702
F1
ss(g732
tp4380
g1
(g7
tRp4381
g2030
F0.33750000000000002
sg733
F0.66249999999999998
ss(S'are'
g2766
tp4382
g1
(g7
tRp4383
g2769
F1
ss(g997
g1000
tp4384
g1
(g7
tRp4385
g2727
F1
ss(g3292
g2164
tp4386
g1
(g7
tRp4387
g2167
F1
ss(g2030
g1346
tp4388
g1
(g7
tRp4389
g1300
F1
ss(g2021
tp4390
g1
(g7
tRp4391
g1410
F1
ss(S'to'
g3753
tp4392
g1
(g7
tRp4393
S''
F0.5
sg1697
F0.5
ss(g2828
g2831
tp4394
g1
(g7
tRp4395
g1285
F1
ss(g3271
g3877
tp4396
g1
(g7
tRp4397
g3880
F1
ss(g563
g332
tp4398
g1
(g7
tRp4399
g2043
F0.33333333333333331
sg2045
F0.33333333333333331
sg535
F0.33333333333333331
ss(g3630
g204
tp4400
g1
(g7
tRp4401
g205
F1
ss(g1720
g2487
tp4402
g1
(g7
tRp4403
S''
F1
ss(g711
tp4404
g1
(g7
tRp4405
g1949
F0.5
sg689
F0.5
ss(S'other'
p4406
g261
tp4407
g1
(g7
tRp4408
g262
F1
ss(g406
tp4409
g1
(g7
tRp4410
g407
F1
ss(g68
g71
tp4411
g1
(g7
tRp4412
g3438
F1
ss(g1488
tp4413
g1
(g7
tRp4414
g1489
F1
ss(S'will'
p4415
g3447
tp4416
g1
(g7
tRp4417
g1315
F0.5
sg1301
F0.5
ss(g1901
tp4418
g1
(g7
tRp4419
g1904
F1
ss(g448
tp4420
g1
(g7
tRp4421
g451
F1
ss(g3560
g1049
tp4422
g1
(g7
tRp4423
g393
F1
ss(g567
g311
tp4424
g1
(g7
tRp4425
g312
F1
ss(g2164
g2167
tp4426
g1
(g7
tRp4427
g2758
F1
ss(g1239
tp4428
g1
(g7
tRp4429
g1242
F1
ss(g1573
g253
tp4430
g1
(g7
tRp4431
g254
F1
ss(g3113
tp4432
g1
(g7
tRp4433
g961
F0.5
sg3752
F0.5
ss(g1905
g1908
tp4434
g1
(g7
tRp4435
S''
F0.20061728395061729
sS'the'
p4436
F0.39814814814814814
sg12
F0.20061728395061729
sg16
F0.20061728395061729
ss(S'And'
g4065
tp4437
g1
(g7
tRp4438
g3783
F0.5
sg915
F0.5
ss(g3760
g3763
tp4439
g1
(g7
tRp4440
g2557
F1
ss(g2536
tp4441
g1
(g7
tRp4442
g1162
F1
ss(g972
g1314
tp4443
g1
(g7
tRp4444
g843
F1
ss(g601
tp4445
g1
(g7
tRp4446
g602
F1
ss(g2260
g810
tp4447
g1
(g7
tRp4448
g349
F1
ss(g1891
g1900
tp4449
g1
(g7
tRp4450
g1901
F1
ss(g2504
tp4451
g1
(g7
tRp4452
g293
F0.16666666666666666
sg3448
F0.16666666666666666
sg4204
F0.16666666666666666
sg1440
F0.16666666666666666
sg3682
F0.16666666666666666
sg2662
F0.16666666666666666
ss(g1454
g1457
tp4453
g1
(g7
tRp4454
g2321
F1
ss(g3872
g31
tp4455
g1
(g7
tRp4456
g32
F1
ss(g3451
g1923
tp4457
g1
(g7
tRp4458
S''
F1
ss(S'a'
g2366
tp4459
g1
(g7
tRp4460
g501
F1
ss(g389
tp4461
g1
(g7
tRp4462
g3490
F1
ss(S'a'
g2363
tp4463
g1
(g7
tRp4464
g63
F1
ss(S'I'
g3279
tp4465
g1
(g7
tRp4466
g4076
F1
ss(g3980
tp4467
g1
(g7
tRp4468
S''
F1
ss(g579
g1770
tp4469
g1
(g7
tRp4470
g1290
F1
ss(g1776
g1779
tp4471
g1
(g7
tRp4472
g1972
F1
ss(g817
g1251
tp4473
g1
(g7
tRp4474
g334
F1
ss(g430
tp4475
g1
(g7
tRp4476
g3893
F1
ss(g1431
g1434
tp4477
g1
(g7
tRp4478
g1613
F1
ss(g2675
g1058
tp4479
g1
(g7
tRp4480
g1059
F1
ss(g873
g972
tp4481
g1
(g7
tRp4482
g1314
F1
ss(g43
S'to'
p4483
tp4484
g1
(g7
tRp4485
g3452
F1
ss(g1276
g1279
tp4486
g1
(g7
tRp4487
g2118
F1
ss(S'And'
g114
tp4488
g1
(g7
tRp4489
g117
F1
ss(g195
tp4490
g1
(g7
tRp4491
S'a'
F1
ss(g3226
g4
tp4492
g1
(g7
tRp4493
g5
F1
ss(g1806
tp4494
g1
(g7
tRp4495
g1794
F0.074994392486907688
sg289
F0.0250046322934241
sg80
F0.0250046322934241
sg220
F0.049999512390165889
sg736
F0.0250046322934241
sg2597
F0.0250046322934241
sg1892
F0.0250046322934241
sg3078
F0.0250046322934241
sg737
F0.0250046322934241
sg2221
F0.0250046322934241
sg2504
F0.0250046322934241
sg2006
F0.0250046322934241
sg2017
F0.074994392486907688
sg218
F0.0250046322934241
sg753
F0.0250046322934241
sg219
F0.24995855316410026
sg1725
F0.14997903277713306
sg1891
F0.0250046322934241
sg245
F0.0250046322934241
sg2274
F0.0250046322934241
sg1125
F0.0250046322934241
ss(g3016
g3019
tp4496
g1
(g7
tRp4497
S'of'
p4498
F1
ss(S'a'
g2356
tp4499
g1
(g7
tRp4500
S''
F1
ss(g1948
g1967
tp4501
g1
(g7
tRp4502
S'a'
F0.5
sg3872
F0.5
ss(g2703
S'a'
tp4503
g1
(g7
tRp4504
g765
F1
ss(g620
tp4505
g1
(g7
tRp4506
g2930
F1
ss(g3279
g4076
tp4507
g1
(g7
tRp4508
S'the'
p4509
F1
ss(g1185
tp4510
g1
(g7
tRp4511
S''
F1
ss(S'more'
g1775
tp4512
g1
(g7
tRp4513
S''
F1
ss(g1818
tp4514
g1
(g7
tRp4515
S'a'
F1
ss(g2033
tp4516
g1
(g7
tRp4517
g2036
F1
ss(g1944
tp4518
g1
(g7
tRp4519
g648
F1
ss(g151
tp4520
g1
(g7
tRp4521
g154
F1
ss(g1739
tp4522
g1
(g7
tRp4523
g1740
F1
ss(g2366
g501
tp4524
g1
(g7
tRp4525
g504
F0.5
sg505
F0.5
ss(g644
g647
tp4526
g1
(g7
tRp4527
g982
F1
ss(g2967
g2970
tp4528
g1
(g7
tRp4529
g4137
F1
ss(g1287
tp4530
g1
(g7
tRp4531
S'to'
p4532
F0.5
sg2330
F0.5
ss(g243
g1559
tp4533
g1
(g7
tRp4534
g1562
F1
ss(g3083
g3087
tp4535
g1
(g7
tRp4536
g1133
F1
ss(g370
g1296
tp4537
g1
(g7
tRp4538
g1166
F1
ss(g3673
g3676
tp4539
g1
(g7
tRp4540
S'the'
p4541
F1
ss(g1832
g3122
tp4542
g1
(g7
tRp4543
g1618
F1
ss(S'no'
p4544
g1594
tp4545
g1
(g7
tRp4546
g1595
F1
ss(g2158
tp4547
g1
(g7
tRp4548
g2073
F1
ss(g2755
tp4549
g1
(g7
tRp4550
g858
F1
ss(g2618
tp4551
g1
(g7
tRp4552
g555
F1
ss(g927
tp4553
g1
(g7
tRp4554
g930
F1
ss(g773
g51
tp4555
g1
(g7
tRp4556
g3567
F0.5
sg3753
F0.5
ss(g596
g185
tp4557
g1
(g7
tRp4558
g1949
F1
ss(g2588
tp4559
g1
(g7
tRp4560
g719
F1
ss(g2087
g3799
tp4561
g1
(g7
tRp4562
g3397
F1
ss(g3485
g2773
tp4563
g1
(g7
tRp4564
g2774
F1
ss(g1761
g1764
tp4565
g1
(g7
tRp4566
g2782
F1
ss(g137
tp4567
g1
(g7
tRp4568
g2437
F0.20138888888888887
sg1316
F0.20138888888888887
sg140
F0.59722222222222221
ss(g452
g455
tp4569
g1
(g7
tRp4570
g1418
F1
ss(g3916
g2597
tp4571
g1
(g7
tRp4572
g4223
F1
ss(g3193
g2198
tp4573
g1
(g7
tRp4574
g2199
F1
ss(g3907
tp4575
g1
(g7
tRp4576
g1077
F0.5
sg902
F0.5
ss(g1219
g1222
tp4577
g1
(g7
tRp4578
g1114
F1
ss(S'But'
S'I'
tp4579
g1
(g7
tRp4580
g492
F1
ss(g688
g2889
tp4581
g1
(g7
tRp4582
g1555
F1
ss(g4037
g816
tp4583
g1
(g7
tRp4584
S''
F1
ss(g335
g102
tp4585
g1
(g7
tRp4586
g1102
F1
ss(g1261
tp4587
g1
(g7
tRp4588
g1957
F0.14322916666666669
sg1958
F0.14322916666666669
sg1772
F0.28515625000000006
sg284
F0.14322916666666669
sg1072
F0.28515625000000006
ss(g793
tp4589
g1
(g7
tRp4590
g444
F1
ss(g1643
S'I'
tp4591
g1
(g7
tRp4592
g2678
F1
ss(S'a'
g1152
tp4593
g1
(g7
tRp4594
g1155
F0.5
sg1157
F0.5
ss(g301
tp4595
g1
(g7
tRp4596
S''
F1
ss(g4349
S'I'
tp4597
g1
(g7
tRp4598
g1765
F1
ss(g1518
g2584
tp4599
g1
(g7
tRp4600
g1657
F1
ss(g715
g2847
tp4601
g1
(g7
tRp4602
g2848
F1
ss(g2090
tp4603
g1
(g7
tRp4604
g947
F1
ss(g1209
tp4605
g1
(g7
tRp4606
S''
F1
ss(g3727
g1031
tp4607
g1
(g7
tRp4608
g564
F1
ss(g3866
g3869
tp4609
g1
(g7
tRp4610
g927
F0.5
sg828
F0.5
ss(g2906
g1926
tp4611
g1
(g7
tRp4612
g1927
F1
ss(g1285
g3268
tp4613
g1
(g7
tRp4614
g3271
F1
ss(g1313
tp4615
g1
(g7
tRp4616
g1218
F1
ss(g1315
S'a'
tp4617
g1
(g7
tRp4618
g2361
F1
ss(g978
g981
tp4619
g1
(g7
tRp4620
g3615
F0.5
sg2153
F0.5
ss(g316
g319
tp4621
g1
(g7
tRp4622
g2806
F1
ss(g20
g1293
tp4623
g1
(g7
tRp4624
g3727
F1
ss(g2488
tp4625
g1
(g7
tRp4626
g2491
F1
ss(g42
tp4627
g1
(g7
tRp4628
g121
F1
ss(g785
tp4629
g1
(g7
tRp4630
S''
F1
ss(g3771
g358
tp4631
g1
(g7
tRp4632
g150
F1
ss(g289
tp4633
g1
(g7
tRp4634
S'to'
p4635
F1
ss(S'a'
g2358
tp4636
g1
(g7
tRp4637
g1476
F1
ss(S'the'
p4638
g798
tp4639
g1
(g7
tRp4640
g801
F1
ss(g884
g730
tp4641
g1
(g7
tRp4642
g1880
F1
ss(g2360
g3011
tp4643
g1
(g7
tRp4644
g515
F1
ss(g587
tp4645
g1
(g7
tRp4646
g588
F1
ss(g2193
g2196
tp4647
g1
(g7
tRp4648
g1825
F1
ss(S'think'
p4649
g923
tp4650
g1
(g7
tRp4651
g329
F1
ss(g2699
tp4652
g1
(g7
tRp4653
S'a'
F0.19972451790633608
sg1367
F0.10009182736455462
sg2908
F0.10009182736455462
sg4483
F0.10009182736455462
sg3470
F0.10009182736455462
sg2132
F0.10009182736455462
sg1488
F0.10009182736455462
sg978
F0.19972451790633608
ss(g271
tp4654
g1
(g7
tRp4655
S''
F0.12522045855379188
sg274
F0.12522045855379188
sg2404
F0.12522045855379188
sg1275
F0.37389770723104054
sg2284
F0.12522045855379188
sg2423
F0.12522045855379188
ss(g2440
g2335
tp4656
g1
(g7
tRp4657
g2336
F1
ss(g3792
g3231
tp4658
g1
(g7
tRp4659
g846
F1
ss(g1149
g936
tp4660
g1
(g7
tRp4661
g72
F1
ss(g2143
g520
tp4662
g1
(g7
tRp4663
g521
F1
ss(g2007
g745
tp4664
g1
(g7
tRp4665
g746
F1
ss(g981
g2153
tp4666
g1
(g7
tRp4667
S'I'
F1
ss(g1288
g2799
tp4668
g1
(g7
tRp4669
S''
F1
ss(g1513
tp4670
g1
(g7
tRp4671
g1745
F1
ss(g899
g1682
tp4672
g1
(g7
tRp4673
g1022
F1
ss(g1113
g1586
tp4674
g1
(g7
tRp4675
g1587
F1
ss(g3025
g2865
tp4676
g1
(g7
tRp4677
g2897
F0.5
sg1833
F0.5
ss(g3689
tp4678
g1
(g7
tRp4679
g3865
F1
ss(g922
tp4680
g1
(g7
tRp4681
g2967
F1
ss(g410
g3792
tp4682
g1
(g7
tRp4683
g3231
F1
ss(g1524
tp4684
g1
(g7
tRp4685
S'I'
F1
ss(g597
tp4686
g1
(g7
tRp4687
g598
F1
ss(g2778
tp4688
g1
(g7
tRp4689
g2781
F1
ss(g141
tp4690
g1
(g7
tRp4691
g142
F1
ss(g1909
g1912
tp4692
g1
(g7
tRp4693
S'have'
p4694
F1
ss(g1958
g2904
tp4695
g1
(g7
tRp4696
S''
F1
ss(g1753
g1756
tp4697
g1
(g7
tRp4698
g3743
F1
ss(g3407
tp4699
g1
(g7
tRp4700
g1640
F0.5
sg3408
F0.5
ss(g1390
tp4701
g1
(g7
tRp4702
g1393
F1
ss(g2358
tp4703
g1
(g7
tRp4704
g1476
F1
ss(g3007
g3010
tp4705
g1
(g7
tRp4706
S''
F1
ss(g1367
tp4707
g1
(g7
tRp4708
g1368
F1
ss(g1243
tp4709
g1
(g7
tRp4710
S'a'
F0.21404444444444448
sg2070
F0.071466666666666692
sg3020
F0.071466666666666692
sg3907
F0.071466666666666692
sg763
F0.14275555555555558
sg1555
F0.071466666666666692
sg789
F0.071466666666666692
sg3877
F0.071466666666666692
sg1544
F0.071466666666666692
sg764
F0.071466666666666692
sg2718
F0.071466666666666692
ss(g2017
g2020
tp4711
g1
(g7
tRp4712
g2508
F1
ss(g3648
g819
tp4713
g1
(g7
tRp4714
g1651
F0.5
sg2841
F0.5
ss(g705
g2480
tp4715
g1
(g7
tRp4716
S'I'
F1
ss(g957
g3980
tp4717
g1
(g7
tRp4718
S''
F1
ss(g1326
g1329
tp4719
g1
(g7
tRp4720
g338
F1
ss(g2367
tp4721
g1
(g7
tRp4722
g3407
F1
ss(g378
S'a'
tp4723
g1
(g7
tRp4724
g2358
F1
ss(g2665
g2668
tp4725
g1
(g7
tRp4726
g2736
F1
ss(g4039
g4321
tp4727
g1
(g7
tRp4728
g3948
F1
ss(g2848
tp4729
g1
(g7
tRp4730
g647
F0.03572035235021475
sg972
F0.03572035235021475
sg1643
F0.03572035235021475
sg3025
F0.03572035235021475
sg3508
F0.03572035235021475
sg279
F0.03572035235021475
sg507
F0.03572035235021475
sg2588
F0.03572035235021475
sg2931
F0.03572035235021475
sg973
F0.03572035235021475
sg1984
F0.03572035235021475
sg1922
F0.1071125239632119
sg2943
F0.1071125239632119
sg4314
F0.03572035235021475
sS'a'
F0.03572035235021475
sg2135
F0.03572035235021475
sg1196
F0.071416438156713336
sg373
F0.03572035235021475
sg2654
F0.1071125239632119
sg1058
F0.03572035235021475
sg2454
F0.03572035235021475
ss(g1802
tp4731
g1
(g7
tRp4732
g1803
F1
ss(S'justice'
g4532
tp4733
g1
(g7
tRp4734
g4037
F1
ss(S'as'
g763
tp4735
g1
(g7
tRp4736
S'as'
p4737
F1
ss(g2020
tp4738
g1
(g7
tRp4739
S'a'
F0.090939153439153417
sg1038
F0.090939153439153417
sg230
F0.090939153439153417
sg1435
F0.090939153439153417
sg249
F0.090939153439153417
sg3122
F0.090939153439153417
sg1826
F0.18154761904761901
sg2508
F0.090939153439153417
sg465
F0.090939153439153417
sg783
F0.090939153439153417
ss(S'a'
g2361
tp4740
g1
(g7
tRp4741
g2488
F1
ss(g1803
tp4742
g1
(g7
tRp4743
g1806
F1
ss(S"that's"
g915
tp4744
g1
(g7
tRp4745
S'we'
p4746
F1
ss(g1567
g2828
tp4747
g1
(g7
tRp4748
g2831
F1
ss(g3408
g1209
tp4749
g1
(g7
tRp4750
S''
F1
ss(g1062
tp4751
g1
(g7
tRp4752
S'a'
F0.1537569573283859
sS''
F0.076994434137291276
sS'that'
p4753
F0.076994434137291276
sg1980
F0.076994434137291276
sg300
F0.1537569573283859
sg2436
F0.076994434137291276
sg587
F0.076994434137291276
sg1493
F0.23051948051948054
sg3030
F0.076994434137291276
ss(g1610
g1760
tp4754
g1
(g7
tRp4755
g1761
F1
ss(g3819
g2709
tp4756
g1
(g7
tRp4757
g266
F1
ss(g2536
g1162
tp4758
g1
(g7
tRp4759
g1165
F1
ss(g3276
tp4760
g1
(g7
tRp4761
g1873
F1
ss(g3313
g1860
tp4762
g1
(g7
tRp4763
S''
F1
ss(g289
g4635
tp4764
g1
(g7
tRp4765
g4038
F1
ss(S'pay'
g1136
tp4766
g1
(g7
tRp4767
g2712
F1
ss(g974
tp4768
g1
(g7
tRp4769
g975
F1
ss(g95
tp4770
g1
(g7
tRp4771
g98
F1
ss(g656
g659
tp4772
g1
(g7
tRp4773
g851
F1
ss(g692
g1291
tp4774
g1
(g7
tRp4775
g2728
F0.5
sg2143
F0.5
ss(g93
S'a'
tp4776
g1
(g7
tRp4777
g1397
F1
ss(g4737
g3020
tp4778
g1
(g7
tRp4779
g3021
F1
ss(g4635
g4038
tp4780
g1
(g7
tRp4781
g1812
F1
ss(g2699
g2908
tp4782
g1
(g7
tRp4783
g1243
F1
ss(g831
g1287
tp4784
g1
(g7
tRp4785
g4532
F0.5
sg2330
F0.5
ss(g1625
g1628
tp4786
g1
(g7
tRp4787
S''
F1
ss(g515
tp4788
g1
(g7
tRp4789
g516
F1
ss(g1547
tp4790
g1
(g7
tRp4791
g1550
F1
ss(g1580
g1322
tp4792
g1
(g7
tRp4793
g1325
F1
ss(S'a'
g191
tp4794
g1
(g7
tRp4795
g192
F1
ss(g2187
g1598
tp4796
g1
(g7
tRp4797
g587
F1
ss(g1547
g1550
tp4798
g1
(g7
tRp4799
g460
F1
ss(g54
g58
tp4800
g1
(g7
tRp4801
g1141
F0.5
sg3427
F0.5
ss(g4321
g3948
tp4802
g1
(g7
tRp4803
g2981
F1
ss(g1291
tp4804
g1
(g7
tRp4805
g2728
F0.33333333333333331
sg85
F0.33333333333333331
sg2143
F0.33333333333333331
ss(g2894
g2525
tp4806
g1
(g7
tRp4807
g1338
F1
ss(g757
tp4808
g1
(g7
tRp4809
g584
F1
ss(g2560
g2565
tp4810
g1
(g7
tRp4811
S''
F1
ss(g3508
g4073
tp4812
g1
(g7
tRp4813
g4039
F1
ss(g2168
g2171
tp4814
g1
(g7
tRp4815
g874
F1
ss(g2903
tp4816
g1
(g7
tRp4817
S'have'
p4818
F1
ss(S'The'
S'people'
p4819
tp4820
g1
(g7
tRp4821
S'who'
p4822
F1
ss(g2888
tp4823
g1
(g7
tRp4824
g3928
F1
ss(g620
g2930
tp4825
g1
(g7
tRp4826
g2931
F1
ss(g1821
g1824
tp4827
g1
(g7
tRp4828
g1005
F1
ss(g2274
tp4829
g1
(g7
tRp4830
g2275
F1
ss(g3064
g3067
tp4831
g1
(g7
tRp4832
g2341
F1
ss(g2371
tp4833
g1
(g7
tRp4834
S''
F1
ss(g3877
g3880
tp4835
g1
(g7
tRp4836
g1358
F1
ss(g9
g15
tp4837
g1
(g7
tRp4838
g2585
F0.25
sS'National'
p4839
F0.25
sg2669
F0.25
sg1568
F0.25
ss(g2465
tp4840
g1
(g7
tRp4841
g17
F1
ss(g3180
S'you'
p4842
tp4843
g1
(g7
tRp4844
g4296
F1
ss(g948
g951
tp4845
g1
(g7
tRp4846
S''
F1
ss(g2903
g4818
tp4847
g1
(g7
tRp4848
g3494
F1
ss(g881
g997
tp4849
g1
(g7
tRp4850
g1000
F1
ss(g1999
tp4851
g1
(g7
tRp4852
g2002
F0.5
sg2003
F0.5
ss(g1426
g1958
tp4853
g1
(g7
tRp4854
g2904
F1
ss(g1390
g1393
tp4855
g1
(g7
tRp4856
g3163
F1
ss(g201
g49
tp4857
g1
(g7
tRp4858
S'a'
F1
ss(g226
g229
tp4859
g1
(g7
tRp4860
g528
F1
ss(g1657
tp4861
g1
(g7
tRp4862
g1658
F1
ss(g3184
tp4863
g1
(g7
tRp4864
g413
F0.5
sg4819
F0.5
ss(g1406
tp4865
g1
(g7
tRp4866
g2239
F1
ss(g220
g773
tp4867
g1
(g7
tRp4868
g51
F1
ss(g3689
g3865
tp4869
g1
(g7
tRp4870
g1284
F1
ss(g2177
g579
tp4871
g1
(g7
tRp4872
g1770
F1
ss(g405
g1309
tp4873
g1
(g7
tRp4874
g2436
F1
ss(g2936
g1295
tp4875
g1
(g7
tRp4876
g337
F0.5
sS'have'
p4877
F0.5
ss(g3183
g2428
tp4878
g1
(g7
tRp4879
g1802
F1
ss(S'I'
g1994
tp4880
g1
(g7
tRp4881
S'a'
F1
ss(S'What'
g4175
tp4882
g1
(g7
tRp4883
g694
F1
ss(g221
g224
tp4884
g1
(g7
tRp4885
g2135
F1
ss(g3257
g406
tp4886
g1
(g7
tRp4887
g407
F1
ss(g1559
g1562
tp4888
g1
(g7
tRp4889
g370
F1
ss(g636
tp4890
g1
(g7
tRp4891
g639
F0.5
sS''
F0.5
ss(g2731
S'a'
tp4892
g1
(g7
tRp4893
g1326
F1
ss(g429
g534
tp4894
g1
(g7
tRp4895
g3478
F1
ss(g3880
g1358
tp4896
g1
(g7
tRp4897
g1359
F1
ss(g749
S'a'
tp4898
g1
(g7
tRp4899
g390
F1
ss(g1852
g660
tp4900
g1
(g7
tRp4901
g664
F1
ss(g856
g899
tp4902
g1
(g7
tRp4903
g1682
F1
ss(g1993
g774
tp4904
g1
(g7
tRp4905
g2654
F1
ss(g985
tp4906
g1
(g7
tRp4907
g275
F1
ss(g3513
g1427
tp4908
g1
(g7
tRp4909
g1428
F1
ss(g2290
tp4910
g1
(g7
tRp4911
g702
F1
ss(S'would'
p4912
g155
tp4913
g1
(g7
tRp4914
g156
F1
ss(S'a'
g377
tp4915
g1
(g7
tRp4916
g378
F1
ss(g2564
g855
tp4917
g1
(g7
tRp4918
S''
F1
ss(g2146
g2149
tp4919
g1
(g7
tRp4920
S'know,'
p4921
F1
ss(g1374
g43
tp4922
g1
(g7
tRp4923
g4483
F0.5
sg2132
F0.5
ss(g3485
tp4924
g1
(g7
tRp4925
g2773
F1
ss(g578
tp4926
g1
(g7
tRp4927
S''
F0.33333333333333331
sg965
F0.33333333333333331
sg3256
F0.33333333333333331
ss(S'I'
g4912
tp4928
g1
(g7
tRp4929
g1905
F0.16666666666666666
sg155
F0.16666666666666666
sg4349
F0.16666666666666666
sg316
F0.16666666666666666
sg3668
F0.16666666666666666
sg1049
F0.16666666666666666
ss(g2471
S'I'
tp4930
g1
(g7
tRp4931
g2033
F1
ss(g2329
g601
tp4932
g1
(g7
tRp4933
g602
F1
ss(g1228
g1231
tp4934
g1
(g7
tRp4935
g3347
F1
ss(g1398
tp4936
g1
(g7
tRp4937
g353
F1
ss(g1914
tp4938
g1
(g7
tRp4939
g852
F0.5
sg1573
F0.5
ss(g2995
g2998
tp4940
g1
(g7
tRp4941
g3100
F1
ss(g745
tp4942
g1
(g7
tRp4943
g746
F1
ss(g1761
tp4944
g1
(g7
tRp4945
g1764
F1
ss(g1746
g1749
tp4946
g1
(g7
tRp4947
S''
F1
ss(g965
g625
tp4948
g1
(g7
tRp4949
g626
F1
ss(g3393
g3396
tp4950
g1
(g7
tRp4951
S''
F1
ss(g699
g3700
tp4952
g1
(g7
tRp4953
S''
F1
ss(g89
g1042
tp4954
g1
(g7
tRp4955
g1043
F1
ss(g564
tp4956
g1
(g7
tRp4957
S'a'
F0.11111111111111113
sg2766
F0.11111111111111113
sg350
F0.11111111111111113
sg756
F0.11111111111111113
sg2551
F0.11111111111111113
sg3317
F0.11111111111111113
sg636
F0.11111111111111113
sg1276
F0.11111111111111113
sg270
F0.11111111111111113
ss(S'And'
g4064
tp4958
g1
(g7
tRp4959
g2755
F1
ss(S'a'
g2360
tp4960
g1
(g7
tRp4961
g3011
F1
ss(g3615
tp4962
g1
(g7
tRp4963
S''
F0.7466666666666667
sg3021
F0.2533333333333333
ss(g868
g2221
tp4964
g1
(g7
tRp4965
g2431
F1
ss(g3142
g3145
tp4966
g1
(g7
tRp4967
g3338
F0.5
sg4314
F0.5
ss(g1981
g1984
tp4968
g1
(g7
tRp4969
g1985
F1
ss(g1552
S'a'
tp4970
g1
(g7
tRp4971
g2362
F1
ss(g2368
g2372
tp4972
g1
(g7
tRp4973
g3771
F1
ss(g818
tp4974
g1
(g7
tRp4975
g1108
F1
ss(g2361
tp4976
g1
(g7
tRp4977
g2488
F1
ss(g3866
tp4978
g1
(g7
tRp4979
g2709
F0.25142857142857145
sg201
F0.25142857142857145
sg3869
F0.49714285714285716
ss(g591
g3348
tp4980
g1
(g7
tRp4981
S''
F1
ss(S'I'
g546
tp4982
g1
(g7
tRp4983
g547
F1
ss(g1179
tp4984
g1
(g7
tRp4985
g1180
F1
ss(g2033
g2036
tp4986
g1
(g7
tRp4987
g3078
F1
ss(g927
g930
tp4988
g1
(g7
tRp4989
g1782
F1
ss(g910
g914
tp4990
g1
(g7
tRp4991
g1576
F0.33750000000000002
sg159
F0.66249999999999998
ss(g2315
g3925
tp4992
g1
(g7
tRp4993
g3092
F1
ss(g4532
g4037
tp4994
g1
(g7
tRp4995
g2840
F0.5
sg816
F0.5
ss(g857
g2283
tp4996
g1
(g7
tRp4997
g2284
F1
ss(g3386
g3713
tp4998
g1
(g7
tRp4999
g3716
F1
ss(g110
g1289
tp5000
g1
(g7
tRp5001
g1501
F1
ss(g1001
g1004
tp5002
g1
(g7
tRp5003
g1109
F1
ss(S'a'
g1776
tp5004
g1
(g7
tRp5005
g1779
F1
ss(g2440
tp5006
g1
(g7
tRp5007
g2335
F1
ss(g271
g274
tp5008
g1
(g7
tRp5009
g1861
F1
ss(S'know,'
S'I'
tp5010
g1
(g7
tRp5011
g3760
F1
ss(S'to'
p5012
g127
tp5013
g1
(g7
tRp5014
g1444
F1
ss(g2778
g2781
tp5015
g1
(g7
tRp5016
S'we'
p5017
F1
ss(g492
g200
tp5018
g1
(g7
tRp5019
g201
F1
ss(g3011
g515
tp5020
g1
(g7
tRp5021
g516
F1
ss(g1322
g1325
tp5022
g1
(g7
tRp5023
g710
F1
ss(g2363
tp5024
g1
(g7
tRp5025
g63
F1
ss(g3231
g846
tp5026
g1
(g7
tRp5027
g3939
F1
ss(g3387
g1363
tp5028
g1
(g7
tRp5029
g1364
F1
ss(g1919
g1196
tp5030
g1
(g7
tRp5031
S'a'
F0.5
sg3122
F0.5
ss(S'But'
g3511
tp5032
g1
(g7
tRp5033
g3780
F1
ss(S'That'
g934
tp5034
g1
(g7
tRp5035
g1126
F0.5
sg738
F0.5
ss(S'I'
g1993
tp5036
g1
(g7
tRp5037
g774
F1
ss(g1976
g3730
tp5038
g1
(g7
tRp5039
g3544
F1
ss(g4039
tp5040
g1
(g7
tRp5041
g4321
F1
ss(g500
g3533
tp5042
g1
(g7
tRp5043
S''
F1
ss(g541
tp5044
g1
(g7
tRp5045
g542
F1
ss(g716
g2397
tp5046
g1
(g7
tRp5047
g2398
F1
ss(g1292
S'America'
p5048
tp5049
g1
(g7
tRp5050
g94
F1
ss(g3186
tp5051
g1
(g7
tRp5052
g3379
F1
ss(g1103
tp5053
g1
(g7
tRp5054
S''
F1
ss(g21
g1585
tp5055
g1
(g7
tRp5056
g2269
F1
ss(g1999
g2002
tp5057
g1
(g7
tRp5058
S'a'
F1
ss(S'a'
g2365
tp5059
g1
(g7
tRp5060
g2083
F1
ss(g3925
tp5061
g1
(g7
tRp5062
g3092
F1
ss(g1877
g456
tp5063
g1
(g7
tRp5064
g457
F1
ss(g702
g715
tp5065
g1
(g7
tRp5066
g2847
F1
ss(g2525
tp5067
g1
(g7
tRp5068
g1338
F0.5
sg2232
F0.5
ss(g64
tp5069
g1
(g7
tRp5070
S''
F0.5
sg3608
F0.5
ss(g1062
S'a'
tp5071
g1
(g7
tRp5072
g191
F0.5
sg2364
F0.5
ss(g833
g836
tp5073
g1
(g7
tRp5074
g2371
F1
ss(g3176
g3513
tp5075
g1
(g7
tRp5076
g1427
F1
ss(g1069
g2927
tp5077
g1
(g7
tRp5078
g4204
F1
ss(g3172
tp5079
g1
(g7
tRp5080
S'a'
F0.33333333333333331
sS'going'
p5081
F0.33333333333333331
sg2755
F0.33333333333333331
ss(S'But'
g1097
tp5082
g1
(g7
tRp5083
g1098
F1
ss(g163
g909
tp5084
g1
(g7
tRp5085
g1717
F1
ss(g1576
g1579
tp5086
g1
(g7
tRp5087
g541
F0.19999999999999998
sg1869
F0.19999999999999998
sg2906
F0.19999999999999998
sg2903
F0.19999999999999998
sg2905
F0.19999999999999998
ss(S'I'
g1480
tp5088
g1
(g7
tRp5089
g1481
F1
ss(S'a'
g2090
tp5090
g1
(g7
tRp5091
g947
F1
ss(S'thing'
g1021
tp5092
g1
(g7
tRp5093
g2816
F1
ss(g1799
tp5094
g1
(g7
tRp5095
g820
F1
ss(g2397
tp5096
g1
(g7
tRp5097
g2398
F1
ss(g2662
g2348
tp5098
g1
(g7
tRp5099
g47
F1
ss(g3464
tp5100
g1
(g7
tRp5101
g3467
F1
ss(g196
g199
tp5102
g1
(g7
tRp5103
g818
F1
ss(g1376
tp5104
g1
(g7
tRp5105
g3313
F0.016129427844556395
sg2187
F0.016129427844556395
sg267
F0.016129427844556395
sg1350
F0.032256626019795037
sg2956
F0.016129427844556395
sg2468
F0.016129427844556395
sg1082
F0.016129427844556395
sg1103
F0.016129427844556395
sg2585
F0.016129427844556395
sg2385
F0.016129427844556395
sg2897
F0.016129427844556395
sg1923
F0.016129427844556395
sg2841
F0.016129427844556395
sg1179
F0.016129427844556395
sg1379
F0.016129427844556395
sg464
F0.016129427844556395
sg670
F0.016129427844556395
sg367
F0.016129427844556395
sg1674
F0.016129427844556395
sg3110
F0.08063822054551098
sg1568
F0.032256626019795037
sg3771
F0.032256626019795037
sg4
F0.016129427844556395
sg159
F0.032256626019795037
sg2108
F0.016129427844556395
sg1110
F0.016129427844556395
sg909
F0.016129427844556395
sg258
F0.016129427844556395
sg2645
F0.016129427844556395
sg1434
F0.016129427844556395
sg798
F0.016129427844556395
sg3925
F0.016129427844556395
sg3948
F0.016129427844556395
sg1996
F0.016129427844556395
sg1651
F0.016129427844556395
sg993
F0.016129427844556395
sg1009
F0.016129427844556395
sg1586
F0.016129427844556395
sg1576
F0.016129427844556395
sg1001
F0.016129427844556395
sg1016
F0.032256626019795037
sg2809
F0.016129427844556395
sg468
F0.032256626019795037
sg1496
F0.016129427844556395
sg878
F0.032256626019795037
sg2069
F0.016129427844556395
sg3713
F0.016129427844556395
sg570
F0.016129427844556395
sg889
F0.016129427844556395
sg2669
F0.016129427844556395
sg660
F0.016129427844556395
ss(g1658
g54
tp5106
g1
(g7
tRp5107
g58
F1
ss(g1167
g280
tp5108
g1
(g7
tRp5109
S''
F1
ss(S'I'
tp5110
g1
(g7
tRp5111
g492
F0.026321158947153648
sg1480
F0.026321158947153648
sg1876
F0.026321158947153648
sg3279
F0.026321158947153648
sg4912
F0.15787027590741121
sg39
F0.078940805731256669
sg1818
F0.026321158947153648
sg1993
F0.026321158947153648
sg525
F0.078940805731256669
sg2678
F0.026321158947153648
sg546
F0.026321158947153648
sg2950
F0.026321158947153648
sg1994
F0.026321158947153648
sg3760
F0.026321158947153648
sg1415
F0.026321158947153648
sg3866
F0.052630982339205164
sg2368
F0.052630982339205164
sg917
F0.21048992269151426
sg2033
F0.026321158947153648
sg2638
F0.026321158947153648
ss(g472
tp5112
g1
(g7
tRp5113
g609
F0.25142857142857145
sg1343
F0.25142857142857145
sg1701
F0.49714285714285716
ss(g2645
tp5114
g1
(g7
tRp5115
g2921
F1
ss(g1077
tp5116
g1
(g7
tRp5117
g1080
F1
ss(g3438
tp5118
g1
(g7
tRp5119
S''
F1
ss(g1214
g1217
tp5120
g1
(g7
tRp5121
S'I'
F1
ss(g2491
g709
tp5122
g1
(g7
tRp5123
g1354
F1
ss(g680
g2687
tp5124
g1
(g7
tRp5125
S'a'
F1
ss(S'And'
g1995
tp5126
g1
(g7
tRp5127
g1996
F1
ss(g156
tp5128
g1
(g7
tRp5129
S'a'
F0.28485576923076927
sS''
F0.14302884615384615
sg3478
F0.14302884615384615
sg521
F0.14302884615384615
sg1825
F0.14302884615384615
sg1628
F0.14302884615384615
ss(g843
g597
tp5130
g1
(g7
tRp5131
g598
F1
ss(g1292
tp5132
g1
(g7
tRp5133
g5048
F1
ss(g2823
g187
tp5134
g1
(g7
tRp5135
g190
F1
ss(g149
g289
tp5136
g1
(g7
tRp5137
g4635
F1
ss(S'of'
p5138
g2903
tp5139
g1
(g7
tRp5140
g4818
F1
ss(g2358
g1476
tp5141
g1
(g7
tRp5142
g1479
F1
ss(g1162
g1165
tp5143
g1
(g7
tRp5144
g1606
F1
ss(g274
tp5145
g1
(g7
tRp5146
g1265
F0.11133333333333333
sg802
F0.11133333333333333
sg2505
F0.11133333333333333
sg1861
F0.44333333333333336
sg2475
F0.11133333333333333
sg3121
F0.11133333333333333
ss(g172
g175
tp5147
g1
(g7
tRp5148
S'a'
F0.5
sg1746
F0.5
ss(g1129
S'a'
tp5149
g1
(g7
tRp5150
g1771
F1
ss(g3185
tp5151
g1
(g7
tRp5152
S''
F1
ss(g214
g219
tp5153
g1
(g7
tRp5154
S'a'
F0.19980554205153134
sg1137
F0.10014584346135148
sg3164
F0.10014584346135148
sg1538
F0.10014584346135148
sg422
F0.29946524064171121
sg4406
F0.10014584346135148
sS'the'
p5155
F0.10014584346135148
ss(g488
tp5156
g1
(g7
tRp5157
g491
F1
ss(g1228
tp5158
g1
(g7
tRp5159
S'a'
F0.25
sg2536
F0.25
sg3392
F0.25
sg1231
F0.25
ss(g1613
g3616
tp5160
g1
(g7
tRp5161
g2441
F1
ss(g739
g385
tp5162
g1
(g7
tRp5163
g386
F0.5
sg1625
F0.5
ss(g210
g213
tp5164
g1
(g7
tRp5165
S'tell'
p5166
F1
ss(g324
g3392
tp5167
g1
(g7
tRp5168
g3393
F1
ss(g3174
g4340
tp5169
g1
(g7
tRp5170
g3645
F1
ss(g2921
g2924
tp5171
g1
(g7
tRp5172
g4356
F1
ss(g1740
g196
tp5173
g1
(g7
tRp5174
g199
F1
ss(g3763
g2557
tp5175
g1
(g7
tRp5176
g2279
F1
ss(g1038
g1041
tp5177
g1
(g7
tRp5178
S''
F1
ss(g2222
g1639
tp5179
g1
(g7
tRp5180
g1640
F1
ss(g1276
tp5181
g1
(g7
tRp5182
g1279
F1
ss(g504
g2051
tp5183
g1
(g7
tRp5184
g2474
F1
ss(g1294
g2388
tp5185
g1
(g7
tRp5186
g2389
F1
ss(g162
g592
tp5187
g1
(g7
tRp5188
g593
F1
ss(g1293
g3727
tp5189
g1
(g7
tRp5190
g1031
F1
ss(g842
g1037
tp5191
g1
(g7
tRp5192
g2936
F1
ss(g3067
g2341
tp5193
g1
(g7
tRp5194
S''
F1
ss(g1590
g1593
tp5195
g1
(g7
tRp5196
g2907
F1
ss(S'It'
g4415
tp5197
g1
(g7
tRp5198
g3447
F1
ss(g3448
tp5199
g1
(g7
tRp5200
g3451
F0.5
sg3648
F0.5
ss(S'who'
p5201
g2423
tp5202
g1
(g7
tRp5203
g926
F1
ss(g418
g421
tp5204
g1
(g7
tRp5205
g1632
F1
ss(g1006
g1009
tp5206
g1
(g7
tRp5207
g1877
F1
ss(g2661
tp5208
g1
(g7
tRp5209
g1840
F0.5
sg72
F0.5
ss(g1973
g1976
tp5210
g1
(g7
tRp5211
g3730
F1
ss(g920
g2593
tp5212
g1
(g7
tRp5213
g706
F1
ss(g2374
tp5214
g1
(g7
tRp5215
g176
F0.20061728395061729
sg2375
F0.20061728395061729
sg4175
F0.20061728395061729
sS'kind'
p5216
F0.39814814814814814
ss(g3152
tp5217
g1
(g7
tRp5218
g511
F1
ss(g3682
g3301
tp5219
g1
(g7
tRp5220
g942
F0.33333333333333331
sg2956
F0.33333333333333331
sg3713
F0.33333333333333331
ss(g2719
tp5221
g1
(g7
tRp5222
S''
F0.5
sg2722
F0.5
ss(g12
S'a'
tp5223
g1
(g7
tRp5224
g2367
F1
ss(g2437
g2440
tp5225
g1
(g7
tRp5226
g2335
F1
ss(g1594
tp5227
g1
(g7
tRp5228
g1595
F1
ss(g2359
g339
tp5229
g1
(g7
tRp5230
g340
F1
ss(g1296
tp5231
g1
(g7
tRp5232
g1166
F1
ss(S'a'
g2367
tp5233
g1
(g7
tRp5234
g3407
F1
ss(g3347
g20
tp5235
g1
(g7
tRp5236
g1293
F0.33333333333333331
sg1292
F0.33333333333333331
sg95
F0.33333333333333331
ss(g1687
tp5237
g1
(g7
tRp5238
g1690
F0.5
sg1041
F0.5
ss(g53
g3973
tp5239
g1
(g7
tRp5240
g5201
F1
ss(g426
tp5241
g1
(g7
tRp5242
g644
F1
ss(g1066
tp5243
g1
(g7
tRp5244
g1069
F1
ss(g4064
g2755
tp5245
g1
(g7
tRp5246
g858
F1
ss(g3173
tp5247
g1
(g7
tRp5248
g3768
F0.79761904761904756
sg290
F0.20238095238095236
ss(g3182
g2648
tp5249
g1
(g7
tRp5250
g468
F1
ss(g1908
g12
tp5251
g1
(g7
tRp5252
S'a'
F1
ss(g2719
g2722
tp5253
g1
(g7
tRp5254
g2943
F1
ss(S'have'
g957
tp5255
g1
(g7
tRp5256
g3980
F1
ss(g862
tp5257
g1
(g7
tRp5258
g1269
F1
ss(g2373
g1034
tp5259
g1
(g7
tRp5260
g3276
F1
ss(g665
tp5261
g1
(g7
tRp5262
g2844
F1
ss(g3314
g3317
tp5263
g1
(g7
tRp5264
S''
F1
ss(g3418
g361
tp5265
g1
(g7
tRp5266
g749
F1
ss(g1254
S'a'
tp5267
g1
(g7
tRp5268
g2356
F0.125
sg1783
F0.125
sg3327
F0.125
sg1973
F0.125
sg2360
F0.125
sS'lot'
p5269
F0.125
sg2365
F0.125
sg1941
F0.125
ss(g58
tp5270
g1
(g7
tRp5271
S''
F0.33333333333333331
sg1141
F0.33333333333333331
sg3427
F0.33333333333333331
ss(g4038
g1812
tp5272
g1
(g7
tRp5273
S'I'
F1
ss(S'to'
g430
tp5274
g1
(g7
tRp5275
g3893
F1
ss(g4436
g2669
tp5276
g1
(g7
tRp5277
g2670
F1
ss(g1531
g1809
tp5278
g1
(g7
tRp5279
g681
F1
ss(g293
tp5280
g1
(g7
tRp5281
g3310
F0.33333333333333331
sg2122
F0.33333333333333331
sg626
F0.33333333333333331
ss(g333
tp5282
g1
(g7
tRp5283
S''
F1
ss(g1337
tp5284
g1
(g7
tRp5285
g3402
F1
ss(g1434
g1613
tp5286
g1
(g7
tRp5287
g3616
F1
ss(S'And'
S'I'
tp5288
g1
(g7
tRp5289
g4649
F0.7466666666666667
sg4912
F0.2533333333333333
ss(g1380
tp5290
g1
(g7
tRp5291
g131
F1
ss(g3024
g2946
tp5292
g1
(g7
tRp5293
g2770
F1
ss(g2824
tp5294
g1
(g7
tRp5295
g1394
F1
ss(g2494
g2497
tp5296
g1
(g7
tRp5297
S'a'
F1
ss(g49
S'a'
tp5298
g1
(g7
tRp5299
g377
F1
ss(g3172
g5081
tp5300
g1
(g7
tRp5301
g5012
F1
ss(g1284
tp5302
g1
(g7
tRp5303
g3007
F1
ss(g1772
g482
tp5304
g1
(g7
tRp5305
g209
F1
ss(S'And'
g630
tp5306
g1
(g7
tRp5307
g631
F1
ss(g3931
g3508
tp5308
g1
(g7
tRp5309
g4073
F1
ss(S'was'
p5310
g2373
tp5311
g1
(g7
tRp5312
g1034
F1
ss(g2532
g336
tp5313
g1
(g7
tRp5314
g1514
F1
ss(g2769
g1121
tp5315
g1
(g7
tRp5316
g1122
F1
ss(g3010
tp5317
g1
(g7
tRp5318
S''
F1
ss(g3880
tp5319
g1
(g7
tRp5320
g1358
F1
ss(g612
g615
tp5321
g1
(g7
tRp5322
S'that'
p5323
F1
ss(g1621
tp5324
g1
(g7
tRp5325
g1622
F1
ss(g257
g2082
tp5326
g1
(g7
tRp5327
g1283
F1
ss(g1564
g1567
tp5328
g1
(g7
tRp5329
g2828
F1
ss(g2885
tp5330
g1
(g7
tRp5331
g2888
F1
ss(g2953
tp5332
g1
(g7
tRp5333
g2253
F0.5
sg1227
F0.5
ss(g917
tp5334
g1
(g7
tRp5335
g921
F0.29946524064171126
sg2615
F0.1001458434613515
sg2570
F0.1001458434613515
sg920
F0.1001458434613515
sg922
F0.1001458434613515
sg923
F0.1001458434613515
sg910
F0.19980554205153139
ss(g1724
g2131
tp5336
g1
(g7
tRp5337
g57
F1
ss(g556
g304
tp5338
g1
(g7
tRp5339
g59
F1
ss(g3183
tp5340
g1
(g7
tRp5341
g2428
F1
ss(g1756
g3743
tp5342
g1
(g7
tRp5343
g3217
F1
ss(g715
tp5344
g1
(g7
tRp5345
g667
F0.125
sg1749
F0.125
sg170
F0.125
sg2847
F0.125
sg2828
F0.125
sg3268
F0.125
sg792
F0.125
sg1411
F0.125
ss(g2364
g3242
tp5346
g1
(g7
tRp5347
g1895
F1
ss(g1362
g1759
tp5348
g1
(g7
tRp5349
S'America'
p5350
F1
ss(S'A'
g607
tp5351
g1
(g7
tRp5352
g3464
F1
ss(g616
tp5353
g1
(g7
tRp5354
g617
F1
ss(g575
tp5355
g1
(g7
tRp5356
g578
F0.5
sg579
F0.5
ss(g736
g3501
tp5357
g1
(g7
tRp5358
g4232
F1
ss(g639
tp5359
g1
(g7
tRp5360
g732
F1
ss(g1674
tp5361
g1
(g7
tRp5362
S''
F1
ss(g1896
g1899
tp5363
g1
(g7
tRp5364
g2700
F1
ss(g1152
g1157
tp5365
g1
(g7
tRp5366
g2218
F1
ss(g1037
g2936
tp5367
g1
(g7
tRp5368
g1295
F1
ss(g3743
g3217
tp5369
g1
(g7
tRp5370
g1089
F1
ss(g3393
tp5371
g1
(g7
tRp5372
S'I'
F0.5
sg3396
F0.5
ss(g265
g1563
tp5373
g1
(g7
tRp5374
g1564
F1
ss(g4048
g3030
tp5375
g1
(g7
tRp5376
g1730
F1
ss(g117
g2006
tp5377
g1
(g7
tRp5378
g2007
F1
ss(g1770
g1290
tp5379
g1
(g7
tRp5380
g2312
F1
ss(g14
g384
tp5381
g1
(g7
tRp5382
g50
F1
ss(g2270
tp5383
g1
(g7
tRp5384
g2273
F1
ss(S'I'
g1876
tp5385
g1
(g7
tRp5386
g1423
F1
ss(g2736
g1280
tp5387
g1
(g7
tRp5388
g1294
F1
ss(g1601
g381
tp5389
g1
(g7
tRp5390
g14
F1
ss(g1853
tp5391
g1
(g7
tRp5392
g1854
F1
ss(g555
tp5393
g1
(g7
tRp5394
g556
F1
ss(g2924
g4356
tp5395
g1
(g7
tRp5396
S'they'
p5397
F1
ss(g966
g969
tp5398
g1
(g7
tRp5399
g1799
F1
ss(g2360
tp5400
g1
(g7
tRp5401
g3011
F1
ss(g3364
g1316
tp5402
g1
(g7
tRp5403
g1317
F1
ss(g1231
g3347
tp5404
g1
(g7
tRp5405
g20
F1
ss(g1531
tp5406
g1
(g7
tRp5407
S''
F0.027032609223890749
sS'a'
F0.21617582738008451
sg520
F0.027032609223890749
sg1137
F0.027032609223890749
sg547
F0.027032609223890749
sg1809
F0.027032609223890749
sg956
F0.027032609223890749
sg960
F0.027032609223890749
sg3164
F0.027032609223890749
sg1538
F0.027032609223890749
sg363
F0.027032609223890749
sg3387
F0.027032609223890749
sg422
F0.21617582738008451
sg4406
F0.027032609223890749
sg694
F0.054053068960489857
sg957
F0.027032609223890749
sg3301
F0.081073528697088962
sg2287
F0.027032609223890749
sg1590
F0.027032609223890749
sg959
F0.027032609223890749
ss(g902
tp5408
g1
(g7
tRp5409
S''
F0.5
sg903
F0.5
ss(g1247
tp5410
g1
(g7
tRp5411
g1406
F1
ss(g3985
g993
tp5412
g1
(g7
tRp5413
g996
F1
ss(S'want'
g3121
tp5414
g1
(g7
tRp5415
g2824
F1
ss(g2196
g1825
tp5416
g1
(g7
tRp5417
g1826
F1
ss(g2122
g4753
tp5418
g1
(g7
tRp5419
S''
F1
ss(g1093
S'I'
tp5420
g1
(g7
tRp5421
g5310
F1
ss(g3326
g4349
tp5422
g1
(g7
tRp5423
S'I'
F1
ss(g1607
tp5424
g1
(g7
tRp5425
g1610
F1
ss(g783
g2463
tp5426
g1
(g7
tRp5427
g473
F1
ss(g729
tp5428
g1
(g7
tRp5429
g1192
F1
ss(g1274
g1081
tp5430
g1
(g7
tRp5431
g1082
F1
ss(S'We'
g4339
tp5432
g1
(g7
tRp5433
g772
F1
ss(g3179
tp5434
g1
(g7
tRp5435
S''
F1
ss(g593
tp5436
g1
(g7
tRp5437
g596
F1
ss(g1222
g1114
tp5438
g1
(g7
tRp5439
g988
F1
ss(g231
g234
tp5440
g1
(g7
tRp5441
g2065
F1
ss(g659
g851
tp5442
g1
(g7
tRp5443
g1523
F1
ss(g1725
tp5444
g1
(g7
tRp5445
g869
F1
ss(g1640
g1643
tp5446
g1
(g7
tRp5447
S'I'
F1
ss(g1110
tp5448
g1
(g7
tRp5449
g1113
F1
ss(S'a'
g2362
tp5450
g1
(g7
tRp5451
g3418
F1
ss(g978
tp5452
g1
(g7
tRp5453
g981
F1
ss(g1585
tp5454
g1
(g7
tRp5455
S'a'
F0.041684210526315789
sS''
F0.041684210526315789
sg3067
F0.041684210526315789
sg2119
F0.041684210526315789
sg32
F0.083326315789473679
sg1528
F0.041684210526315789
sg859
F0.041684210526315789
sg204
F0.041684210526315789
sg2269
F0.041684210526315789
sg229
F0.041684210526315789
sg145
F0.041684210526315789
sg3681
F0.041684210526315789
sg2474
F0.16661052631578946
sg1090
F0.29153684210526315
ss(g3178
g3681
tp5456
g1
(g7
tRp5457
g3682
F1
ss(g3173
g3768
tp5458
g1
(g7
tRp5459
g3142
F0.25
sS'I'
F0.25
sg2052
F0.25
sg90
F0.25
ss(g3471
g1980
tp5460
g1
(g7
tRp5461
g1981
F1
ss(g1375
tp5462
g1
(g7
tRp5463
g1376
F1
ss(g3780
g258
tp5464
g1
(g7
tRp5465
S''
F1
ss(S'What'
g5216
tp5466
g1
(g7
tRp5467
g5138
F1
ss(g1470
g1473
tp5468
g1
(g7
tRp5469
g863
F1
ss(g1704
g1922
tp5470
g1
(g7
tRp5471
g3932
F1
ss(g3616
tp5472
g1
(g7
tRp5473
g2441
F1
ss(g4921
g180
tp5474
g1
(g7
tRp5475
g184
F1
ss(S'and'
g1292
tp5476
g1
(g7
tRp5477
g5048
F1
ss(g3187
tp5478
g1
(g7
tRp5479
g4415
F0.25
sg3292
F0.25
sg240
F0.25
sg3063
F0.25
ss(g534
g3478
tp5480
g1
(g7
tRp5481
g2084
F1
ss(g1606
tp5482
g1
(g7
tRp5483
g3533
F0.19999999999999998
sg2321
F0.19999999999999998
sg2351
F0.19999999999999998
sg44
F0.19999999999999998
sg688
F0.19999999999999998
ss(S'a'
g2359
tp5484
g1
(g7
tRp5485
g339
F1
ss(g1450
g320
tp5486
g1
(g7
tRp5487
S''
F1
ss(g4541
g1496
tp5488
g1
(g7
tRp5489
g2827
F1
ss(g2118
g792
tp5490
g1
(g7
tRp5491
g793
F1
ss(g1888
g1891
tp5492
g1
(g7
tRp5493
g1900
F1
ss(g3585
g2468
tp5494
g1
(g7
tRp5495
g2471
F1
ss(g1700
tp5496
g1
(g7
tRp5497
g3280
F1
ss(g570
g573
tp5498
g1
(g7
tRp5499
g4638
F1
ss(g487
g809
tp5500
g1
(g7
tRp5501
g4028
F1
ss(g224
g2135
tp5502
g1
(g7
tRp5503
g2138
F1
ss(S'a'
g2364
tp5504
g1
(g7
tRp5505
g3242
F1
ss(g3799
g3397
tp5506
g1
(g7
tRp5507
g3193
F1
ss(g649
g652
tp5508
g1
(g7
tRp5509
g118
F1
ss(g270
tp5510
g1
(g7
tRp5511
g271
F1
ss(S'But'
g3512
tp5512
g1
(g7
tRp5513
g1537
F1
ss(g2907
g961
tp5514
g1
(g7
tRp5515
g962
F1
ss(g1786
tp5516
g1
(g7
tRp5517
S''
F1
ss(g514
g663
tp5518
g1
(g7
tRp5519
g742
F1
ss(g3190
tp5520
g1
(g7
tRp5521
g248
F0.25142857142857145
sg1333
F0.25142857142857145
sg2532
F0.49714285714285716
ss(g2260
tp5522
g1
(g7
tRp5523
g810
F1
ss(g4839
g881
tp5524
g1
(g7
tRp5525
g997
F1
ss(g2978
g729
tp5526
g1
(g7
tRp5527
g1192
F1
ss(g1735
g1738
tp5528
g1
(g7
tRp5529
g4544
F1
ss(g3180
tp5530
g1
(g7
tRp5531
g4842
F1
ss(g3730
g3544
tp5532
g1
(g7
tRp5533
g2046
F1
ss(g931
g935
tp5534
g1
(g7
tRp5535
g2494
F1
ss(g1717
g1720
tp5536
g1
(g7
tRp5537
g2487
F1
ss(g3869
g828
tp5538
g1
(g7
tRp5539
g831
F1
ss(g2362
tp5540
g1
(g7
tRp5541
g3418
F1
ss(g107
g110
tp5542
g1
(g7
tRp5543
g1289
F1
ss(g956
g3485
tp5544
g1
(g7
tRp5545
g2773
F1
ss(g3188
tp5546
g1
(g7
tRp5547
g1551
F1
ss(g4339
g772
tp5548
g1
(g7
tRp5549
g1431
F1
ss(g849
tp5550
g1
(g7
tRp5551
g580
F1
ss(g2119
g2122
tp5552
g1
(g7
tRp5553
g4753
F1
ss(g1544
tp5554
g1
(g7
tRp5555
g2525
F0.25
sS''
F0.25
sg307
F0.25
sg1976
F0.25
ss(g2257
g2260
tp5556
g1
(g7
tRp5557
g810
F1
ss(g1435
g1438
tp5558
g1
(g7
tRp5559
g2953
F1
ss(g2105
g3214
tp5560
g1
(g7
tRp5561
S''
F0.5
sg1275
F0.5
ss(g1161
g965
tp5562
g1
(g7
tRp5563
g625
F1
ss(S'And'
g4063
tp5564
g1
(g7
tRp5565
S'me'
p5566
F1
ss(g850
g1573
tp5567
g1
(g7
tRp5568
g253
F1
ss(g1009
tp5569
g1
(g7
tRp5570
g1877
F1
ss(g956
tp5571
g1
(g7
tRp5572
g3485
F1
ss(g1481
S'a'
tp5573
g1
(g7
tRp5574
g2357
F1
ss(S'have'
g4406
tp5575
g1
(g7
tRp5576
g261
F1
ss(g3379
tp5577
g1
(g7
tRp5578
g1959
F1
ss(S'a'
g1387
tp5579
g1
(g7
tRp5580
g1202
F1
ss(g122
g128
tp5581
g1
(g7
tRp5582
g418
F1
ss(g1795
tp5583
g1
(g7
tRp5584
g1798
F0.7466666666666667
sg2007
F0.2533333333333333
ss(g2668
tp5585
g1
(g7
tRp5586
g2736
F1
ss(g2410
g1149
tp5587
g1
(g7
tRp5588
g936
F1
ss(g2700
g2703
tp5589
g1
(g7
tRp5590
S'a'
F1
ss(g1358
tp5591
g1
(g7
tRp5592
g1359
F1
ss(g331
g3387
tp5593
g1
(g7
tRp5594
g1363
F1
ss(S'a'
g765
tp5595
g1
(g7
tRp5596
g766
F1
ss(g185
g1949
tp5597
g1
(g7
tRp5598
g1950
F1
ss(g167
g170
tp5599
g1
(g7
tRp5600
g500
F1
ss(g488
g491
tp5601
g1
(g7
tRp5602
g2326
F1
ss(g176
g179
tp5603
g1
(g7
tRp5604
g2119
F1
ss(g142
g145
tp5605
g1
(g7
tRp5606
g655
F1
ss(S'as'
g3907
tp5607
g1
(g7
tRp5608
g902
F1
ss(g1909
tp5609
g1
(g7
tRp5610
S'a'
F0.16697588126159554
sS'I'
F0.16697588126159554
sg1912
F0.16697588126159554
sg2315
F0.16697588126159554
sg2609
F0.33209647495361783
ss(g417
g2222
tp5611
g1
(g7
tRp5612
g1639
F1
ss(S'I'
g2368
tp5613
g1
(g7
tRp5614
g2372
F0.5
sg2373
F0.5
ss(g769
g1500
tp5615
g1
(g7
tRp5616
g1298
F1
ss.