ccollections
defaultdict
p1
(cpymarkovchain.MarkovChain
_one_dict
p2
tRp3
(S'Medicaid'
p4
S'budget'
p5
tp6
g1
(cpymarkovchain.MarkovChain
_one
p7
tRp8
S''
F1
ss(S'at'
p9
tp10
g1
(g7
tRp11
S''
F0.11111111111111112
sS'what'
p12
F0.11111111111111112
sS'that'
p13
F0.11111111111111112
sS'us,'
p14
F0.11111111111111112
sS'the'
p15
F0.44444444444444448
sS'your'
p16
F0.11111111111111112
ss(S'America'
p17
tp18
g1
(g7
tRp19
S'and'
p20
F0.375
sS'to'
p21
F0.125
sS''
F0.5
ss(S'courts'
p22
tp23
g1
(g7
tRp24
S'and'
p25
F1
ss(S'do'
p26
S'in'
p27
tp28
g1
(g7
tRp29
S'Medicare'
p30
F1
ss(S'you'
p31
S'have'
p32
tp33
g1
(g7
tRp34
S'a'
F1
ss(S'me,'
p35
tp36
g1
(g7
tRp37
S'please'
p38
F1
ss(S'I'
S"don't"
p39
tp40
g1
(g7
tRp41
S'fear'
p42
F0.33333333333333337
sS'get'
p43
F0.66666666666666663
ss(S'it'
p44
tp45
g1
(g7
tRp46
S''
F0.27272727272727276
sS'on'
p47
F0.090909090909090925
sS'makes'
p48
F0.090909090909090925
sS'is'
p49
F0.090909090909090925
sS'will'
p50
F0.090909090909090925
sS'to'
p51
F0.18181818181818185
sS'with'
p52
F0.090909090909090925
sS'gives'
p53
F0.090909090909090925
ss(S'go'
p54
tp55
g1
(g7
tRp56
S'there'
p57
F0.33333333333333337
sS'through'
p58
F0.66666666666666663
ss(S'does'
p59
tp60
g1
(g7
tRp61
S''
F0.5
sS'understand'
p62
F0.5
ss(S'honest'
p63
S'person'
p64
tp65
g1
(g7
tRp66
S''
F1
ss(S'to'
p67
S'live'
p68
tp69
g1
(g7
tRp70
S'underground'
p71
F1
ss(S'80'
p72
tp73
g1
(g7
tRp74
S'million'
p75
F1
ss(S'said'
p76
S'we'
p77
tp78
g1
(g7
tRp79
S'just'
p80
F1
ss(S'now'
p81
tp82
g1
(g7
tRp83
S''
F0.5
sS'because'
p84
F0.5
ss(S'they'
p85
S"didn't"
p86
tp87
g1
(g7
tRp88
S'find'
p89
F1
ss(S'know,'
S'they'
p90
tp91
g1
(g7
tRp92
S'are'
p93
F1
ss(S'and'
p94
S'Mexico'
p95
tp96
g1
(g7
tRp97
S'that'
p98
F1
ss(S'done'
p99
tp100
g1
(g7
tRp101
S''
F0.5
sS'in'
p102
F0.5
ss(S'emulate'
p103
tp104
g1
(g7
tRp105
S''
F1
ss(S'drug'
p106
S'care'
p107
tp108
g1
(g7
tRp109
S'and'
p110
F1
ss(S'absolutely,'
p111
tp112
g1
(g7
tRp113
S'I'
F1
ss(S'lastly,'
p114
tp115
g1
(g7
tRp116
S'we'
p117
F1
ss(S'child'
p118
tp119
g1
(g7
tRp120
S''
F1
ss(S'going'
p121
S'to'
p122
tp123
g1
(g7
tRp124
S'be'
p125
F0.125
sS'hide'
p126
F0.125
sS'whine'
p127
F0.125
sS'an'
p128
F0.125
sS'cost'
p129
F0.125
sS'have'
p130
F0.375
ss(S'and'
p131
S'that'
p132
tp133
g1
(g7
tRp134
S'will'
p135
F1
ss(S'let'
p136
S'me'
p137
tp138
g1
(g7
tRp139
S'just'
p140
F1
ss(S'Hugh,'
p141
S'you'
p142
tp143
g1
(g7
tRp144
S'said'
p145
F1
ss(S'When'
p146
tp147
g1
(g7
tRp148
S'we'
p149
F1
ss(S'of'
p150
S'17'
p151
tp152
g1
(g7
tRp153
S'Republican'
p154
F1
ss(S'give'
p155
S'them'
p156
tp157
g1
(g7
tRp158
S'a'
F1
ss(S'way'
p159
tp160
g1
(g7
tRp161
S'do'
p162
F0.25
sS'the'
p163
F0.25
sS'too'
p164
F0.25
sS'that'
p165
F0.25
ss(S'turned'
p166
S'our'
p167
tp168
g1
(g7
tRp169
S'backs'
p170
F1
ss(S'protects'
p171
S'all'
p172
tp173
g1
(g7
tRp174
S'of'
p175
F1
ss(S'What'
S'could'
p176
tp177
g1
(g7
tRp178
S'you'
p179
F1
ss(S'if'
p180
tp181
g1
(g7
tRp182
S'not'
p183
F0.25
sS'Uncle'
p184
F0.25
sS'anybody'
p185
F0.25
sS'he'
p186
F0.25
ss(S'estate'
p187
tp188
g1
(g7
tRp189
S'dealings'
p190
F1
ss(S'large'
p191
S'deductible,'
p192
tp193
g1
(g7
tRp194
S'versus'
p195
F1
ss(S"they're"
p196
tp197
g1
(g7
tRp198
S'all'
p199
F1
ss(S'believe'
p200
S'it'
p201
tp202
g1
(g7
tRp203
g49
F1
ss(S'could'
p204
S'still'
p205
tp206
g1
(g7
tRp207
S'have'
p208
F1
ss(S'an'
p209
S'interview'
p210
tp211
g1
(g7
tRp212
S'will'
p213
F1
ss(S'And'
S'we'
p214
tp215
g1
(g7
tRp216
S'need'
p217
F0.19999999999999998
sS'also'
p218
F0.19999999999999998
sS'have'
p219
F0.39999999999999997
sS'give'
p220
F0.19999999999999998
ss(S'Joe'
p221
tp222
g1
(g7
tRp223
S'is'
p224
F1
ss(S'everybody,'
p225
S'you'
p226
tp227
g1
(g7
tRp228
S"didn't"
p229
F1
ss(S'about'
p230
S'us,'
p231
tp232
g1
(g7
tRp233
S"it's"
p234
F1
ss(S'anything'
p235
S'and'
p236
tp237
g1
(g7
tRp238
S'they'
p239
F1
ss(S'It'
S'guards'
p240
tp241
g1
(g7
tRp242
S'us'
p243
F1
ss(S'we'
p244
S'had'
p245
tp246
g1
(g7
tRp247
g166
F1
ss(S'not'
p248
S'us,'
p249
tp250
g1
(g7
tRp251
S'who'
p252
F1
ss(S'woman'
p253
S'and'
p254
tp255
g1
(g7
tRp256
S'child,'
p257
F1
ss(S'math'
p258
tp259
g1
(g7
tRp260
S''
F1
ss(S'ways'
p261
S'of'
p262
tp263
g1
(g7
tRp264
S'--'
p265
F1
ss(S'the'
p266
S'Constitution'
p267
tp268
g1
(g7
tRp269
g171
F1
ss(S'terrorists'
p270
S'who'
p271
tp272
g1
(g7
tRp273
S'want'
p274
F1
ss(S'which'
p275
S'is'
p276
tp277
g1
(g7
tRp278
S'way'
p279
F1
ss(S'seizure'
p280
tp281
g1
(g7
tRp282
S''
F1
ss(S'lot'
p283
S'because'
p284
tp285
g1
(g7
tRp286
S'I'
F1
ss(g146
g149
tp287
g1
(g7
tRp288
S'begin'
p289
F1
ss(S'You'
S'can'
p290
tp291
g1
(g7
tRp292
S'buy'
p293
F1
ss(S'care,'
p294
S'but'
p295
tp296
g1
(g7
tRp297
g106
F1
ss(S'If'
g248
tp298
g1
(g7
tRp299
g249
F1
ss(S'no'
p300
S'bureaucrats'
p301
tp302
g1
(g7
tRp303
S''
F1
ss(S'he'
p304
g59
tp305
g1
(g7
tRp306
g62
F1
ss(S'per'
p307
tp308
g1
(g7
tRp309
S'capita'
p310
F1
ss(S'to'
p311
S'say'
p312
tp313
g1
(g7
tRp314
S'about'
p315
F1
ss(S'expect'
p316
tp317
g1
(g7
tRp318
S'Apple'
p319
F1
ss(S'everybody'
p320
tp321
g1
(g7
tRp322
S''
F0.19999999999999998
sS'has'
p323
F0.19999999999999998
sS'from'
p324
F0.19999999999999998
sS'else'
p325
F0.39999999999999997
ss(S'they'
p326
tp327
g1
(g7
tRp328
S'do'
p329
F0.090909090909090898
sS'made'
p330
F0.045454545454545449
sS'have'
p331
F0.13636363636363633
sS"don't"
p332
F0.13636363636363633
sS'die'
p333
F0.045454545454545449
sg86
F0.090909090909090898
sS'will'
p334
F0.045454545454545449
sg76
F0.13636363636363633
sS'done'
p335
F0.045454545454545449
sg93
F0.045454545454545449
sS'want'
p336
F0.045454545454545449
sg54
F0.045454545454545449
sS"won't"
p337
F0.045454545454545449
sS'came'
p338
F0.045454545454545449
ss(S'savings'
p339
S'account'
p340
tp341
g1
(g7
tRp342
S'with'
p343
F1
ss(S'group'
p344
tp345
g1
(g7
tRp346
S''
F1
ss(g191
tp347
g1
(g7
tRp348
g192
F1
ss(S'are'
p349
S'like'
p350
tp351
g1
(g7
tRp352
S'a'
F1
ss(S'for'
p353
S'us'
p354
tp355
g1
(g7
tRp356
S'but'
p357
F1
ss(S'one'
p358
tp359
g1
(g7
tRp360
S''
F0.19999999999999998
sg150
F0.39999999999999997
sS'costs'
p361
F0.19999999999999998
sS'who'
p362
F0.19999999999999998
ss(S'saved'
p363
tp364
g1
(g7
tRp365
S'many'
p366
F1
ss(S'illegal'
p367
tp368
g1
(g7
tRp369
S'and'
p370
F0.5
sS'immigration,'
p371
F0.5
ss(S'is'
p372
S'actually'
p373
tp374
g1
(g7
tRp375
S'fair'
p376
F1
ss(S'responsibility'
p377
S'for'
p378
tp379
g1
(g7
tRp380
S'a'
F1
ss(S'at'
p381
g14
tp382
g1
(g7
tRp383
S'it'
p384
F1
ss(S'of'
p385
S'75'
p386
tp387
g1
(g7
tRp388
S'percent'
p389
F1
ss(S'a'
S'year'
p390
tp391
g1
(g7
tRp392
S''
F1
ss(S'de-fund'
p393
S'it'
p394
tp395
g1
(g7
tRp396
S''
F1
ss(S'about'
p397
S'these'
p398
tp399
g1
(g7
tRp400
S'hands'
p401
F1
ss(S'join'
p402
tp403
g1
(g7
tRp404
S'hands'
p405
F1
ss(S'gets'
p406
S'to'
p407
tp408
g1
(g7
tRp409
S'redefine'
p410
F1
ss(g68
tp411
g1
(g7
tRp412
g71
F1
ss(S'fruit'
p413
S'salad'
p414
tp415
g1
(g7
tRp416
S'of'
p417
F1
ss(g128
S'organization'
p418
tp419
g1
(g7
tRp420
S'like'
p421
F1
ss(g219
S'to'
p422
tp423
g1
(g7
tRp424
S'conform'
p425
F0.125
sS'remember'
p426
F0.125
sS'pay'
p427
F0.25
sS'stop'
p428
F0.125
sS'encourage'
p429
F0.125
sg68
F0.125
sS'present'
p430
F0.125
ss(g261
tp431
g1
(g7
tRp432
g262
F1
ss(S'within'
p433
S'their'
p434
tp435
g1
(g7
tRp436
S'health'
p437
F0.5
sS'family'
p438
F0.5
ss(S'and'
p439
S'choose'
p440
tp441
g1
(g7
tRp442
S'winners'
p443
F1
ss(S'easily'
p444
tp445
g1
(g7
tRp446
S''
F1
ss(S'these'
p447
S'problems'
p448
tp449
g1
(g7
tRp450
S'by'
p451
F1
ss(S'rights,'
p452
tp453
g1
(g7
tRp454
S'nobody'
p455
F1
ss(S'God'
p456
S'have'
p457
tp458
g1
(g7
tRp459
g363
F1
ss(S'only'
p460
S'the'
p461
tp462
g1
(g7
tRp463
S'North'
p464
F1
ss(S'not'
S'vote'
p465
tp466
g1
(g7
tRp467
S''
F1
ss(S'--'
p468
S'your'
p469
tp470
g1
(g7
tRp471
S'catastrophic'
p472
F1
ss(S'citizens,'
p473
tp474
g1
(g7
tRp475
S'they'
p476
F1
ss(S"let's"
p477
S'look'
p478
tp479
g1
(g7
tRp480
S'at'
p481
F1
ss(S'than'
p482
g209
tp483
g1
(g7
tRp484
g210
F1
ss(g22
g25
tp485
g1
(g7
tRp486
S'things'
p487
F1
ss(S'just'
S'add'
p488
tp489
g1
(g7
tRp490
S'my'
p491
F1
ss(S'I'
S'do'
p492
tp493
g1
(g7
tRp494
g200
F1
ss(S'they'
p495
g333
tp496
g1
(g7
tRp497
S''
F1
ss(g170
tp498
g1
(g7
tRp499
S'on'
p500
F1
ss(S'policy'
p501
tp502
g1
(g7
tRp503
S'where'
p504
F0.5
sS'with'
p505
F0.5
ss(S'is'
p506
S'catastrophic'
p507
tp508
g1
(g7
tRp509
S'healthcare'
p510
F1
ss(S'well,'
p511
tp512
g1
(g7
tRp513
S'first'
p514
F1
ss(S'foundation,'
p515
S'and'
p516
tp517
g1
(g7
tRp518
S'the'
p519
F1
ss(S'them'
p520
S'have'
p521
tp522
g1
(g7
tRp523
S'to'
p524
F1
ss(S"didn't"
p525
tp526
g1
(g7
tRp527
S'ask'
p528
F0.125
sS'think'
p529
F0.125
sS'hear'
p530
F0.125
sg89
F0.375
sS'get'
p531
F0.25
ss(g429
tp532
g1
(g7
tRp533
S'them'
p534
F1
ss(g332
S'have'
p535
tp536
g1
(g7
tRp537
g67
F1
ss(S'less'
S'money'
p538
tp539
g1
(g7
tRp540
g81
F1
ss(S'associations'
p541
S'do'
p542
tp543
g1
(g7
tRp544
S'they'
p545
F1
ss(S'have'
p546
S'fashioned'
p547
tp548
g1
(g7
tRp549
S'virtually'
p550
F1
ss(S'Secondly,'
p551
tp552
g1
(g7
tRp553
S'several'
p554
F1
ss(S'person,'
p555
S'but'
p556
tp557
g1
(g7
tRp558
g304
F1
ss(S'forward,'
p559
S'but'
p560
tp561
g1
(g7
tRp562
S'they'
p563
F1
ss(S'are'
p564
g270
tp565
g1
(g7
tRp566
g271
F1
ss(S'something'
p567
tp568
g1
(g7
tRp569
g311
F1
ss(S'matter'
p570
tp571
g1
(g7
tRp572
S'is'
p573
F1
ss(S'to'
p574
S'come'
p575
tp576
g1
(g7
tRp577
S'over'
p578
F0.5
sS'back'
p579
F0.5
ss(S'healthcare'
p580
S'with'
p581
tp582
g1
(g7
tRp583
S''
F1
ss(S'of'
p584
g447
tp585
g1
(g7
tRp586
g448
F1
ss(S'Japan'
p587
S'and'
p588
tp589
g1
(g7
tRp590
S'South'
p591
F1
ss(S'it,'
p592
S'although'
p593
tp594
g1
(g7
tRp595
S'if'
p596
F1
ss(S'solutions'
p597
S'tonight'
p598
tp599
g1
(g7
tRp600
S''
F1
ss(S'Justice'
p601
S'Scalia'
p602
tp603
g1
(g7
tRp604
S''
F1
ss(S'A'
tp605
g1
(g7
tRp606
S'tremendous'
p607
F0.5
sS'concierge'
p608
F0.5
ss(S'health'
p609
g294
tp610
g1
(g7
tRp611
g295
F1
ss(S'Think'
p612
tp613
g1
(g7
tRp614
S'about'
p615
F1
ss(S'Kim'
p616
S'Jung'
p617
tp618
g1
(g7
tRp619
S'Un'
p620
F1
ss(S'say'
p621
S'that'
p622
tp623
g1
(g7
tRp624
S'I'
F1
ss(S'buy'
p625
S'your'
p626
tp627
g1
(g7
tRp628
S'catastrophic'
p629
F1
ss(S"we're"
p630
S'going'
p631
tp632
g1
(g7
tRp633
S'to'
p634
F1
ss(S'are'
p635
S'here'
p636
tp637
g1
(g7
tRp638
S'already,'
p639
F1
ss(S'everybody'
p640
g323
tp641
g1
(g7
tRp642
S'the'
p643
F1
ss(g426
S'is'
p644
tp645
g1
(g7
tRp646
S'even'
p647
F1
ss(S'for'
p648
S'your'
p649
tp650
g1
(g7
tRp651
S'own'
p652
F1
ss(g145
tp653
g1
(g7
tRp654
g477
F0.5
sS"you're"
p655
F0.25
sg77
F0.25
ss(S'Association'
p656
tp657
g1
(g7
tRp658
S'for'
p659
F1
ss(S'first'
p660
tp661
g1
(g7
tRp662
S'of'
p663
F0.7142857142857143
sS'part'
p664
F0.14285714285714285
sS'met'
p665
F0.14285714285714285
ss(S'our'
p666
S'system'
p667
tp668
g1
(g7
tRp669
S''
F1
ss(S'fabric'
p670
tp671
g1
(g7
tRp672
S'of'
p673
F1
ss(S"That's"
p674
S'unfair'
p675
tp676
g1
(g7
tRp677
S''
F1
ss(g235
tp678
g1
(g7
tRp679
g236
F0.5
sS'because'
p680
F0.5
ss(S'in'
p681
S'disbelief'
p682
tp683
g1
(g7
tRp684
S''
F1
ss(g310
S'on'
p685
tp686
g1
(g7
tRp687
S'healthcare'
p688
F1
ss(S'else'
p689
tp690
g1
(g7
tRp691
S''
F0.5
sS'and'
p692
F0.25
sS'goes'
p693
F0.25
ss(S'they'
p694
g335
tp695
g1
(g7
tRp696
g102
F1
ss(g524
g425
tp697
g1
(g7
tRp698
S'to'
p699
F1
ss(g38
tp700
g1
(g7
tRp701
S''
F1
ss(S'that'
p702
tp703
g1
(g7
tRp704
S''
F0.15384615384615391
sS'area,'
p705
F0.025641025641025647
sS'we'
p706
F0.12820512820512825
sS'last'
p707
F0.025641025641025647
sS'give'
p708
F0.025641025641025647
sS'I'
F0.10256410256410259
sg372
F0.12820512820512825
sS'nobody'
p709
F0.025641025641025647
sS'seems'
p710
F0.025641025641025647
sS'anybody'
p711
F0.025641025641025647
sg135
F0.076923076923076941
sS'much'
p712
F0.025641025641025647
sS'if'
p713
F0.025641025641025647
sS'are'
p714
F0.025641025641025647
sg326
F0.051282051282051294
sS'our'
p715
F0.025641025641025647
sg266
F0.025641025641025647
sS'he'
p716
F0.025641025641025647
sS'nature'
p717
F0.025641025641025647
sS'improve'
p718
F0.025641025641025647
ss(S'wrong'
p719
tp720
g1
(g7
tRp721
S''
F1
ss(S'long'
p722
tp723
g1
(g7
tRp724
S'time'
p725
F1
ss(S'every'
p726
tp727
g1
(g7
tRp728
S'policy,'
p729
F0.25
sg344
F0.25
sS'family'
p730
F0.25
sS'scratch'
p731
F0.25
ss(S'after'
p732
S'we'
p733
tp734
g1
(g7
tRp735
S'--'
p736
F0.5
sS'stop'
p737
F0.5
ss(S'take'
p738
S'care'
p739
tp740
g1
(g7
tRp741
g385
F1
ss(S'all,'
p742
g136
tp743
g1
(g7
tRp744
g137
F1
ss(S'sure'
p745
S'that'
p746
tp747
g1
(g7
tRp748
g716
F1
ss(S'$10,000'
p749
tp750
g1
(g7
tRp751
S'a'
F1
ss(S'any'
p752
g584
tp753
g1
(g7
tRp754
g447
F1
ss(S'And'
S'as'
p755
tp756
g1
(g7
tRp757
S'far'
p758
F0.5
sS'president,'
p759
F0.5
ss(S'state'
p760
S'of'
p761
tp762
g1
(g7
tRp763
S'dependence'
p764
F1
ss(g155
tp765
g1
(g7
tRp766
S'it'
p767
F0.28571428571428575
sS'is'
p768
F0.14285714285714288
sg156
F0.28571428571428575
sS'liberty'
p769
F0.14285714285714288
sS'people'
p770
F0.14285714285714288
ss(S'chaos'
p771
tp772
g1
(g7
tRp773
S'in'
p774
F1
ss(g329
S'not'
p775
tp776
g1
(g7
tRp777
g465
F0.5
sS'become'
p778
F0.5
ss(S'be'
p779
S'reasonable'
p780
tp781
g1
(g7
tRp782
S''
F1
ss(S'as'
p783
S'well'
p784
tp785
g1
(g7
tRp786
S''
F1
ss(S'borders'
p787
S'fairly'
p788
tp789
g1
(g7
tRp790
g444
F1
ss(g652
g118
tp791
g1
(g7
tRp792
S''
F1
ss(S'IRS'
p793
tp794
g1
(g7
tRp795
S'is'
p796
F1
ss(S'people'
p797
S'to'
p798
tp799
g1
(g7
tRp800
S'think'
p801
F1
ss(g25
g487
tp802
g1
(g7
tRp803
S'of'
p804
F1
ss(S'which'
p805
g349
tp806
g1
(g7
tRp807
g350
F1
ss(S'all'
p808
tp809
g1
(g7
tRp810
S''
F0.125
sS'people'
p811
F0.125
sS'--'
p812
F0.125
sg175
F0.25
sS'interested'
p813
F0.125
sS'the'
p814
F0.25
ss(S'ourselves'
p815
tp816
g1
(g7
tRp817
S''
F1
ss(g710
tp818
g1
(g7
tRp819
S'to'
p820
F1
ss(g717
tp821
g1
(g7
tRp822
S''
F1
ss(S'liberty'
p823
tp824
g1
(g7
tRp825
S'and'
p826
F1
ss(S'My'
p827
S'name'
p828
tp829
g1
(g7
tRp830
S'was'
p831
F1
ss(g384
g50
tp832
g1
(g7
tRp833
S'be'
p834
F1
ss(g27
g30
tp835
g1
(g7
tRp836
S'Part'
p837
F1
ss(S'for'
p838
tp839
g1
(g7
tRp840
S'everybody'
p841
F0.090909090909090925
sS'a'
F0.090909090909090925
sg808
F0.090909090909090925
sS'America'
p842
F0.090909090909090925
sS'it'
p843
F0.090909090909090925
sg354
F0.090909090909090925
sS'traditional'
p844
F0.090909090909090925
sg597
F0.090909090909090925
sS'each'
p845
F0.090909090909090925
sS'Latino'
p846
F0.090909090909090925
sg649
F0.090909090909090925
ss(S'other'
p847
tp848
g1
(g7
tRp849
S''
F0.19999999999999998
sg261
F0.19999999999999998
sS'people'
p850
F0.19999999999999998
sS'people,'
p851
F0.19999999999999998
sS'nations'
p852
F0.19999999999999998
ss(S'you'
p853
S'tonight,'
p854
tp855
g1
(g7
tRp856
S'America,'
p857
F1
ss(S'in'
p858
S'which'
p859
tp860
g1
(g7
tRp861
S'to'
p862
F0.5
sS'we'
p863
F0.5
ss(S'to'
p864
S'do'
p865
tp866
g1
(g7
tRp867
S'is'
p868
F1
ss(S'secondary'
p869
tp870
g1
(g7
tRp871
S'to'
p872
F1
ss(S'National'
p873
tp874
g1
(g7
tRp875
g656
F0.5
sS'Prayer'
p876
F0.5
ss(S'it'
g48
tp877
g1
(g7
tRp878
S'every'
p879
F1
ss(g663
g742
tp880
g1
(g7
tRp881
S'I'
F0.19999999999999998
sS'people'
p882
F0.19999999999999998
sg136
F0.39999999999999997
sS'healthcare'
p883
F0.19999999999999998
ss(S'responsibility'
p884
S'of'
p885
tp886
g1
(g7
tRp887
S'Congress'
p888
F1
ss(S'together'
p889
tp890
g1
(g7
tRp891
S'a'
F1
ss(S'other'
g851
tp892
g1
(g7
tRp893
S'but,'
p894
F1
ss(g787
tp895
g1
(g7
tRp896
g788
F1
ss(S'Korea'
p897
S'is'
p898
tp899
g1
(g7
tRp900
S'concerned,'
p901
F1
ss(S'way'
g163
tp902
g1
(g7
tRp903
S'Republican'
p904
F1
ss(S"that's"
p905
tp906
g1
(g7
tRp907
S'probably'
p908
F0.16666666666666666
sS'the'
p909
F0.49999999999999994
sS'why'
p910
F0.16666666666666666
sS'left'
p911
F0.16666666666666666
ss(S'I'
S'think'
p912
tp913
g1
(g7
tRp914
S'everything'
p915
F0.125
sS'we'
p916
F0.375
sS'allowing'
p917
F0.125
sS'they'
p918
F0.125
sg905
F0.25
ss(g889
S'a'
tp919
g1
(g7
tRp920
g722
F1
ss(S'in'
p921
S'same-sex'
p922
tp923
g1
(g7
tRp924
S'marriage'
p925
F1
ss(S'That'
p926
tp927
g1
(g7
tRp928
S'will'
p929
F0.66666666666666663
sS'would'
p930
F0.33333333333333337
ss(S'almost'
p931
g72
tp932
g1
(g7
tRp933
g75
F1
ss(g689
g693
tp934
g1
(g7
tRp935
S'through'
p936
F1
ss(S'--'
p937
S'we'
p938
tp939
g1
(g7
tRp940
S'have'
p941
F1
ss(S'to'
p942
S'talk'
p943
tp944
g1
(g7
tRp945
S'about'
p946
F0.5
sS'that'
p947
F0.5
ss(S'to'
S'have'
p948
tp949
g1
(g7
tRp950
S'a'
F0.16666666666666666
sS'long-range'
p951
F0.16666666666666666
sS'nuclear'
p952
F0.16666666666666666
sS'to'
p953
F0.16666666666666666
sS'policies'
p954
F0.16666666666666666
sS'catastrophic'
p955
F0.16666666666666666
ss(S'left'
p956
S'over'
p957
tp958
g1
(g7
tRp959
S''
F0.5
sS'to'
p960
F0.5
ss(S'able'
p961
tp962
g1
(g7
tRp963
S'to'
p964
F1
ss(g865
g868
tp965
g1
(g7
tRp966
S'be'
p967
F0.5
sS'to'
p968
F0.5
ss(S"It's"
p969
S'not'
p970
tp971
g1
(g7
tRp972
g230
F1
ss(g531
S'asked'
p973
tp974
g1
(g7
tRp975
S'about'
p976
F1
ss(S'though'
p977
g640
tp978
g1
(g7
tRp979
g323
F1
ss(S'participate,'
p980
g275
tp981
g1
(g7
tRp982
g276
F1
ss(S'this'
p983
S'man'
p984
tp985
g1
(g7
tRp986
S'is'
p987
F1
ss(S'court'
p988
tp989
g1
(g7
tRp990
S'order'
p991
F1
ss(S'Breakfast,'
p992
tp993
g1
(g7
tRp994
S'and'
p995
F1
ss(S'the'
S'placement'
p996
tp997
g1
(g7
tRp998
S'of'
p999
F1
ss(S'by'
p1000
S'the'
p1001
tp1002
g1
(g7
tRp1003
S'grace'
p1004
F1
ss(g738
tp1005
g1
(g7
tRp1006
g739
F1
ss(S'real'
p1007
tp1008
g1
(g7
tRp1009
S'compassion'
p1010
F0.5
sg187
F0.5
ss(S'last'
p1011
S'thing'
p1012
tp1013
g1
(g7
tRp1014
S'we'
p1015
F0.5
sS'he'
p1016
F0.5
ss(S'know,'
p1017
S"it's"
p1018
tp1019
g1
(g7
tRp1020
S'like'
p1021
F1
ss(S'in,'
p1022
S'they'
p1023
tp1024
g1
(g7
tRp1025
g76
F1
ss(S'there'
p1026
tp1027
g1
(g7
tRp1028
S''
F0.5
sS'several'
p1029
F0.25
sg564
F0.25
ss(g30
g837
tp1030
g1
(g7
tRp1031
S'C,'
p1032
F1
ss(g183
S'now,'
p1033
tp1034
g1
(g7
tRp1035
S'when'
p1036
F1
ss(g675
tp1037
g1
(g7
tRp1038
S''
F1
ss(S'anything,'
p1039
S'so'
p1040
tp1041
g1
(g7
tRp1042
S'they'
p1043
F1
ss(S'know,'
g616
tp1044
g1
(g7
tRp1045
g617
F1
ss(S'still'
p1046
g393
tp1047
g1
(g7
tRp1048
g394
F1
ss(S'the'
p1049
g367
tp1050
g1
(g7
tRp1051
g371
F1
ss(g707
tp1052
g1
(g7
tRp1053
g1012
F0.66666666666666663
sS'year'
p1054
F0.33333333333333337
ss(S'providing'
p1055
S'people'
p1056
tp1057
g1
(g7
tRp1058
S'with'
p1059
F1
ss(g310
tp1060
g1
(g7
tRp1061
g685
F1
ss(S'$500'
p1062
S'short,'
p1063
tp1064
g1
(g7
tRp1065
S'mom'
p1066
F1
ss(g760
tp1067
g1
(g7
tRp1068
g761
F1
ss(S'less'
p1069
S'than'
p1070
tp1071
g1
(g7
tRp1072
S'borrowing'
p1073
F1
ss(g464
S'Koreans'
p1074
tp1075
g1
(g7
tRp1076
S'but'
p1077
F1
ss(S'the'
p1078
S'community'
p1079
tp1080
g1
(g7
tRp1081
S'as'
p1082
F1
ss(g62
S'strength'
p1083
tp1084
g1
(g7
tRp1085
S''
F1
ss(S'you'
p1086
S'know,'
p1087
tp1088
g1
(g7
tRp1089
g1018
F0.14285714285714288
sS'when'
p1090
F0.14285714285714288
sS"let's"
p1091
F0.14285714285714288
sS'how'
p1092
F0.14285714285714288
sg616
F0.14285714285714288
sS'you'
p1093
F0.14285714285714288
sg180
F0.14285714285714288
ss(S'most'
p1094
S'importantly,'
p1095
tp1096
g1
(g7
tRp1097
S'we'
p1098
F1
ss(S'the'
p1099
S'past'
p1100
tp1101
g1
(g7
tRp1102
S''
F1
ss(g199
g813
tp1103
g1
(g7
tRp1104
S'in'
p1105
F1
ss(S'the'
p1106
S'THAAD,'
p1107
tp1108
g1
(g7
tRp1109
S'the'
p1110
F1
ss(S'because'
p1111
g983
tp1112
g1
(g7
tRp1113
g984
F1
ss(g240
tp1114
g1
(g7
tRp1115
g243
F1
ss(g433
tp1116
g1
(g7
tRp1117
g434
F1
ss(S'do'
p1118
S'we'
p1119
tp1120
g1
(g7
tRp1121
S'take'
p1122
F1
ss(S'tell'
p1123
tp1124
g1
(g7
tRp1125
S'you'
p1126
F1
ss(g673
S'America'
p1127
tp1128
g1
(g7
tRp1129
S''
F1
ss(S'to'
p1130
g427
tp1131
g1
(g7
tRp1132
S'a'
F0.5
sS'taxes'
p1133
F0.5
ss(S'FISA'
p1134
tp1135
g1
(g7
tRp1136
g22
F1
ss(S'through'
p1137
S'and'
p1138
tp1139
g1
(g7
tRp1140
S'I'
F1
ss(S'because'
p1141
S"it's"
p1142
tp1143
g1
(g7
tRp1144
S'not'
p1145
F1
ss(S'billion;'
p1146
tp1147
g1
(g7
tRp1148
g931
F1
ss(S'system'
p1149
tp1150
g1
(g7
tRp1151
S''
F0.25
sS'of'
p1152
F0.25
sS'that'
p1153
F0.25
sS'in'
p1154
F0.25
ss(S"that's"
p1155
g911
tp1156
g1
(g7
tRp1157
S'over'
p1158
F1
ss(S'paying'
p1159
tp1160
g1
(g7
tRp1161
S'interest'
p1162
F1
ss(S'search'
p1163
S'and'
p1164
tp1165
g1
(g7
tRp1166
g280
F1
ss(g192
g195
tp1167
g1
(g7
tRp1168
S'a'
F1
ss(S'a'
S'chimney,'
p1169
tp1170
g1
(g7
tRp1171
S"everybody's"
p1172
F1
ss(S'to'
p1173
g726
tp1174
g1
(g7
tRp1175
g344
F1
ss(S'best'
p1176
S'way'
p1177
tp1178
g1
(g7
tRp1179
g162
F1
ss(g267
g171
tp1180
g1
(g7
tRp1181
g172
F1
ss(g725
S'ago'
p1182
tp1183
g1
(g7
tRp1184
S''
F1
ss(g968
S'reject'
p1185
tp1186
g1
(g7
tRp1187
S'Israel'
p1188
F1
ss(g729
S'looking'
p1189
tp1190
g1
(g7
tRp1191
S'at'
p1192
F1
ss(S'not'
p1193
S'a'
tp1194
g1
(g7
tRp1195
S'right'
p1196
F1
ss(g617
tp1197
g1
(g7
tRp1198
g620
F1
ss(S'just'
p1199
S'like'
p1200
tp1201
g1
(g7
tRp1202
S'we'
p1203
F1
ss(g323
tp1204
g1
(g7
tRp1205
g643
F0.33333333333333331
sg99
F0.33333333333333331
sS'been'
p1206
F0.33333333333333331
ss(S'money'
p1207
tp1208
g1
(g7
tRp1209
g81
F0.25
sg433
F0.25
sS'from'
p1210
F0.25
sg1155
F0.25
ss(S'finish,'
p1211
tp1212
g1
(g7
tRp1213
S'because'
p1214
F1
ss(S'strategic'
p1215
S'defense'
p1216
tp1217
g1
(g7
tRp1218
S'initiative'
p1219
F1
ss(S'encouraging'
p1220
tp1221
g1
(g7
tRp1222
S'the'
p1223
F0.66666666666666663
sg771
F0.33333333333333337
ss(S'in'
p1224
S'from'
p1225
tp1226
g1
(g7
tRp1227
S'South'
p1228
F1
ss(g75
S'people'
p1229
tp1230
g1
(g7
tRp1231
g980
F1
ss(g1196
tp1232
g1
(g7
tRp1233
S''
F1
ss(g1185
g1188
tp1234
g1
(g7
tRp1235
S''
F1
ss(g451
S'trying'
p1236
tp1237
g1
(g7
tRp1238
S'to'
p1239
F1
ss(S'as'
p1240
S'a'
tp1241
g1
(g7
tRp1242
S'whole'
p1243
F0.66666666666666663
sS'guest'
p1244
F0.33333333333333337
ss(g340
tp1245
g1
(g7
tRp1246
S'within'
p1247
F0.5
sg343
F0.5
ss(S'they'
p1248
g334
tp1249
g1
(g7
tRp1250
S'have'
p1251
F1
ss(g882
g621
tp1252
g1
(g7
tRp1253
g622
F1
ss(g996
tp1254
g1
(g7
tRp1255
g999
F1
ss(g947
g712
tp1256
g1
(g7
tRp1257
S''
F1
ss(S'lot'
p1258
g1069
tp1259
g1
(g7
tRp1260
g538
F0.5
sg1070
F0.5
ss(S'want'
p1261
S'and'
p1262
tp1263
g1
(g7
tRp1264
S'what'
p1265
F1
ss(S'to'
p1266
g402
tp1267
g1
(g7
tRp1268
g405
F1
ss(S'a'
g1243
tp1269
g1
(g7
tRp1270
S''
F0.5
sS'or'
p1271
F0.5
ss(S'are'
p1272
S'getting'
p1273
tp1274
g1
(g7
tRp1275
S'across'
p1276
F1
ss(S'and'
p1277
tp1278
g1
(g7
tRp1279
S'all'
p1280
F0.028571428571428567
sg280
F0.028571428571428567
sS'healed'
p1281
F0.028571428571428567
sS'our'
p1282
F0.028571428571428567
sS'intellect'
p1283
F0.028571428571428567
sg1265
F0.028571428571428567
sS'justice'
p1284
F0.057142857142857134
sg487
F0.028571428571428567
sS'revive'
p1285
F0.028571428571428567
sS'everything'
p1286
F0.028571428571428567
sg440
F0.028571428571428567
sS'correct'
p1287
F0.028571428571428567
sS'then'
p1288
F0.057142857142857134
sS'we'
p1289
F0.057142857142857134
sS'Central'
p1290
F0.028571428571428567
sg132
F0.028571428571428567
sS'Mexico,'
p1291
F0.028571428571428567
sS'failure'
p1292
F0.028571428571428567
sS'they'
p1293
F0.057142857142857134
sg257
F0.028571428571428567
sg591
F0.028571428571428567
sS'I'
F0.085714285714285701
sg95
F0.028571428571428567
sS'unreasonable'
p1294
F0.028571428571428567
sS'losers'
p1295
F0.028571428571428567
sS'become'
p1296
F0.028571428571428567
sS'the'
p1297
F0.057142857142857134
sS"that's"
p1298
F0.028571428571428567
ss(g834
S'the'
p1299
tp1300
g1
(g7
tRp1301
S'last'
p1302
F1
ss(g711
g689
tp1303
g1
(g7
tRp1304
g693
F1
ss(g402
g405
tp1305
g1
(g7
tRp1306
S'with'
p1307
F1
ss(S'about'
p1308
S'taxes'
p1309
tp1310
g1
(g7
tRp1311
S''
F1
ss(S'But'
g1007
tp1312
g1
(g7
tRp1313
g1010
F1
ss(S'Defense,'
p1314
tp1315
g1
(g7
tRp1316
S'that'
p1317
F1
ss(S'sudden,'
p1318
tp1319
g1
(g7
tRp1320
S'they'
p1321
F1
ss(g608
S'practice'
p1322
tp1323
g1
(g7
tRp1324
S''
F1
ss(S'someone'
p1325
S'had'
p1326
tp1327
g1
(g7
tRp1328
S'tried'
p1329
F1
ss(S'access'
p1330
S'than'
p1331
tp1332
g1
(g7
tRp1333
S'we'
p1334
F1
ss(g629
S'insurance'
p1335
tp1336
g1
(g7
tRp1337
S''
F1
ss(S'and'
p1338
g1298
tp1339
g1
(g7
tRp1340
g908
F1
ss(S'the'
p1341
S'people'
p1342
tp1343
g1
(g7
tRp1344
S''
F0.5
sS'who'
p1345
F0.5
ss(g709
S'will'
p1346
tp1347
g1
(g7
tRp1348
S'want'
p1349
F1
ss(S'doing'
p1350
S'things'
p1351
tp1352
g1
(g7
tRp1353
S'in'
p1354
F1
ss(S'acceptable'
p1355
S'record'
p1356
tp1357
g1
(g7
tRp1358
S''
F1
ss(S'extra'
p1359
S'rights'
p1360
tp1361
g1
(g7
tRp1362
S''
F1
ss(g1214
S'I'
tp1363
g1
(g7
tRp1364
S"didn't"
p1365
F0.33333333333333337
sS"don't"
p1366
F0.66666666666666663
ss(S'off'
p1367
S'the'
p1368
tp1369
g1
(g7
tRp1370
S'abyss'
p1371
F1
ss(S'many,'
p1372
g131
tp1373
g1
(g7
tRp1374
g132
F1
ss(g621
tp1375
g1
(g7
tRp1376
g315
F0.5
sg622
F0.5
ss(S'are'
p1377
S'that'
p1378
tp1379
g1
(g7
tRp1380
S''
F1
ss(S'menu,'
p1381
tp1382
g1
(g7
tRp1383
g1199
F1
ss(S"That's"
S'why'
p1384
tp1385
g1
(g7
tRp1386
S'we'
p1387
F1
ss(S'to'
p1388
g103
tp1389
g1
(g7
tRp1390
S''
F1
ss(S'strategic'
p1391
S'partner'
p1392
tp1393
g1
(g7
tRp1394
g353
F1
ss(S'that'
p1395
g711
tp1396
g1
(g7
tRp1397
g689
F1
ss(S'a'
g1244
tp1398
g1
(g7
tRp1399
S'worker,'
p1400
F1
ss(g98
g718
tp1401
g1
(g7
tRp1402
S'the'
p1403
F1
ss(S'our'
p1404
S'religious'
p1405
tp1406
g1
(g7
tRp1407
S'freedom'
p1408
F1
ss(S'had'
p1409
g567
tp1410
g1
(g7
tRp1411
g311
F1
ss(g455
S'get'
p1412
tp1413
g1
(g7
tRp1414
g1359
F1
ss(g48
g879
tp1415
g1
(g7
tRp1416
g730
F1
ss(S'to'
p1417
S'a'
tp1418
g1
(g7
tRp1419
S'lot'
p1420
F1
ss(S'terms'
p1421
S'of'
p1422
tp1423
g1
(g7
tRp1424
g1341
F1
ss(g770
S'the'
p1425
tp1426
g1
(g7
tRp1427
S'ability'
p1428
F1
ss(g1145
S'just'
p1429
tp1430
g1
(g7
tRp1431
S'people'
p1432
F1
ss(S'can'
p1433
S'always'
p1434
tp1435
g1
(g7
tRp1436
S'be'
p1437
F1
ss(g127
S'because'
p1438
tp1439
g1
(g7
tRp1440
S'I'
F1
ss(g708
g769
tp1441
g1
(g7
tRp1442
S'and'
p1443
F1
ss(S'attract'
p1444
tp1445
g1
(g7
tRp1446
g320
F1
ss(S"what's"
p1447
S'going'
p1448
tp1449
g1
(g7
tRp1450
S'on'
p1451
F1
ss(g95
g98
tp1452
g1
(g7
tRp1453
g718
F1
ss(S'movie'
p1454
S'was'
p1455
tp1456
g1
(g7
tRp1457
S'made'
p1458
F1
ss(S'We'
S'have'
p1459
tp1460
g1
(g7
tRp1461
S'a'
F1
ss(g693
g936
tp1462
g1
(g7
tRp1463
S''
F1
ss(S'a'
S'six-month'
p1464
tp1465
g1
(g7
tRp1466
S'period'
p1467
F1
ss(g75
tp1468
g1
(g7
tRp1469
g1229
F1
ss(S'society,'
p1470
tp1471
g1
(g7
tRp1472
S'and'
p1473
F1
ss(S"couldn't"
p1474
S'find'
p1475
tp1476
g1
(g7
tRp1477
S'a'
F1
ss(g225
tp1478
g1
(g7
tRp1479
g226
F1
ss(S'and'
p1480
g1295
tp1481
g1
(g7
tRp1482
S''
F1
ss(S'rid'
p1483
S'of'
p1484
tp1485
g1
(g7
tRp1486
S'them'
p1487
F1
ss(g52
S'the'
p1488
tp1489
g1
(g7
tRp1490
S'judicial'
p1491
F0.33333333333333331
sg988
F0.33333333333333331
sS'same'
p1492
F0.33333333333333331
ss(g764
tp1493
g1
(g7
tRp1494
S'and'
p1495
F1
ss(g1286
S'else'
p1496
tp1497
g1
(g7
tRp1498
S''
F1
ss(S'find'
p1499
g235
tp1500
g1
(g7
tRp1501
g236
F0.5
sg680
F0.5
ss(g851
tp1502
g1
(g7
tRp1503
g894
F1
ss(S'of'
p1504
S'this'
p1505
tp1506
g1
(g7
tRp1507
S'nation,'
p1508
F1
ss(S'to'
p1509
S'become'
p1510
tp1511
g1
(g7
tRp1512
S'an'
p1513
F1
ss(S'such'
p1514
tp1515
g1
(g7
tRp1516
S'a'
F1
ss(g1295
tp1517
g1
(g7
tRp1518
S''
F1
ss(S'Elected'
p1519
S'Officials,'
p1520
tp1521
g1
(g7
tRp1522
S'I'
F1
ss(S'you'
p1523
S'would'
p1524
tp1525
g1
(g7
tRp1526
S'have'
p1527
F1
ss(g1434
g1437
tp1528
g1
(g7
tRp1529
S'fair'
p1530
F1
ss(g1185
tp1531
g1
(g7
tRp1532
g1188
F1
ss(S'have'
p1533
S'mechanisms'
p1534
tp1535
g1
(g7
tRp1536
S'in'
p1537
F1
ss(S'So'
g111
tp1538
g1
(g7
tRp1539
S'I'
F1
ss(S'much'
p1540
g307
tp1541
g1
(g7
tRp1542
g310
F1
ss(g820
S'disturb'
p1543
tp1544
g1
(g7
tRp1545
S'not'
p1546
F1
ss(S'costs'
p1547
S'$1,500'
p1548
tp1549
g1
(g7
tRp1550
S'a'
F1
ss(S'many'
p1551
S'other'
p1552
tp1553
g1
(g7
tRp1554
g852
F1
ss(S'against'
p1555
tp1556
g1
(g7
tRp1557
S'illegal'
p1558
F1
ss(S'of'
p1559
S'utilizing'
p1560
tp1561
g1
(g7
tRp1562
S'our'
p1563
F1
ss(S'next'
p1564
S'year'
p1565
tp1566
g1
(g7
tRp1567
S'and'
p1568
F0.5
sS''
F0.5
ss(S'man,'
p1569
tp1570
g1
(g7
tRp1571
g253
F1
ss(g909
S'kind'
p1572
tp1573
g1
(g7
tRp1574
S'of'
p1575
F1
ss(S'Area'
p1576
tp1577
g1
(g7
tRp1578
g1314
F1
ss(g17
g21
tp1579
g1
(g7
tRp1580
S'you'
p1581
F1
ss(S'Terminal'
p1582
S'High-Altitude'
p1583
tp1584
g1
(g7
tRp1585
g1576
F1
ss(g208
S'thousands'
p1586
tp1587
g1
(g7
tRp1588
S'of'
p1589
F1
ss(S'middle'
p1590
S'man'
p1591
tp1592
g1
(g7
tRp1593
S''
F1
ss(S'with'
p1594
g587
tp1595
g1
(g7
tRp1596
g588
F1
ss(S'missile'
p1597
tp1598
g1
(g7
tRp1599
g381
F1
ss(g1162
tp1600
g1
(g7
tRp1601
S'on'
p1602
F1
ss(g1152
S'taxation'
p1603
tp1604
g1
(g7
tRp1605
S'in'
p1606
F1
ss(g1428
tp1607
g1
(g7
tRp1608
S'to'
p1609
F1
ss(g30
tp1610
g1
(g7
tRp1611
g837
F1
ss(g63
tp1612
g1
(g7
tRp1613
S'and'
p1614
F0.5
sg64
F0.5
ss(g340
g343
tp1615
g1
(g7
tRp1616
g300
F1
ss(S'mention'
p1617
S'that'
p1618
tp1619
g1
(g7
tRp1620
g707
F1
ss(S'of'
S'them'
p1621
tp1622
g1
(g7
tRp1623
S''
F0.5
sS'now'
p1624
F0.5
ss(g1119
g1122
tp1625
g1
(g7
tRp1626
S'care'
p1627
F1
ss(g421
S'that'
p1628
tp1629
g1
(g7
tRp1630
S'is'
p1631
F1
ss(g731
tp1632
g1
(g7
tRp1633
S'covered'
p1634
F1
ss(S'life'
p1635
S'is'
p1636
tp1637
g1
(g7
tRp1638
S'what'
p1639
F1
ss(S'So'
S"dad's"
p1640
tp1641
g1
(g7
tRp1642
g1062
F1
ss(S'And'
S'this'
p1643
tp1644
g1
(g7
tRp1645
S'is'
p1646
F1
ss(g814
S'borders,'
p1647
tp1648
g1
(g7
tRp1649
g1141
F1
ss(g984
g987
tp1650
g1
(g7
tRp1651
S'going'
p1652
F1
ss(S'citizen,'
p1653
S'they'
p1654
tp1655
g1
(g7
tRp1656
g54
F1
ss(g427
tp1657
g1
(g7
tRp1658
S'a'
F0.25
sS'for'
p1659
F0.5
sg1133
F0.25
ss(g608
tp1660
g1
(g7
tRp1661
g1322
F1
ss(g190
tp1662
g1
(g7
tRp1663
S''
F1
ss(S'the'
p1664
g873
tp1665
g1
(g7
tRp1666
g656
F0.5
sg876
F0.5
ss(g457
g363
tp1667
g1
(g7
tRp1668
g366
F1
ss(S'the'
p1669
S'question'
p1670
tp1671
g1
(g7
tRp1672
S''
F1
ss(g440
g443
tp1673
g1
(g7
tRp1674
g1480
F1
ss(g894
tp1675
g1
(g7
tRp1676
S'you'
p1677
F1
ss(S'Can'
p1678
tp1679
g1
(g7
tRp1680
S'somebody'
p1681
F1
ss(S'And'
S'now,'
p1682
tp1683
g1
(g7
tRp1684
S'as'
p1685
F1
ss(g1474
tp1686
g1
(g7
tRp1687
g1475
F1
ss(S'I'
g1409
tp1688
g1
(g7
tRp1689
g567
F1
ss(g1572
tp1690
g1
(g7
tRp1691
g1575
F1
ss(S'or'
p1692
S'a'
tp1693
g1
(g7
tRp1694
S'cousin'
p1695
F1
ss(g472
S'healthcare'
p1696
tp1697
g1
(g7
tRp1698
S''
F0.5
sS'is'
p1699
F0.5
ss(g682
tp1700
g1
(g7
tRp1701
S''
F1
ss(S'thing'
p1702
tp1703
g1
(g7
tRp1704
g1015
F0.33333333333333331
sg1016
F0.33333333333333331
sS'coming'
p1705
F0.33333333333333331
ss(g276
g279
tp1706
g1
(g7
tRp1707
g164
F1
ss(S'in'
p1708
S'that'
p1709
tp1710
g1
(g7
tRp1711
g705
F1
ss(S'Party'
p1712
tp1713
g1
(g7
tRp1714
S'generally'
p1715
F1
ss(S'candidates'
p1716
tp1717
g1
(g7
tRp1718
S'to'
p1719
F1
ss(S'need'
p1720
g864
tp1721
g1
(g7
tRp1722
g865
F0.20000000000000001
sS'secure'
p1723
F0.10000000000000001
sS'get'
p1724
F0.10000000000000001
sg948
F0.20000000000000001
sg779
F0.29999999999999999
sg575
F0.10000000000000001
ss(S"you're"
p1725
S'encouraging'
p1726
tp1727
g1
(g7
tRp1728
g771
F1
ss(S'insurance'
p1729
S'carrier'
p1730
tp1731
g1
(g7
tRp1732
S'with'
p1733
F1
ss(S'cigarettes'
p1734
S'because'
p1735
tp1736
g1
(g7
tRp1737
g196
F1
ss(g1505
g1508
tp1738
g1
(g7
tRp1739
S'and'
p1740
F1
ss(g175
S'our'
p1741
tp1742
g1
(g7
tRp1743
S'rights'
p1744
F1
ss(g166
tp1745
g1
(g7
tRp1746
g167
F1
ss(S'And'
p1747
S"I've"
p1748
tp1749
g1
(g7
tRp1750
S'already'
p1751
F1
ss(g1351
g1354
tp1752
g1
(g7
tRp1753
S'South'
p1754
F1
ss(S'this'
p1755
S'country'
p1756
tp1757
g1
(g7
tRp1758
S'that'
p1759
F1
ss(S'would'
p1760
g316
tp1761
g1
(g7
tRp1762
g319
F1
ss(g579
tp1763
g1
(g7
tRp1764
S'and'
p1765
F1
ss(S'lot'
p1766
S'more'
p1767
tp1768
g1
(g7
tRp1769
S'flexibility'
p1770
F0.5
sg482
F0.5
ss(S'back-tax'
p1771
tp1772
g1
(g7
tRp1773
S'penalty,'
p1774
F1
ss(g925
tp1775
g1
(g7
tRp1776
S'the'
p1777
F1
ss(S'a'
S'Fourth'
p1778
tp1779
g1
(g7
tRp1780
S'Amendment'
p1781
F1
ss(S'know,'
p1782
g1093
tp1783
g1
(g7
tRp1784
S'want'
p1785
F1
ss(S'to'
p1786
g225
tp1787
g1
(g7
tRp1788
g226
F1
ss(S'do'
p1789
S'should'
p1790
tp1791
g1
(g7
tRp1792
S'be'
p1793
F1
ss(g964
S'defend'
p1794
tp1795
g1
(g7
tRp1796
g815
F1
ss(S'Ted,'
p1797
S'John,'
p1798
tp1799
g1
(g7
tRp1800
S'we'
p1801
F1
ss(g846
g1519
tp1802
g1
(g7
tRp1803
g1520
F1
ss(S'listened'
p1804
tp1805
g1
(g7
tRp1806
g681
F1
ss(S'that,'
p1807
S'I'
tp1808
g1
(g7
tRp1809
S'think'
p1810
F1
ss(g1778
g1781
tp1811
g1
(g7
tRp1812
S''
F1
ss(S'propose'
p1813
S'a'
tp1814
g1
(g7
tRp1815
g1149
F1
ss(S'These'
p1816
tp1817
g1
(g7
tRp1818
S'hands'
p1819
F1
ss(S'not'
p1820
S'only'
p1821
tp1822
g1
(g7
tRp1823
S'to'
p1824
F0.5
sg461
F0.5
ss(g793
g796
tp1825
g1
(g7
tRp1826
S'not'
p1827
F1
ss(S'only'
p1828
g1702
tp1829
g1
(g7
tRp1830
g1705
F1
ss(g956
tp1831
g1
(g7
tRp1832
g957
F1
ss(g72
g75
tp1833
g1
(g7
tRp1834
g1229
F1
ss(S'twice'
p1835
tp1836
g1
(g7
tRp1837
S'as'
p1838
F1
ss(S'be'
S'developing'
p1839
tp1840
g1
(g7
tRp1841
g1215
F1
ss(g86
g89
tp1842
g1
(g7
tRp1843
g235
F0.33333333333333337
sg1039
F0.66666666666666663
ss(g42
g121
tp1844
g1
(g7
tRp1845
g122
F1
ss(g525
g530
tp1846
g1
(g7
tRp1847
S'the'
p1848
F1
ss(S'Yes,'
p1849
S'amen,'
p1850
tp1851
g1
(g7
tRp1852
S'amen'
p1853
F1
ss(g1548
tp1854
g1
(g7
tRp1855
S'a'
F0.5
sS'one'
p1856
F0.5
ss(g274
S'to'
p1857
tp1858
g1
(g7
tRp1859
S'destroy'
p1860
F0.25
sS'be'
p1861
F0.25
sS'look'
p1862
F0.25
sg1510
F0.25
ss(S'think'
g905
tp1863
g1
(g7
tRp1864
g909
F1
ss(S'situation'
p1865
S'that'
p1866
tp1867
g1
(g7
tRp1868
g372
F1
ss(S'ago,'
p1869
S'I'
tp1870
g1
(g7
tRp1871
S'talked'
p1872
F1
ss(g1004
S'of'
p1873
tp1874
g1
(g7
tRp1875
g456
F1
ss(g730
S'their'
p1876
tp1877
g1
(g7
tRp1878
S'own'
p1879
F1
ss(S'And'
S'then'
p1880
tp1881
g1
(g7
tRp1882
g85
F1
ss(S'when'
p1883
S'we'
p1884
tp1885
g1
(g7
tRp1886
S'got'
p1887
F0.5
sS'fix'
p1888
F0.5
ss(g647
tp1889
g1
(g7
tRp1890
g977
F1
ss(S'opportunity'
p1891
S'to'
p1892
tp1893
g1
(g7
tRp1894
S'climb'
p1895
F1
ss(S'an'
p1896
S'honorary'
p1897
tp1898
g1
(g7
tRp1899
S'degree'
p1900
F1
ss(S'look'
p1901
tp1902
g1
(g7
tRp1903
S'at'
p1904
F1
ss(S'But'
S'what'
p1905
tp1906
g1
(g7
tRp1907
S'we'
p1908
F1
ss(S'destroy'
p1909
S'each'
p1910
tp1911
g1
(g7
tRp1912
g847
F1
ss(g447
tp1913
g1
(g7
tRp1914
g448
F0.5
sg401
F0.5
ss(g883
S'is'
p1915
tp1916
g1
(g7
tRp1917
g1193
F0.5
sS'going'
p1918
F0.5
ss(S'border'
p1919
tp1920
g1
(g7
tRp1921
S''
F1
ss(S'do'
p1922
S'you'
p1923
tp1924
g1
(g7
tRp1925
g1261
F1
ss(g1070
tp1926
g1
(g7
tRp1927
g1334
F0.33333333333333331
sg1073
F0.33333333333333331
sg209
F0.33333333333333331
ss(g145
g655
tp1928
g1
(g7
tRp1929
S'going'
p1930
F1
ss(S'to'
g779
tp1931
g1
(g7
tRp1932
g961
F0.19999999999999998
sS'fair'
p1933
F0.39999999999999997
sg780
F0.19999999999999998
sg1839
F0.19999999999999998
ss(g1298
g908
tp1934
g1
(g7
tRp1935
S'the'
p1936
F1
ss(S'a'
S'special'
p1937
tp1938
g1
(g7
tRp1939
S'attention'
p1940
F1
ss(S'So,'
p1941
tp1942
g1
(g7
tRp1943
S"it's"
p1944
F1
ss(S'still'
p1945
S'did,'
p1946
tp1947
g1
(g7
tRp1948
S'I'
F1
ss(g171
tp1949
g1
(g7
tRp1950
g172
F1
ss(S'a'
g1258
tp1951
g1
(g7
tRp1952
S'better'
p1953
F0.14285714285714288
sS'of'
p1954
F0.14285714285714288
sg1767
F0.28571428571428575
sg284
F0.14285714285714288
sg1069
F0.28571428571428575
ss(S'for'
p1955
g845
tp1956
g1
(g7
tRp1957
g1569
F1
ss(g126
S'his'
p1958
tp1959
g1
(g7
tRp1960
g1734
F1
ss(g1941
g1944
tp1961
g1
(g7
tRp1962
S'like'
p1963
F1
ss(g184
tp1964
g1
(g7
tRp1965
g221
F1
ss(g1774
tp1966
g1
(g7
tRp1967
S'have'
p1968
F1
ss(S'a'
S'much'
p1969
tp1970
g1
(g7
tRp1971
S'more'
p1972
F1
ss(S'will'
p1973
g1444
tp1974
g1
(g7
tRp1975
g320
F1
ss(S'things'
p1976
S'is'
p1977
tp1978
g1
(g7
tRp1979
S'bad'
p1980
F1
ss(g1980
S'for'
p1981
tp1982
g1
(g7
tRp1983
g842
F1
ss(g1565
g1568
tp1984
g1
(g7
tRp1985
g1297
F1
ss(S'that'
p1986
S'I'
tp1987
g1
(g7
tRp1988
S'give'
p1989
F0.25
sS'whine'
p1990
F0.25
sg546
F0.25
sg39
F0.25
ss(S'the'
p1991
S'reason'
p1992
tp1993
g1
(g7
tRp1994
g1986
F1
ss(g186
S'ever'
p1995
tp1996
g1
(g7
tRp1997
S'shoots'
p1998
F0.5
sS'does'
p1999
F0.5
ss(S'be'
g961
tp2000
g1
(g7
tRp2001
g964
F1
ss(S'should'
p2002
S'make'
p2003
tp2004
g1
(g7
tRp2005
g745
F1
ss(g1534
tp2006
g1
(g7
tRp2007
g1537
F1
ss(g1744
tp2008
g1
(g7
tRp2009
S''
F0.66666666666666663
sS'as'
p2010
F0.33333333333333337
ss(S'the'
g1564
tp2011
g1
(g7
tRp2012
g1565
F1
ss(g1801
S'will'
p2013
tp2014
g1
(g7
tRp2015
S'not'
p2016
F0.33333333333333331
sg1444
F0.33333333333333331
sS'lose'
p2017
F0.33333333333333331
ss(g195
S'a'
tp2018
g1
(g7
tRp2019
S'homeowners'
p2020
F1
ss(g1280
g812
tp2021
g1
(g7
tRp2022
g1248
F1
ss(g1946
tp2023
g1
(g7
tRp2024
S'I'
F1
ss(S'after'
p2025
S'that,'
p2026
tp2027
g1
(g7
tRp2028
g1338
F1
ss(S'I'
S'hope'
p2029
tp2030
g1
(g7
tRp2031
S'we'
p2032
F1
ss(g80
S'want'
p2033
tp2034
g1
(g7
tRp2035
S'to'
p2036
F1
ss(g332
tp2037
g1
(g7
tRp2038
g43
F0.28571428571428575
sS'feel'
p2039
F0.14285714285714288
sg535
F0.14285714285714288
sS'pick'
p2040
F0.14285714285714288
sg42
F0.14285714285714288
sS'comply'
p2041
F0.14285714285714288
ss(S'presence'
p2042
g1708
tp2043
g1
(g7
tRp2044
g1709
F1
ss(S'policy'
g504
tp2045
g1
(g7
tRp2046
S'you'
p2047
F1
ss(S'know,'
S'we'
p2048
tp2049
g1
(g7
tRp2050
S'have'
p2051
F1
ss(g1678
g1681
tp2052
g1
(g7
tRp2053
S'attack'
p2054
F1
ss(g2040
g439
tp2055
g1
(g7
tRp2056
g440
F1
ss(g300
tp2057
g1
(g7
tRp2058
g1590
F0.5
sg301
F0.5
ss(g1547
tp2059
g1
(g7
tRp2060
g1548
F0.5
sg749
F0.5
ss(S'about'
p2061
S'the'
p2062
tp2063
g1
(g7
tRp2064
S'American'
p2065
F1
ss(g2010
S'everybody'
p2066
tp2067
g1
(g7
tRp2068
g325
F1
ss(g1040
g1043
tp2069
g1
(g7
tRp2070
S'said'
p2071
F1
ss(g257
tp2072
g1
(g7
tRp2073
S'and'
p2074
F0.5
sS'you'
p2075
F0.5
ss(S'act'
p2076
tp2077
g1
(g7
tRp2078
S'in'
p2079
F1
ss(g1958
tp2080
g1
(g7
tRp2081
g1734
F1
ss(S'chance'
p2082
g942
tp2083
g1
(g7
tRp2084
g943
F1
ss(S'around'
p2085
S'but'
p2086
tp2087
g1
(g7
tRp2088
S'you'
p2089
F1
ss(g129
S'a'
tp2090
g1
(g7
tRp2091
S'lot'
p2092
F1
ss(g1872
g1417
tp2093
g1
(g7
tRp2094
S'a'
F1
ss(g1909
tp2095
g1
(g7
tRp2096
S'us,'
p2097
F0.5
sg1910
F0.5
ss(g1422
g1341
tp2098
g1
(g7
tRp2099
g670
F0.14285714285714288
sg1342
F0.28571428571428575
sg1670
F0.14285714285714288
sg570
F0.14285714285714288
sS'basic'
p2100
F0.14285714285714288
sg1107
F0.14285714285714288
ss(g670
g673
tp2101
g1
(g7
tRp2102
g1127
F1
ss(S'looking'
p2103
g838
tp2104
g1
(g7
tRp2105
g597
F1
ss(S'They'
S"didn't"
p2106
tp2107
g1
(g7
tRp2108
g1499
F1
ss(g1276
tp2109
g1
(g7
tRp2110
S'our'
p2111
F1
ss(g179
S'buy'
p2112
tp2113
g1
(g7
tRp2114
S'with'
p2115
F1
ss(g1092
tp2116
g1
(g7
tRp2117
g1118
F0.5
sS'we'
p2118
F0.5
ss(g428
tp2119
g1
(g7
tRp2120
g1049
F0.5
sS'that'
p2121
F0.5
ss(g1716
g1719
tp2122
g1
(g7
tRp2123
S'go'
p2124
F1
ss(S'get'
S'time'
p2125
tp2126
g1
(g7
tRp2127
S''
F1
ss(S'smoking'
p2128
tp2129
g1
(g7
tRp2130
S'like'
p2131
F1
ss(g1023
g76
tp2132
g1
(g7
tRp2133
g477
F0.66666666666666663
sg77
F0.33333333333333337
ss(g1910
g847
tp2134
g1
(g7
tRp2135
S''
F1
ss(g1288
S'have'
p2136
tp2137
g1
(g7
tRp2138
g520
F1
ss(S'also,'
p2139
tp2140
g1
(g7
tRp2141
S'you'
p2142
F1
ss(g2100
tp2143
g1
(g7
tRp2144
S'tenets'
p2145
F1
ss(S'taxes,'
p2146
tp2147
g1
(g7
tRp2148
S'I'
F1
ss(g1073
tp2149
g1
(g7
tRp2150
g1207
F1
ss(S'As'
p2151
S'far'
p2152
tp2153
g1
(g7
tRp2154
S'as'
p2155
F1
ss(S'process'
p2156
tp2157
g1
(g7
tRp2158
g1395
F1
ss(S'mean'
p2159
tp2160
g1
(g7
tRp2161
S'that'
p2162
F1
ss(g1371
S'of'
p2163
tp2164
g1
(g7
tRp2165
S'destruction,'
p2166
F1
ss(g180
g184
tp2167
g1
(g7
tRp2168
g221
F1
ss(g888
S'to'
p2169
tp2170
g1
(g7
tRp2171
S'come'
p2172
F1
ss(g542
g545
tp2173
g1
(g7
tRp2174
S'have'
p2175
F1
ss(g693
tp2176
g1
(g7
tRp2177
g936
F1
ss(g1891
tp2178
g1
(g7
tRp2179
g1892
F1
ss(g1220
g1223
tp2180
g1
(g7
tRp2181
S'alliance'
p2182
F0.5
sg996
F0.5
ss(S'comply'
p2183
tp2184
g1
(g7
tRp2185
S'with'
p2186
F1
ss(S'will'
p2187
S'allow'
p2188
tp2189
g1
(g7
tRp2190
S'them'
p2191
F0.5
sS'us'
p2192
F0.5
ss(S'or'
p2193
S'we'
p2194
tp2195
g1
(g7
tRp2196
S'will'
p2197
F1
ss(g338
g1022
tp2198
g1
(g7
tRp2199
g1023
F1
ss(S'empowerment'
p2200
S'account'
p2201
tp2202
g1
(g7
tRp2203
g1247
F1
ss(S'And'
S'if'
p2204
tp2205
g1
(g7
tRp2206
g183
F1
ss(g469
g472
tp2207
g1
(g7
tRp2208
g1335
F0.5
sg1696
F0.5
ss(g943
tp2209
g1
(g7
tRp2210
g946
F0.5
sg947
F0.5
ss(g1070
g1073
tp2211
g1
(g7
tRp2212
g1207
F1
ss(S'which'
p2213
g863
tp2214
g1
(g7
tRp2215
S'use'
p2216
F1
ss(S'their'
p2217
tp2218
g1
(g7
tRp2219
g1635
F0.25
sg1879
F0.25
sg437
F0.25
sg438
F0.25
ss(g1603
g1606
tp2220
g1
(g7
tRp2221
g1755
F1
ss(g1421
tp2222
g1
(g7
tRp2223
g1422
F1
ss(S'to'
p2224
g126
tp2225
g1
(g7
tRp2226
g1958
F1
ss(g1953
S'when'
p2227
tp2228
g1
(g7
tRp2229
S'we'
p2230
F1
ss(S'we'
g220
tp2231
g1
(g7
tRp2232
S'them'
p2233
F0.5
sg767
F0.5
ss(S'assuming'
p2234
tp2235
g1
(g7
tRp2236
S'that'
p2237
F1
ss(g48
tp2238
g1
(g7
tRp2239
g879
F1
ss(g1937
tp2240
g1
(g7
tRp2241
g1940
F1
ss(g1936
g1176
tp2242
g1
(g7
tRp2243
g1177
F1
ss(g1162
g1602
tp2244
g1
(g7
tRp2245
g44
F1
ss(g530
g1848
tp2246
g1
(g7
tRp2247
g660
F1
ss(g1705
S'out'
p2248
tp2249
g1
(g7
tRp2250
S'of'
p2251
F1
ss(S'empowerment'
p2252
tp2253
g1
(g7
tRp2254
S'accounts,'
p2255
F0.5
sg2201
F0.5
ss(g2039
tp2256
g1
(g7
tRp2257
S'the'
p2258
F1
ss(g1012
g1015
tp2259
g1
(g7
tRp2260
S'need'
p2261
F1
ss(g156
S'a'
tp2262
g1
(g7
tRp2263
g1464
F0.5
sg1381
F0.5
ss(S'30'
p2264
S'years'
p2265
tp2266
g1
(g7
tRp2267
S'ago,'
p2268
F1
ss(S"can't"
p2269
S'be'
p2270
tp2271
g1
(g7
tRp2272
S'fair'
p2273
F1
ss(S'audit'
p2274
S'until'
p2275
tp2276
g1
(g7
tRp2277
S'I'
F1
ss(S'who'
p2278
S'have'
p2279
tp2280
g1
(g7
tRp2281
S'actually'
p2282
F1
ss(g1992
tp2283
g1
(g7
tRp2284
g1986
F1
ss(S'know'
p2285
g702
tp2286
g1
(g7
tRp2287
g715
F1
ss(S"don't"
p2288
g2039
tp2289
g1
(g7
tRp2290
g2258
F1
ss(g62
tp2291
g1
(g7
tRp2292
g1083
F1
ss(g315
S'that'
p2293
tp2294
g1
(g7
tRp2295
S''
F1
ss(g323
g643
tp2296
g1
(g7
tRp2297
S'same'
p2298
F1
ss(g2036
g1862
tp2299
g1
(g7
tRp2300
S'at'
p2301
F1
ss(g737
g1049
tp2302
g1
(g7
tRp2303
g367
F1
ss(S'have'
p2304
g955
tp2305
g1
(g7
tRp2306
g609
F1
ss(g1287
S'what'
p2307
tp2308
g1
(g7
tRp2309
S'the'
p2310
F1
ss(S'message'
p2311
g1173
tp2312
g1
(g7
tRp2313
g726
F1
ss(g1980
tp2314
g1
(g7
tRp2315
g1981
F1
ss(g1451
S'there'
p2316
tp2317
g1
(g7
tRp2318
S''
F1
ss(g953
g429
tp2319
g1
(g7
tRp2320
g534
F1
ss(S'praise'
p2321
tp2322
g1
(g7
tRp2323
S'to'
p2324
F1
ss(S'for'
p2325
g808
tp2326
g1
(g7
tRp2327
S''
F1
ss(g1189
g1192
tp2328
g1
(g7
tRp2329
g13
F1
ss(S'inspire'
p2330
S'and'
p2331
tp2332
g1
(g7
tRp2333
g1285
F1
ss(g1981
g842
tp2334
g1
(g7
tRp2335
S''
F1
ss(S'flexibility'
p2336
tp2337
g1
(g7
tRp2338
S''
F1
ss(g114
g117
tp2339
g1
(g7
tRp2340
g2002
F1
ss(g418
tp2341
g1
(g7
tRp2342
g421
F1
ss(S'have'
g1134
tp2343
g1
(g7
tRp2344
g22
F1
ss(S'it'
p2345
g47
tp2346
g1
(g7
tRp2347
S'when'
p2348
F1
ss(g1558
g370
tp2349
g1
(g7
tRp2350
g1294
F1
ss(S'a'
tp2351
g1
(g7
tRp2352
g1196
F0.022727272727272721
sS'Constitution'
p2353
F0.022727272727272721
sg1391
F0.022727272727272721
sS'single'
p2354
F0.022727272727272721
sg1778
F0.022727272727272721
sg390
F0.022727272727272721
sg1937
F0.022727272727272721
sg1464
F0.022727272727272721
sg1244
F0.022727272727272721
sg1454
F0.022727272727272721
sS'responsible'
p2355
F0.022727272727272721
sg1149
F0.045454545454545442
sg722
F0.022727272727272721
sg760
F0.022727272727272721
sg1969
F0.022727272727272721
sS'health'
p2356
F0.022727272727272721
sg1258
F0.15909090909090903
sS'Judeo'
p2357
F0.022727272727272721
sS'good'
p2358
F0.022727272727272721
sS'year;'
p2359
F0.022727272727272721
sS'very'
p2360
F0.022727272727272721
sS'ladder'
p2361
F0.022727272727272721
sg1597
F0.022727272727272721
sg2082
F0.022727272727272721
sg1318
F0.022727272727272721
sg1695
F0.022727272727272721
sg1771
F0.022727272727272721
sS'child,'
p2362
F0.022727272727272721
sS'homeowners'
p2363
F0.045454545454545442
sg1381
F0.022727272727272721
sg1169
F0.022727272727272721
sg191
F0.022727272727272721
sg377
F0.022727272727272721
sg1243
F0.045454545454545442
sS"person's"
p2364
F0.022727272727272721
ss(S'was'
p2365
tp2366
g1
(g7
tRp2367
S'mentioned'
p2368
F0.25
sS'the'
p2369
F0.25
sS'there'
p2370
F0.25
sg1458
F0.25
ss(S'What'
p2371
S'we'
p2372
tp2373
g1
(g7
tRp2374
g1720
F1
ss(S'A'
g608
tp2375
g1
(g7
tRp2376
g1322
F1
ss(g1331
g1334
tp2377
g1
(g7
tRp2378
S'do'
p2379
F1
ss(g918
g329
tp2380
g1
(g7
tRp2381
g775
F1
ss(g2258
S'need'
p2382
tp2383
g1
(g7
tRp2384
g574
F1
ss(S'to'
p2385
S'lead'
p2386
tp2387
g1
(g7
tRp2388
S''
F1
ss(g827
tp2389
g1
(g7
tRp2390
g828
F1
ss(g1074
g1077
tp2391
g1
(g7
tRp2392
S'the'
p2393
F1
ss(S'knows'
p2394
S'that'
p2395
tp2396
g1
(g7
tRp2397
g713
F1
ss(S'one'
p2398
g362
tp2399
g1
(g7
tRp2400
S"didn't"
p2401
F1
ss(g1429
tp2402
g1
(g7
tRp2403
g1211
F0.16666666666666666
sg1200
F0.16666666666666666
sg1432
F0.16666666666666666
sg1617
F0.16666666666666666
sg488
F0.16666666666666666
sg2033
F0.16666666666666666
ss(g350
S'a'
tp2404
g1
(g7
tRp2405
g2363
F0.33333333333333331
sg2356
F0.33333333333333331
sg1169
F0.33333333333333331
ss(S'Almost'
p2406
S'$500'
p2407
tp2408
g1
(g7
tRp2409
g1146
F1
ss(g1169
tp2410
g1
(g7
tRp2411
g1172
F1
ss(g664
S'of'
p2412
tp2413
g1
(g7
tRp2414
g1669
F1
ss(g1568
g1297
tp2415
g1
(g7
tRp2416
g1011
F0.5
sS'next'
p2417
F0.5
ss(g1342
g1345
tp2418
g1
(g7
tRp2419
S'believe'
p2420
F0.33333333333333337
sg635
F0.66666666666666663
ss(g2071
g477
tp2421
g1
(g7
tRp2422
g478
F1
ss(g164
tp2423
g1
(g7
tRp2424
g1372
F1
ss(S'Donald,'
p2425
g1797
tp2426
g1
(g7
tRp2427
g1798
F1
ss(S'health'
p2428
g2252
tp2429
g1
(g7
tRp2430
g2255
F0.5
sg2201
F0.5
ss(g639
g732
tp2431
g1
(g7
tRp2432
g733
F1
ss(S'me'
p2433
S'to'
p2434
tp2435
g1
(g7
tRp2436
S'heal,'
p2437
F1
ss(S'money'
p2438
g433
tp2439
g1
(g7
tRp2440
g434
F1
ss(g1094
tp2441
g1
(g7
tRp2442
g1095
F1
ss(g1219
tp2443
g1
(g7
tRp2444
g1111
F1
ss(S'get'
p2445
S'a'
tp2446
g1
(g7
tRp2447
g2082
F0.5
sS'lot'
p2448
F0.5
ss(g547
tp2449
g1
(g7
tRp2450
g550
F1
ss(S'heading'
p2451
tp2452
g1
(g7
tRp2453
g1367
F1
ss(g1392
g353
tp2454
g1
(g7
tRp2455
g354
F1
ss(g434
g437
tp2456
g1
(g7
tRp2457
g2200
F1
ss(g775
g778
tp2458
g1
(g7
tRp2459
S'American'
p2460
F1
ss(S'describe'
p2461
S"today's"
p2462
tp2463
g1
(g7
tRp2464
g17
F1
ss(S'economy,'
p2465
tp2466
g1
(g7
tRp2467
S'which'
p2468
F1
ss(g192
tp2469
g1
(g7
tRp2470
g195
F1
ss(S'want'
p2471
S'every'
p2472
tp2473
g1
(g7
tRp2474
g731
F1
ss(g705
tp2475
g1
(g7
tRp2476
S'and'
p2477
F1
ss(g1447
tp2478
g1
(g7
tRp2479
g1448
F1
ss(g2425
tp2480
g1
(g7
tRp2481
g1797
F1
ss(g1715
tp2482
g1
(g7
tRp2483
S'thinks'
p2484
F1
ss(g2358
S'program'
p2485
tp2486
g1
(g7
tRp2487
S'that'
p2488
F1
ss(g151
g154
tp2489
g1
(g7
tRp2490
g1716
F1
ss(S'cost'
p2491
tp2492
g1
(g7
tRp2493
S'a'
F0.5
sS'us'
p2494
F0.5
ss(g90
g93
tp2495
g1
(g7
tRp2496
S'a'
F1
ss(g2216
g2428
tp2497
g1
(g7
tRp2498
g2252
F1
ss(g1092
g2118
tp2499
g1
(g7
tRp2500
S'can'
p2501
F1
ss(S'Obamacare'
p2502
g2025
tp2503
g1
(g7
tRp2504
g2026
F1
ss(S'solve'
p2505
tp2506
g1
(g7
tRp2507
g752
F1
ss(g1774
g1968
tp2508
g1
(g7
tRp2509
S'to'
p2510
F1
ss(S'I'
g525
tp2511
g1
(g7
tRp2512
g530
F0.33333333333333337
sg531
F0.66666666666666663
ss(g739
tp2513
g1
(g7
tRp2514
g110
F0.33333333333333337
sg385
F0.66666666666666663
ss(g443
g1480
tp2515
g1
(g7
tRp2516
g1295
F1
ss(g713
g186
tp2517
g1
(g7
tRp2518
g1995
F1
ss(g551
g554
tp2519
g1
(g7
tRp2520
S'years'
p2521
F1
ss(S'better'
p2522
g1330
tp2523
g1
(g7
tRp2524
g1331
F1
ss(g1055
tp2525
g1
(g7
tRp2526
g1056
F1
ss(g491
g2321
tp2527
g1
(g7
tRp2528
g2324
F1
ss(S'If'
S'they'
p2529
tp2530
g1
(g7
tRp2531
g336
F0.5
sS"don't"
p2532
F0.5
ss(g1210
S'China,'
p2533
tp2534
g1
(g7
tRp2535
g1159
F1
ss(g2494
S'a'
tp2536
g1
(g7
tRp2537
g1258
F1
ss(g2360
g63
tp2538
g1
(g7
tRp2539
g64
F1
ss(g873
g656
tp2540
g1
(g7
tRp2541
g659
F1
ss(g1880
g85
tp2542
g1
(g7
tRp2543
g86
F1
ss(g2462
g17
tp2544
g1
(g7
tRp2545
g21
F1
ss(g2484
tp2546
g1
(g7
tRp2547
S''
F1
ss(S'--'
p2548
S'that'
p2549
tp2550
g1
(g7
tRp2551
g708
F1
ss(g1326
tp2552
g1
(g7
tRp2553
S'an'
p2554
F0.25
sg166
F0.25
sg1329
F0.25
sg567
F0.25
ss(g1853
tp2555
g1
(g7
tRp2556
S''
F1
ss(g376
S'to'
p2557
tp2558
g1
(g7
tRp2559
S'all'
p2560
F0.19999999999999998
sS'other'
p2561
F0.39999999999999997
sg225
F0.19999999999999998
sS'people'
p2562
F0.19999999999999998
ss(g491
tp2563
g1
(g7
tRp2564
g2321
F1
ss(g798
g801
tp2565
g1
(g7
tRp2566
S'about'
p2567
F1
ss(g262
g265
tp2568
g1
(g7
tRp2569
g1559
F1
ss(g354
g357
tp2570
g1
(g7
tRp2571
S'also'
p2572
F1
ss(g338
tp2573
g1
(g7
tRp2574
g1022
F1
ss(g1355
tp2575
g1
(g7
tRp2576
g1356
F1
ss(g2386
tp2577
g1
(g7
tRp2578
S''
F1
ss(g1510
g1513
tp2579
g1
(g7
tRp2580
S'American'
p2581
F1
ss(S'NALEO,'
p2582
g1664
tp2583
g1
(g7
tRp2584
g873
F1
ss(S'horribly'
p2585
g719
tp2586
g1
(g7
tRp2587
S''
F1
ss(g2451
g1367
tp2588
g1
(g7
tRp2589
g1368
F1
ss(S'that'
p2590
g706
tp2591
g1
(g7
tRp2592
g1789
F0.19999999999999998
sg245
F0.19999999999999998
sg2269
F0.19999999999999998
sS'have'
p2593
F0.19999999999999998
sS'pay'
p2594
F0.19999999999999998
ss(g2017
g1404
tp2595
g1
(g7
tRp2596
g1405
F1
ss(g2188
tp2597
g1
(g7
tRp2598
g2191
F0.5
sg2192
F0.5
ss(g398
g401
tp2599
g1
(g7
tRp2600
S''
F1
ss(g2360
tp2601
g1
(g7
tRp2602
g63
F1
ss(S'a'
g2354
tp2603
g1
(g7
tRp2604
g2398
F1
ss(g176
tp2605
g1
(g7
tRp2606
g179
F0.5
sg205
F0.5
ss(S'what'
p2607
S'kind'
p2608
tp2609
g1
(g7
tRp2610
S'of'
p2611
F1
ss(g2401
g529
tp2612
g1
(g7
tRp2613
S'that'
p2614
F1
ss(g1998
S'a'
tp2615
g1
(g7
tRp2616
g1597
F1
ss(S'unstable'
p2617
g555
tp2618
g1
(g7
tRp2619
g556
F1
ss(g602
tp2620
g1
(g7
tRp2621
S''
F1
ss(g1229
g980
tp2622
g1
(g7
tRp2623
g275
F1
ss(g401
tp2624
g1
(g7
tRp2625
S''
F0.33333333333333331
sg1307
F0.33333333333333331
sg1000
F0.33333333333333331
ss(g1163
tp2626
g1
(g7
tRp2627
g1164
F1
ss(g904
g1712
tp2628
g1
(g7
tRp2629
g1715
F1
ss(g1083
tp2630
g1
(g7
tRp2631
S''
F0.5
sS'to'
p2632
F0.5
ss(g1455
g1458
tp2633
g1
(g7
tRp2634
g397
F1
ss(g1330
tp2635
g1
(g7
tRp2636
g1331
F1
ss(S'I'
S'first'
p2637
tp2638
g1
(g7
tRp2639
g665
F1
ss(g2054
tp2640
g1
(g7
tRp2641
g35
F1
ss(g718
g1403
tp2642
g1
(g7
tRp2643
S'economy'
p2644
F1
ss(g2248
tp2645
g1
(g7
tRp2646
g2251
F1
ss(S'the'
p2647
g468
tp2648
g1
(g7
tRp2649
g938
F0.5
sg469
F0.5
ss(g778
tp2650
g1
(g7
tRp2651
g2460
F0.33333333333333331
sS'part'
p2652
F0.33333333333333331
sg1513
F0.33333333333333331
ss(g768
S'the'
p2653
tp2654
g1
(g7
tRp2655
g793
F0.33333333333333331
sg884
F0.33333333333333331
sS'same'
p2656
F0.33333333333333331
ss(S'We'
S'spend'
p2657
tp2658
g1
(g7
tRp2659
S'almost'
p2660
F1
ss(S'pass'
p2661
tp2662
g1
(g7
tRp2663
g2345
F1
ss(g872
S'divisiveness,'
p2664
tp2665
g1
(g7
tRp2666
S'fiscal'
p2667
F1
ss(S'whole'
p2668
S'year'
p2669
tp2670
g1
(g7
tRp2671
S''
F1
ss(g1010
tp2672
g1
(g7
tRp2673
S'is'
p2674
F1
ss(g1107
g1110
tp2675
g1
(g7
tRp2676
g1582
F1
ss(S'will'
p2677
S'look'
p2678
tp2679
g1
(g7
tRp2680
S'at'
p2681
F1
ss(g1724
g1483
tp2682
g1
(g7
tRp2683
g1484
F1
ss(g501
g505
tp2684
g1
(g7
tRp2685
S'a'
F1
ss(S"I'm"
p2686
S'a'
tp2687
g1
(g7
tRp2688
g2360
F1
ss(g2406
tp2689
g1
(g7
tRp2690
g2407
F1
ss(S'allow'
g2192
tp2691
g1
(g7
tRp2692
S'to'
p2693
F1
ss(g2124
g57
tp2694
g1
(g7
tRp2695
S''
F1
ss(g859
g862
tp2696
g1
(g7
tRp2697
S'get'
p2698
F1
ss(S'of'
g541
tp2699
g1
(g7
tRp2700
g542
F1
ss(S'their'
p2701
g438
tp2702
g1
(g7
tRp2703
S''
F1
ss(S'that'
p2704
g266
tp2705
g1
(g7
tRp2706
g267
F1
ss(g1133
S'going'
p2707
tp2708
g1
(g7
tRp2709
g559
F1
ss(g1296
g2652
tp2710
g1
(g7
tRp2711
S'of'
p2712
F1
ss(S'religious'
p2713
S'freedom'
p2714
tp2715
g1
(g7
tRp2716
S''
F0.5
sS'is'
p2717
F0.5
ss(g1618
g707
tp2718
g1
(g7
tRp2719
g1054
F1
ss(g746
g716
tp2720
g1
(g7
tRp2721
g2394
F1
ss(S'then'
p2722
S'all'
p2723
tp2724
g1
(g7
tRp2725
S'of'
p2726
F1
ss(g39
g42
tp2727
g1
(g7
tRp2728
g121
F1
ss(g1850
g1853
tp2729
g1
(g7
tRp2730
S''
F1
ss(g2667
S'irresponsibility,'
p2731
tp2732
g1
(g7
tRp2733
g1277
F1
ss(g1091
tp2734
g1
(g7
tRp2735
S''
F0.33333333333333337
sg478
F0.66666666666666663
ss(g977
tp2736
g1
(g7
tRp2737
g640
F1
ss(g455
tp2738
g1
(g7
tRp2739
g1346
F0.33333333333333331
sg406
F0.33333333333333331
sg1412
F0.33333333333333331
ss(g136
tp2740
g1
(g7
tRp2741
g137
F1
ss(S'And'
g2139
tp2742
g1
(g7
tRp2743
g2142
F1
ss(g1458
g397
tp2744
g1
(g7
tRp2745
g398
F1
ss(S'to'
g2561
tp2746
g1
(g7
tRp2747
g851
F0.5
sg850
F0.5
ss(g1839
g1215
tp2748
g1
(g7
tRp2749
g1216
F1
ss(S'asking'
p2750
g853
tp2751
g1
(g7
tRp2752
g854
F1
ss(S'we'
p2753
g2269
tp2754
g1
(g7
tRp2755
g2270
F1
ss(g844
g580
tp2756
g1
(g7
tRp2757
g581
F1
ss(g358
g150
tp2758
g1
(g7
tRp2759
S'the'
p2760
F0.5
sg151
F0.5
ss(S'indigent,'
p2761
tp2762
g1
(g7
tRp2763
S'how'
p2764
F1
ss(S'know,'
p2765
g1090
tp2766
g1
(g7
tRp2767
S'I'
F1
ss(S'he'
p2768
S'is'
p2769
tp2770
g1
(g7
tRp2771
S'going'
p2772
F1
ss(g2572
S'recognize'
p2773
tp2774
g1
(g7
tRp2775
S'that'
p2776
F1
ss(S'is'
p2777
g2585
tp2778
g1
(g7
tRp2779
g719
F1
ss(g592
tp2780
g1
(g7
tRp2781
g593
F1
ss(g2065
S'people'
p2782
tp2783
g1
(g7
tRp2784
S''
F1
ss(g2354
g2398
tp2785
g1
(g7
tRp2786
g362
F1
ss(g2086
g2089
tp2787
g1
(g7
tRp2788
S'have'
p2789
F1
ss(g2362
g2075
tp2790
g1
(g7
tRp2791
g1782
F1
ss(g1285
tp2792
g1
(g7
tRp2793
S'America'
p2794
F1
ss(g1192
g13
tp2795
g1
(g7
tRp2796
S''
F1
ss(g774
g666
tp2797
g1
(g7
tRp2798
g667
F1
ss(g1243
g1271
tp2799
g1
(g7
tRp2800
g1078
F1
ss(g319
S'to'
p2801
tp2802
g1
(g7
tRp2803
g2183
F1
ss(S'Chinese'
p2804
tp2805
g1
(g7
tRp2806
g783
F1
ss(g1356
tp2807
g1
(g7
tRp2808
S''
F1
ss(g1702
g1705
tp2809
g1
(g7
tRp2810
g2248
F1
ss(S'ever'
p2811
g1999
tp2812
g1
(g7
tRp2813
S''
F1
ss(g988
g991
tp2814
g1
(g7
tRp2815
S''
F1
ss(g469
tp2816
g1
(g7
tRp2817
S'real'
p2818
F0.19999999999999998
sg472
F0.39999999999999997
sg652
F0.19999999999999998
sS'kids'
p2819
F0.19999999999999998
ss(g1491
tp2820
g1
(g7
tRp2821
S'system'
p2822
F1
ss(S'facilities'
p2823
tp2824
g1
(g7
tRp2825
S'and'
p2826
F1
ss(g2761
g2764
tp2827
g1
(g7
tRp2828
g1118
F1
ss(g386
tp2829
g1
(g7
tRp2830
g389
F1
ss(g89
tp2831
g1
(g7
tRp2832
S'a'
F0.19999999999999998
sg235
F0.39999999999999997
sg1039
F0.39999999999999997
ss(g2657
g2660
tp2833
g1
(g7
tRp2834
g1835
F1
ss(S'the'
p2835
S'children'
p2836
tp2837
g1
(g7
tRp2838
g2085
F1
ss(g665
S'him'
p2839
tp2840
g1
(g7
tRp2841
g1883
F1
ss(S'nation'
p2842
S'is'
p2843
tp2844
g1
(g7
tRp2845
g2451
F1
ss(S'rights'
p2846
g2010
tp2847
g1
(g7
tRp2848
g2066
F1
ss(g1659
g843
tp2849
g1
(g7
tRp2850
g52
F1
ss(g636
g639
tp2851
g1
(g7
tRp2852
g732
F1
ss(g1726
g771
tp2853
g1
(g7
tRp2854
g774
F1
ss(g2248
g2251
tp2855
g1
(g7
tRp2856
S'that'
p2857
F1
ss(g1141
tp2858
g1
(g7
tRp2859
g196
F0.11111111111111112
sS'I'
F0.33333333333333331
sg1142
F0.11111111111111112
sg983
F0.11111111111111112
sS'the'
p2860
F0.22222222222222224
sg2686
F0.11111111111111112
ss(g1381
g1199
tp2861
g1
(g7
tRp2862
g1200
F1
ss(g718
tp2863
g1
(g7
tRp2864
g1403
F1
ss(g267
tp2865
g1
(g7
tRp2866
S''
F0.5
sg171
F0.5
ss(g1582
tp2867
g1
(g7
tRp2868
g1583
F1
ss(g1292
tp2869
g1
(g7
tRp2870
g2385
F1
ss(g784
tp2871
g1
(g7
tRp2872
S''
F1
ss(S'ago,'
p2873
S'a'
tp2874
g1
(g7
tRp2875
g1454
F1
ss(g1576
g1314
tp2876
g1
(g7
tRp2877
g1317
F1
ss(g1133
tp2878
g1
(g7
tRp2879
S''
F0.5
sg2707
F0.5
ss(S'a'
g1597
tp2880
g1
(g7
tRp2881
g381
F1
ss(g2693
S'gain'
p2882
tp2883
g1
(g7
tRp2884
S'material'
p2885
F1
ss(S'as'
p2886
g1551
tp2887
g1
(g7
tRp2888
g1552
F1
ss(g1748
tp2889
g1
(g7
tRp2890
g1751
F1
ss(g2282
S'much'
p2891
tp2892
g1
(g7
tRp2893
g2522
F1
ss(g2860
S'message'
p2894
tp2895
g1
(g7
tRp2896
S'that'
p2897
F1
ss(g2163
tp2898
g1
(g7
tRp2899
g1505
F0.02564102564102564
sS'judgments'
p2900
F0.02564102564102564
sS'people'
p2901
F0.02564102564102564
sg456
F0.02564102564102564
sg1741
F0.02564102564102564
sg888
F0.02564102564102564
sS'person'
p2902
F0.02564102564102564
sg1891
F0.02564102564102564
sg2217
F0.02564102564102564
sg1560
F0.02564102564102564
sg1127
F0.02564102564102564
sS'leader'
p2903
F0.02564102564102564
sg541
F0.02564102564102564
sg1621
F0.05128205128205128
sg2857
F0.05128205128205128
sg1603
F0.02564102564102564
sg386
F0.02564102564102564
sg2166
F0.02564102564102564
sS'a'
F0.02564102564102564
sg151
F0.02564102564102564
sg447
F0.02564102564102564
sS'dollars'
p2904
F0.02564102564102564
sg742
F0.12820512820512819
sg764
F0.02564102564102564
sg265
F0.02564102564102564
sg1865
F0.02564102564102564
sg1341
F0.17948717948717949
ss(S'registered'
p2905
g1240
tp2906
g1
(g7
tRp2907
S'a'
F1
ss(g1810
g916
tp2908
g1
(g7
tRp2909
g1973
F0.33333333333333331
sS'need'
p2910
F0.33333333333333331
sS'have'
p2911
F0.33333333333333331
ss(g908
tp2912
g1
(g7
tRp2913
g1936
F1
ss(g831
g2368
tp2914
g1
(g7
tRp2915
S''
F1
ss(g1895
tp2916
g1
(g7
tRp2917
S'up'
p2918
F1
ss(S'there,'
p2919
tp2920
g1
(g7
tRp2921
S'so'
p2922
F1
ss(g1066
tp2923
g1
(g7
tRp2924
S'can'
p2925
F1
ss(g456
tp2926
g1
(g7
tRp2927
g457
F1
ss(S'is'
p2928
S'an'
p2929
tp2930
g1
(g7
tRp2931
g2617
F1
ss(g1032
tp2932
g1
(g7
tRp2933
S'and'
p2934
F1
ss(g319
tp2935
g1
(g7
tRp2936
g2801
F1
ss(g15
g2582
tp2937
g1
(g7
tRp2938
g1664
F1
ss(g465
tp2939
g1
(g7
tRp2940
S''
F1
ss(S'concerned,'
p2941
tp2942
g1
(g7
tRp2943
S'you'
p2944
F0.66666666666666663
sS'one'
p2945
F0.33333333333333337
ss(S'a'
g1318
tp2946
g1
(g7
tRp2947
g1321
F1
ss(S'I'
S'want'
p2948
tp2949
g1
(g7
tRp2950
g797
F1
ss(S'coming'
p2951
g1224
tp2952
g1
(g7
tRp2953
g1225
F1
ss(S'money'
p2954
g1155
tp2955
g1
(g7
tRp2956
g911
F1
ss(g664
tp2957
g1
(g7
tRp2958
g2412
F1
ss(g1835
g1838
tp2959
g1
(g7
tRp2960
g1540
F1
ss(g655
tp2961
g1
(g7
tRp2962
g1930
F0.5
sg1726
F0.5
ss(g1819
g1000
tp2963
g1
(g7
tRp2964
g1001
F1
ss(S'terrorist'
p2965
tp2966
g1
(g7
tRp2967
S'to'
p2968
F1
ss(g240
g243
tp2969
g1
(g7
tRp2970
g1555
F1
ss(g1262
g1265
tp2971
g1
(g7
tRp2972
S'kind'
p2973
F1
ss(g547
g550
tp2974
g1
(g7
tRp2975
S'every'
p2976
F1
ss(g2842
tp2977
g1
(g7
tRp2978
g2843
F0.5
sS'as'
p2979
F0.5
ss(g239
g337
tp2980
g1
(g7
tRp2981
S'find'
p2982
F1
ss(g883
tp2983
g1
(g7
tRp2984
S''
F0.19999999999999998
sg1915
F0.39999999999999997
sg581
F0.19999999999999998
sg2886
F0.19999999999999998
ss(g1172
S'going'
p2985
tp2986
g1
(g7
tRp2987
g2224
F1
ss(g869
g872
tp2988
g1
(g7
tRp2989
g2664
F1
ss(g1879
g1729
tp2990
g1
(g7
tRp2991
g1730
F1
ss(S'he'
p2992
S'fact'
p2993
tp2994
g1
(g7
tRp2995
S'of'
p2996
F1
ss(g1958
g1734
tp2997
g1
(g7
tRp2998
g1735
F1
ss(g1887
tp2999
g1
(g7
tRp3000
g1896
F1
ss(g2668
tp3001
g1
(g7
tRp3002
S''
F0.33333333333333331
sg1271
F0.33333333333333331
sg2669
F0.33333333333333331
ss(g1054
tp3003
g1
(g7
tRp3004
S''
F0.59999999999999998
sg1568
F0.19999999999999998
sg9
F0.19999999999999998
ss(g1021
S'when'
p3005
tp3006
g1
(g7
tRp3007
g31
F1
ss(S'Christian'
p3008
tp3009
g1
(g7
tRp3010
g515
F1
ss(g2461
tp3011
g1
(g7
tRp3012
g2462
F1
ss(S'Well'
p3013
tp3014
g1
(g7
tRp3015
S'first'
p3016
F1
ss(S'Israel'
p3017
S'is'
p3018
tp3019
g1
(g7
tRp3020
S'concerned,'
p3021
F1
ss(g1631
S'because'
p3022
tp3023
g1
(g7
tRp3024
g2860
F1
ss(g1321
g338
tp3025
g1
(g7
tRp3026
g1022
F1
ss(S'that,'
p3027
g1725
tp3028
g1
(g7
tRp3029
g1726
F1
ss(g1998
tp3030
g1
(g7
tRp3031
S'a'
F1
ss(g954
tp3032
g1
(g7
tRp3033
S'that'
p3034
F1
ss(g1079
g1082
tp3035
g1
(g7
tRp3036
S'a'
F1
ss(g2330
tp3037
g1
(g7
tRp3038
g2331
F1
ss(g1236
g1239
tp3039
g1
(g7
tRp3040
g1909
F1
ss(g823
g826
tp3041
g1
(g7
tRp3042
g1284
F1
ss(g2782
tp3043
g1
(g7
tRp3044
S''
F0.40000000000000002
sg1345
F0.20000000000000001
sg798
F0.066666666666666666
sg621
F0.066666666666666666
sg980
F0.066666666666666666
sg2951
F0.066666666666666666
sg1425
F0.066666666666666666
sg1059
F0.066666666666666666
ss(g2941
g2945
tp3045
g1
(g7
tRp3046
S'of'
p3047
F1
ss(g373
tp3048
g1
(g7
tRp3049
g2891
F0.5
sg376
F0.5
ss(g755
g759
tp3050
g1
(g7
tRp3051
S'I'
F1
ss(g1778
tp3052
g1
(g7
tRp3053
g1781
F1
ss(g948
g954
tp3054
g1
(g7
tRp3055
g3034
F1
ss(g2801
g2183
tp3056
g1
(g7
tRp3057
g2186
F1
ss(g2331
g1285
tp3058
g1
(g7
tRp3059
g2794
F1
ss(S'gives'
p3060
S'you'
p3061
tp3062
g1
(g7
tRp3063
S'enormous'
p3064
F1
ss(g137
g140
tp3065
g1
(g7
tRp3066
g1617
F0.33333333333333331
sg488
F0.33333333333333331
sg1211
F0.33333333333333331
ss(g2804
g783
tp3067
g1
(g7
tRp3068
g784
F1
ss(g414
tp3069
g1
(g7
tRp3070
g417
F1
ss(S'Well,'
p3071
tp3072
g1
(g7
tRp3073
S'first'
p3074
F1
ss(g2032
S'get'
p3075
tp3076
g1
(g7
tRp3077
S'a'
F1
ss(g1467
g858
tp3078
g1
(g7
tRp3079
g859
F1
ss(S'They'
p3080
tp3081
g1
(g7
tRp3082
g2106
F0.33333333333333331
sS'can'
p3083
F0.33333333333333331
sS'have'
p3084
F0.33333333333333331
ss(g2268
tp3085
g1
(g7
tRp3086
S'I'
F0.33333333333333331
sS'a'
F0.33333333333333331
sg1523
F0.33333333333333331
ss(S'Court'
p3087
tp3088
g1
(g7
tRp3089
S'has'
p3090
F1
ss(g617
g620
tp3091
g1
(g7
tRp3092
g2928
F1
ss(g1838
g1540
tp3093
g1
(g7
tRp3094
g307
F1
ss(S'the'
p3095
g570
tp3096
g1
(g7
tRp3097
g573
F1
ss(g1056
g1059
tp3098
g1
(g7
tRp3099
S'a'
F1
ss(g294
tp3100
g1
(g7
tRp3101
g295
F1
ss(g1640
g1062
tp3102
g1
(g7
tRp3103
g1063
F1
ss(S'the'
p3104
S'same'
p3105
tp3106
g1
(g7
tRp3107
g2156
F0.19999999999999998
sg452
F0.19999999999999998
sg2311
F0.19999999999999998
sS'dollars'
p3108
F0.19999999999999998
sg2846
F0.19999999999999998
ss(S'a'
g1391
tp3109
g1
(g7
tRp3110
g1392
F1
ss(S'all,'
S'I'
tp3111
g1
(g7
tRp3112
g2948
F1
ss(g2047
g2471
tp3113
g1
(g7
tRp3114
g1262
F0.25
sS'to'
p3115
F0.25
sg2472
F0.25
sS'your'
p3116
F0.25
ss(S'honest'
p3117
g1614
tp3118
g1
(g7
tRp3119
S'we'
p3120
F1
ss(g1821
g1824
tp3121
g1
(g7
tRp3122
g2304
F1
ss(g843
g52
tp3123
g1
(g7
tRp3124
g1488
F1
ss(g1804
g681
tp3125
g1
(g7
tRp3126
g682
F1
ss(g1087
g1092
tp3127
g1
(g7
tRp3128
g2118
F1
ss(g339
tp3129
g1
(g7
tRp3130
g340
F1
ss(g1200
g1203
tp3131
g1
(g7
tRp3132
g26
F1
ss(g630
tp3133
g1
(g7
tRp3134
g631
F1
ss(g425
tp3135
g1
(g7
tRp3136
g699
F1
ss(S'this'
p3137
tp3138
g1
(g7
tRp3139
g1508
F0.19999999999999998
sg1756
F0.19999999999999998
sS'is'
p3140
F0.39999999999999997
sg984
F0.19999999999999998
ss(g1879
tp3141
g1
(g7
tRp3142
g1729
F0.5
sg118
F0.5
ss(g908
g1936
tp3143
g1
(g7
tRp3144
g1176
F1
ss(g106
tp3145
g1
(g7
tRp3146
g107
F1
ss(S'OK,'
p3147
g511
tp3148
g1
(g7
tRp3149
g514
F1
ss(g414
g417
tp3150
g1
(g7
tRp3151
g2217
F1
ss(g854
g857
tp3152
g1
(g7
tRp3153
g1266
F1
ss(g1524
g1527
tp3154
g1
(g7
tRp3155
g1804
F1
ss(g2237
g326
tp3156
g1
(g7
tRp3157
g331
F0.5
sg2288
F0.5
ss(S'have'
p3158
S'divided'
p3159
tp3160
g1
(g7
tRp3161
S'government'
p3162
F1
ss(g254
g257
tp3163
g1
(g7
tRp3164
g2074
F1
ss(S''
tp3165
g1
(g7
tRp3166
S''
F0
sg2371
F0.041666666666666644
sg1849
F0.008333333333333328
sg969
F0.008333333333333328
sg146
F0.008333333333333328
sS"I'm"
p3167
F0.008333333333333328
sS'You'
p3168
F0.041666666666666644
sg3147
F0.008333333333333328
sS'We'
p3169
F0.099999999999999936
sg926
F0.024999999999999984
sS"What's"
p3170
F0.008333333333333328
sg1941
F0.008333333333333328
sS'But'
p3171
F0.066666666666666624
sg141
F0.008333333333333328
sS'Medicaid'
p3172
F0.008333333333333328
sg3080
F0.024999999999999984
sS'you'
p3173
F0.008333333333333328
sS'Now'
p3174
F0.008333333333333328
sS'A'
F0.016666666666666656
sS'And,'
p3175
F0.008333333333333328
sS'I'
F0.074999999999999956
sg3013
F0.016666666666666656
sS'So'
p3176
F0.024999999999999984
sg1678
F0.008333333333333328
sS'Also,'
p3177
F0.008333333333333328
sS'Marco,'
p3178
F0.008333333333333328
sS'The'
p3179
F0.016666666666666656
sg1816
F0.008333333333333328
sg827
F0.008333333333333328
sg612
F0.008333333333333328
sg551
F0.008333333333333328
sg674
F0.016666666666666656
sg1747
F0.2333333333333332
sS'OK'
p3180
F0.016666666666666656
sg2406
F0.008333333333333328
sS'Over'
p3181
F0.008333333333333328
sS'It'
p3182
F0.033333333333333312
sS'One'
p3183
F0.008333333333333328
sg3071
F0.016666666666666656
sg2151
F0.008333333333333328
sS'Americans'
p3184
F0.008333333333333328
sS'If'
p3185
F0.033333333333333312
ss(g2166
tp3186
g1
(g7
tRp3187
g869
F1
ss(S'way,'
p3188
tp3189
g1
(g7
tRp3190
g2193
F1
ss(g1990
S'a'
tp3191
g1
(g7
tRp3192
g283
F1
ss(g1325
tp3193
g1
(g7
tRp3194
g1326
F1
ss(g647
g977
tp3195
g1
(g7
tRp3196
g640
F1
ss(g2040
tp3197
g1
(g7
tRp3198
g439
F1
ss(g1520
S'I'
tp3199
g1
(g7
tRp3200
g2365
F1
ss(g2363
tp3201
g1
(g7
tRp3202
g501
F1
ss(g1287
tp3203
g1
(g7
tRp3204
g2307
F1
ss(g519
g1011
tp3205
g1
(g7
tRp3206
g1012
F1
ss(S'who'
p3207
g1272
tp3208
g1
(g7
tRp3209
g2761
F0.33333333333333331
sg636
F0.33333333333333331
sg1273
F0.33333333333333331
ss(S'--'
p3210
g1086
tp3211
g1
(g7
tRp3212
g1087
F1
ss(g884
tp3213
g1
(g7
tRp3214
g885
F0.5
sg378
F0.5
ss(g854
tp3215
g1
(g7
tRp3216
g857
F1
ss(g3170
tp3217
g1
(g7
tRp3218
S'the'
p3219
F1
ss(g1872
tp3220
g1
(g7
tRp3221
g1417
F1
ss(g1351
tp3222
g1
(g7
tRp3223
g804
F0.25
sg1977
F0.25
sS'for'
p3224
F0.25
sg1354
F0.25
ss(g1054
g9
tp3225
g1
(g7
tRp3226
g15
F1
ss(g970
g230
tp3227
g1
(g7
tRp3228
g231
F1
ss(g2348
g495
tp3229
g1
(g7
tRp3230
g333
F1
ss(g1564
tp3231
g1
(g7
tRp3232
g1565
F1
ss(g991
tp3233
g1
(g7
tRp3234
S''
F1
ss(S'of'
p3235
g1891
tp3236
g1
(g7
tRp3237
g1892
F1
ss(g473
g476
tp3238
g1
(g7
tRp3239
S'do'
p3240
F1
ss(g205
g208
tp3241
g1
(g7
tRp3242
g1586
F1
ss(g1495
g1296
tp3243
g1
(g7
tRp3244
g2652
F1
ss(g1729
tp3245
g1
(g7
tRp3246
S''
F0.5
sg1730
F0.5
ss(g575
g578
tp3247
g1
(g7
tRp3248
S'here'
p3249
F1
ss(g3176
S'nobody'
p3250
tp3251
g1
(g7
tRp3252
g406
F1
ss(g2637
g665
tp3253
g1
(g7
tRp3254
g2839
F1
ss(g1992
g1986
tp3255
g1
(g7
tRp3256
S'I'
F1
ss(g2085
tp3257
g1
(g7
tRp3258
g2086
F1
ss(g438
tp3259
g1
(g7
tRp3260
S''
F0.5
sg1876
F0.5
ss(S'talents'
p3261
tp3262
g1
(g7
tRp3263
S'as'
p3264
F1
ss(g1039
tp3265
g1
(g7
tRp3266
g1040
F1
ss(g1029
tp3267
g1
(g7
tRp3268
S'months'
p3269
F0.5
sg2521
F0.5
ss(g2275
S'I'
tp3270
g1
(g7
tRp3271
S'spoke'
p3272
F1
ss(S'or'
p3273
S'uncle'
p3274
tp3275
g1
(g7
tRp3276
S''
F1
ss(g295
g106
tp3277
g1
(g7
tRp3278
g107
F1
ss(g2819
g1388
tp3279
g1
(g7
tRp3280
g103
F1
ss(g362
g2401
tp3281
g1
(g7
tRp3282
g529
F1
ss(g560
g563
tp3283
g1
(g7
tRp3284
g332
F1
ss(S'It'
S"doesn't"
p3285
tp3286
g1
(g7
tRp3287
g2159
F1
ss(g440
tp3288
g1
(g7
tRp3289
g443
F1
ss(g234
g2061
tp3290
g1
(g7
tRp3291
g2062
F1
ss(g1681
g2054
tp3292
g1
(g7
tRp3293
g35
F1
ss(S'the'
p3294
g2954
tp3295
g1
(g7
tRp3296
g1155
F1
ss(g3159
g3162
tp3297
g1
(g7
tRp3298
S''
F1
ss(g1207
g1210
tp3299
g1
(g7
tRp3300
g2533
F1
ss(g2042
tp3301
g1
(g7
tRp3302
g1708
F1
ss(g293
S'the'
p3303
tp3304
g1
(g7
tRp3305
S'$1,500'
p3306
F1
ss(S'We'
S'are'
p3307
tp3308
g1
(g7
tRp3309
S'compassionate'
p3310
F1
ss(g2826
g1282
tp3311
g1
(g7
tRp3312
g3261
F1
ss(g428
g2121
tp3313
g1
(g7
tRp3314
S''
F1
ss(g2554
g2274
tp3315
g1
(g7
tRp3316
g2275
F1
ss(g111
S'I'
tp3317
g1
(g7
tRp3318
S'would'
p3319
F1
ss(S'system'
p3320
g1152
tp3321
g1
(g7
tRp3322
g1603
F1
ss(g2843
g2451
tp3323
g1
(g7
tRp3324
g1367
F1
ss(g1730
tp3325
g1
(g7
tRp3326
g1733
F1
ss(g2251
g2857
tp3327
g1
(g7
tRp3328
g506
F0.5
sg717
F0.5
ss(g529
g2614
tp3329
g1
(g7
tRp3330
g244
F1
ss(S'the'
p3331
g884
tp3332
g1
(g7
tRp3333
g885
F1
ss(g1368
g1371
tp3334
g1
(g7
tRp3335
g2163
F1
ss(g2128
g2131
tp3336
g1
(g7
tRp3337
S'a'
F1
ss(g1228
tp3338
g1
(g7
tRp3339
S'America'
p3340
F0.66666666666666663
sS'Korea'
p3341
F0.33333333333333337
ss(g1434
tp3342
g1
(g7
tRp3343
g1437
F1
ss(g2822
g1153
tp3344
g1
(g7
tRp3345
S'will'
p3346
F1
ss(g1647
g1141
tp3347
g1
(g7
tRp3348
g1142
F1
ss(g2582
tp3349
g1
(g7
tRp3350
g1664
F1
ss(g1883
tp3351
g1
(g7
tRp3352
S'I'
F0.16666666666666669
sS''
F0.16666666666666669
sg1884
F0.33333333333333331
sg31
F0.16666666666666669
sg495
F0.16666666666666669
ss(g1276
g2111
tp3353
g1
(g7
tRp3354
g787
F1
ss(g2918
tp3355
g1
(g7
tRp3356
S'from'
p3357
F1
ss(g528
S'me'
p3358
tp3359
g1
(g7
tRp3360
g1308
F1
ss(g2074
g1280
tp3361
g1
(g7
tRp3362
g812
F1
ss(S'They'
g3083
tp3363
g1
(g7
tRp3364
g2661
F1
ss(g1807
tp3365
g1
(g7
tRp3366
S'I'
F0.33333333333333331
sg1338
F0.33333333333333331
sg1725
F0.33333333333333331
ss(g2395
g713
tp3367
g1
(g7
tRp3368
g186
F1
ss(g885
g888
tp3369
g1
(g7
tRp3370
g2169
F1
ss(g1087
tp3371
g1
(g7
tRp3372
g2048
F0.090909090909090925
sS'I'
F0.090909090909090925
sg616
F0.090909090909090925
sg3137
F0.090909090909090925
sg1018
F0.090909090909090925
sg1090
F0.090909090909090925
sg1091
F0.090909090909090925
sg1092
F0.090909090909090925
sg90
F0.090909090909090925
sg1093
F0.090909090909090925
sg180
F0.090909090909090925
ss(g3181
S'$5,000'
p3373
tp3374
g1
(g7
tRp3375
g1955
F1
ss(g3285
tp3376
g1
(g7
tRp3377
g2159
F1
ss(g326
g331
tp3378
g1
(g7
tRp3379
S''
F0.33333333333333331
sS'the'
p3380
F0.33333333333333331
sS'an'
p3381
F0.33333333333333331
ss(g245
g166
tp3382
g1
(g7
tRp3383
g167
F1
ss(g710
g820
tp3384
g1
(g7
tRp3385
g1543
F1
ss(S'birth'
p3386
S'until'
p3387
tp3388
g1
(g7
tRp3389
S'death'
p3390
F1
ss(S'appropriate'
p3391
tp3392
g1
(g7
tRp3393
g3188
F1
ss(S'to'
p3394
g2461
tp3395
g1
(g7
tRp3396
g2462
F1
ss(g140
g1617
tp3397
g1
(g7
tRp3398
g1618
F1
ss(S'life'
p3399
S'has'
p3400
tp3401
g1
(g7
tRp3402
g1206
F1
ss(S"don't"
p3403
g2040
tp3404
g1
(g7
tRp3405
g439
F1
ss(g3172
tp3406
g1
(g7
tRp3407
S''
F0.66666666666666663
sg5
F0.33333333333333337
ss(g846
tp3408
g1
(g7
tRp3409
g1519
F1
ss(g2359
S'one'
p3410
tp3411
g1
(g7
tRp3412
g361
F1
ss(g1329
g3394
tp3413
g1
(g7
tRp3414
g2461
F1
ss(S'think'
g917
tp3415
g1
(g7
tRp3416
g2965
F1
ss(g1326
g1329
tp3417
g1
(g7
tRp3418
g3394
F1
ss(S'exactly'
p3419
g3104
tp3420
g1
(g7
tRp3421
g3105
F1
ss(g393
tp3422
g1
(g7
tRp3423
g394
F1
ss(g3179
g413
tp3424
g1
(g7
tRp3425
g414
F1
ss(g852
tp3426
g1
(g7
tRp3427
g2278
F1
ss(g77
g80
tp3428
g1
(g7
tRp3429
g2033
F1
ss(g71
S'anymore'
p3430
tp3431
g1
(g7
tRp3432
S''
F1
ss(g1365
g531
tp3433
g1
(g7
tRp3434
g973
F1
ss(g1307
g2433
tp3435
g1
(g7
tRp3436
g2434
F1
ss(g2013
tp3437
g1
(g7
tRp3438
S'be'
p3439
F0.14285714285714288
sg2678
F0.071428571428571438
sg1349
F0.071428571428571438
sg2445
F0.071428571428571438
sg2188
F0.14285714285714288
sg738
F0.071428571428571438
sg1251
F0.071428571428571438
sg2017
F0.071428571428571438
sg2016
F0.071428571428571438
sg1444
F0.071428571428571438
sg1123
F0.14285714285714288
ss(g2501
S'secure'
p3440
tp3441
g1
(g7
tRp3442
S'the'
p3443
F1
ss(S'talk'
p3444
g947
tp3445
g1
(g7
tRp3446
g712
F1
ss(g788
g444
tp3447
g1
(g7
tRp3448
S''
F1
ss(g925
g1777
tp3449
g1
(g7
tRp3450
S'same'
p3451
F1
ss(g1134
g22
tp3452
g1
(g7
tRp3453
g25
F1
ss(g2992
tp3454
g1
(g7
tRp3455
g2769
F0.16666666666666669
sg59
F0.16666666666666669
sg1995
F0.33333333333333331
sg2394
F0.16666666666666669
sg2993
F0.16666666666666669
ss(g607
S'wit'
p3456
tp3457
g1
(g7
tRp3458
S'and'
p3459
F1
ss(g71
tp3460
g1
(g7
tRp3461
g3430
F1
ss(S'away'
p3462
S'with'
p3463
tp3464
g1
(g7
tRp3465
g1976
F1
ss(g1865
tp3466
g1
(g7
tRp3467
g1866
F1
ss(g912
g915
tp3468
g1
(g7
tRp3469
g2590
F1
ss(S'to'
p3470
g2076
tp3471
g1
(g7
tRp3472
g2079
F1
ss(g1793
S'fair'
p3473
tp3474
g1
(g7
tRp3475
S''
F0.19999999999999998
sg1786
F0.79999999999999993
ss(S'have'
g951
tp3476
g1
(g7
tRp3477
S'missiles,'
p3478
F1
ss(g1519
tp3479
g1
(g7
tRp3480
g1520
F1
ss(g3183
g1547
tp3481
g1
(g7
tRp3482
g1548
F1
ss(g389
S'of'
p3483
tp3484
g1
(g7
tRp3485
S'the'
p3486
F1
ss(S'they'
p3487
g330
tp3488
g1
(g7
tRp3489
S''
F1
ss(g47
g2348
tp3490
g1
(g7
tRp3491
g495
F1
ss(g733
g736
tp3492
g1
(g7
tRp3493
S'after'
p3494
F1
ss(g1403
g2644
tp3495
g1
(g7
tRp3496
g2919
F1
ss(g2472
g731
tp3497
g1
(g7
tRp3498
g1634
F1
ss(g1866
g372
tp3499
g1
(g7
tRp3500
g507
F0.19999999999999998
sg3022
F0.19999999999999998
sS'necessary'
p3501
F0.19999999999999998
sg2585
F0.19999999999999998
sg373
F0.19999999999999998
ss(g3171
tp3502
g1
(g7
tRp3503
g1007
F0.125
sS'do'
p3504
F0.125
sg1905
F0.125
sS'I'
F0.125
sS'we'
p3505
F0.125
sg1094
F0.125
sS'in'
p3506
F0.125
sg2992
F0.125
ss(g1900
g889
tp3507
g1
(g7
tRp3508
S'a'
F1
ss(S'be'
p3509
g1220
tp3510
g1
(g7
tRp3511
g1223
F1
ss(g126
tp3512
g1
(g7
tRp3513
g1958
F1
ss(S'I'
g1813
tp3514
g1
(g7
tRp3515
S'a'
F1
ss(S'all,'
g883
tp3516
g1
(g7
tRp3517
g1915
F1
ss(g888
tp3518
g1
(g7
tRp3519
g2169
F1
ss(g229
g528
tp3520
g1
(g7
tRp3521
g3358
F1
ss(g1169
g1172
tp3522
g1
(g7
tRp3523
g2985
F1
ss(g170
g500
tp3524
g1
(g7
tRp3525
S'Israel'
p3526
F1
ss(g538
g81
tp3527
g1
(g7
tRp3528
g84
F1
ss(g554
g2521
tp3529
g1
(g7
tRp3530
g2873
F1
ss(g1681
tp3531
g1
(g7
tRp3532
g2054
F1
ss(g598
tp3533
g1
(g7
tRp3534
S''
F1
ss(g413
tp3535
g1
(g7
tRp3536
g414
F1
ss(S'naval'
p3537
g2042
tp3538
g1
(g7
tRp3539
g1708
F1
ss(g1412
g1359
tp3540
g1
(g7
tRp3541
g1360
F1
ss(g2839
g1883
tp3542
g1
(g7
tRp3543
g1884
F1
ss(S'pay'
p3544
g1659
tp3545
g1
(g7
tRp3546
g844
F0.5
sg843
F0.5
ss(g1079
tp3547
g1
(g7
tRp3548
g1082
F1
ss(g205
tp3549
g1
(g7
tRp3550
g1946
F0.33333333333333331
sg393
F0.33333333333333331
sg208
F0.33333333333333331
ss(g1946
S'I'
tp3551
g1
(g7
tRp3552
S'would'
p3553
F1
ss(g2301
g16
tp3554
g1
(g7
tRp3555
g2818
F1
ss(g2003
tp3556
g1
(g7
tRp3557
g745
F1
ss(g132
g135
tp3558
g1
(g7
tRp3559
g2188
F0.66666666666666663
sg2445
F0.33333333333333337
ss(S'everybody'
p3560
g324
tp3561
g1
(g7
tRp3562
g3386
F1
ss(g2065
tp3563
g1
(g7
tRp3564
g1653
F0.33333333333333331
sg473
F0.33333333333333331
sg2782
F0.33333333333333331
ss(g1073
g1207
tp3565
g1
(g7
tRp3566
g1210
F1
ss(g2234
g2237
tp3567
g1
(g7
tRp3568
g326
F1
ss(S'we'
g218
tp3569
g1
(g7
tRp3570
S'need'
p3571
F1
ss(g3177
tp3572
g1
(g7
tRp3573
g2647
F1
ss(g2760
g2100
tp3574
g1
(g7
tRp3575
g2145
F1
ss(S'a'
g722
tp3576
g1
(g7
tRp3577
g725
F1
ss(g1888
S'the'
p3578
tp3579
g1
(g7
tRp3580
g2465
F1
ss(g2905
tp3581
g1
(g7
tRp3582
g1240
F1
ss(g1391
tp3583
g1
(g7
tRp3584
g1392
F0.5
sg1216
F0.5
ss(g357
g2572
tp3585
g1
(g7
tRp3586
g2773
F1
ss(g3439
g1514
tp3587
g1
(g7
tRp3588
S'a'
F1
ss(g2713
tp3589
g1
(g7
tRp3590
g2714
F1
ss(g2448
g1953
tp3591
g1
(g7
tRp3592
g2227
F1
ss(g58
g3419
tp3593
g1
(g7
tRp3594
g3104
F1
ss(g3373
g1955
tp3595
g1
(g7
tRp3596
g845
F1
ss(g2354
tp3597
g1
(g7
tRp3598
g2398
F1
ss(S'of'
g2902
tp3599
g1
(g7
tRp3600
S'do'
p3601
F1
ss(g2166
g869
tp3602
g1
(g7
tRp3603
g872
F1
ss(g1454
tp3604
g1
(g7
tRp3605
g1455
F1
ss(g230
tp3606
g1
(g7
tRp3607
S''
F0.10000000000000002
sS'Israel'
p3608
F0.10000000000000002
sg231
F0.10000000000000002
sg2293
F0.20000000000000004
sg398
F0.10000000000000002
sg2146
F0.10000000000000002
sg2607
F0.10000000000000002
sg1309
F0.10000000000000002
sg2062
F0.10000000000000002
ss(S'shift'
p3609
g2438
tp3610
g1
(g7
tRp3611
g433
F1
ss(g3269
g1869
tp3612
g1
(g7
tRp3613
S'I'
F1
ss(g954
g3034
tp3614
g1
(g7
tRp3615
g714
F1
ss(g2393
g2804
tp3616
g1
(g7
tRp3617
g783
F1
ss(g2298
g452
tp3618
g1
(g7
tRp3619
g455
F1
ss(S'would'
p3620
g1901
tp3621
g1
(g7
tRp3622
g1904
F1
ss(S'And'
S'you'
p3623
tp3624
g1
(g7
tRp3625
g204
F1
ss(g1077
g2393
tp3626
g1
(g7
tRp3627
g2804
F1
ss(g3473
tp3628
g1
(g7
tRp3629
S''
F0.16666666666666669
sg2557
F0.83333333333333326
ss(S'We'
g1433
tp3630
g1
(g7
tRp3631
g1434
F1
ss(g2066
g325
tp3632
g1
(g7
tRp3633
S''
F0.5
sg692
F0.5
ss(g1640
tp3634
g1
(g7
tRp3635
g1062
F1
ss(g706
g1789
tp3636
g1
(g7
tRp3637
S''
F0.33333333333333331
sg27
F0.33333333333333331
sg1790
F0.33333333333333331
ss(S'to'
p3638
g1723
tp3639
g1
(g7
tRp3640
S'all'
p3641
F1
ss(g3034
g714
tp3642
g1
(g7
tRp3643
g2548
F1
ss(g2204
g183
tp3644
g1
(g7
tRp3645
g1033
F1
ss(g3419
tp3646
g1
(g7
tRp3647
g3104
F1
ss(g3184
tp3648
g1
(g7
tRp3649
g2285
F1
ss(g2894
tp3650
g1
(g7
tRp3651
g1173
F0.5
sg2897
F0.5
ss(g1317
g710
tp3652
g1
(g7
tRp3653
g820
F1
ss(g929
g1123
tp3654
g1
(g7
tRp3655
g1126
F1
ss(g1937
g1940
tp3656
g1
(g7
tRp3657
g648
F1
ss(g2656
g2311
tp3658
g1
(g7
tRp3659
g1173
F1
ss(S'would'
p3660
S'go'
p3661
tp3662
g1
(g7
tRp3663
g1137
F1
ss(g2567
g2607
tp3664
g1
(g7
tRp3665
g2608
F1
ss(S'place'
p3666
tp3667
g1
(g7
tRp3668
S'with'
p3669
F1
ss(g1647
tp3670
g1
(g7
tRp3671
g1141
F1
ss(g2494
tp3672
g1
(g7
tRp3673
S'a'
F0.25
sg2693
F0.25
sg1555
F0.25
sg357
F0.25
ss(S'can'
p3674
S'have'
p3675
tp3676
g1
(g7
tRp3677
g3294
F1
ss(g2193
tp3678
g1
(g7
tRp3679
S'a'
F0.25
sg2194
F0.25
sg3274
F0.25
sg1078
F0.25
ss(g363
g366
tp3680
g1
(g7
tRp3681
S'lives'
p3682
F1
ss(g2611
g2903
tp3683
g1
(g7
tRp3684
g1922
F1
ss(S'I'
g2677
tp3685
g1
(g7
tRp3686
g2678
F1
ss(g593
g596
tp3687
g1
(g7
tRp3688
g185
F1
ss(g312
g315
tp3689
g1
(g7
tRp3690
g2293
F1
ss(g425
g699
tp3691
g1
(g7
tRp3692
S'it'
p3693
F1
ss(g1432
g2951
tp3694
g1
(g7
tRp3695
g1224
F1
ss(g2505
g752
tp3696
g1
(g7
tRp3697
g584
F1
ss(g3310
tp3698
g1
(g7
tRp3699
S''
F1
ss(g102
g1099
tp3700
g1
(g7
tRp3701
g1100
F1
ss(g1026
g564
tp3702
g1
(g7
tRp3703
g270
F1
ss(g3105
tp3704
g1
(g7
tRp3705
g2156
F0.19999999999999998
sg452
F0.19999999999999998
sg2311
F0.19999999999999998
sg3108
F0.19999999999999998
sg2846
F0.19999999999999998
ss(S'choices'
p3706
tp3707
g1
(g7
tRp3708
S'that'
p3709
F1
ss(g2192
g2693
tp3710
g1
(g7
tRp3711
g2882
F1
ss(g759
tp3712
g1
(g7
tRp3713
S'I'
F1
ss(g2485
g2488
tp3714
g1
(g7
tRp3715
g709
F1
ss(g3537
tp3716
g1
(g7
tRp3717
g2042
F1
ss(g726
g344
tp3718
g1
(g7
tRp3719
S''
F1
ss(S'but'
p3720
tp3721
g1
(g7
tRp3722
g1026
F0.14285714285714288
sg106
F0.14285714285714288
sg2572
F0.14285714285714288
sg563
F0.14285714285714288
sg2089
F0.14285714285714288
sg2393
F0.14285714285714288
sg304
F0.14285714285714288
ss(S'robust'
p3723
tp3724
g1
(g7
tRp3725
g3537
F1
ss(g2460
g473
tp3726
g1
(g7
tRp3727
g476
F1
ss(g1602
g44
tp3728
g1
(g7
tRp3729
S''
F1
ss(g451
tp3730
g1
(g7
tRp3731
g1001
F0.5
sg1236
F0.5
ss(g3083
g2661
tp3732
g1
(g7
tRp3733
g2345
F1
ss(g1751
tp3734
g1
(g7
tRp3735
S'described'
p3736
F1
ss(g3440
g3443
tp3737
g1
(g7
tRp3738
g1919
F1
ss(g2039
g2258
tp3739
g1
(g7
tRp3740
g2382
F1
ss(S'all,'
g882
tp3741
g1
(g7
tRp3742
g621
F1
ss(g1492
g3108
tp3743
g1
(g7
tRp3744
S'that'
p3745
F1
ss(S'him'
p3746
g1692
tp3747
g1
(g7
tRp3748
S'a'
F1
ss(S'And'
S'they'
p3749
tp3750
g1
(g7
tRp3751
S"didn't"
p3752
F1
ss(S'I'
S'never'
p3753
tp3754
g1
(g7
tRp3755
S'had'
p3756
F1
ss(g1990
tp3757
g1
(g7
tRp3758
S'a'
F0.5
sg1438
F0.5
ss(g2549
g708
tp3759
g1
(g7
tRp3760
g769
F1
ss(S'know,'
p3761
g3137
tp3762
g1
(g7
tRp3763
g3140
F1
ss(S'only'
p3764
tp3765
g1
(g7
tRp3766
g1702
F0.25
sg461
F0.25
sg1824
F0.25
sg358
F0.25
ss(g361
g749
tp3767
g1
(g7
tRp3768
S'a'
F1
ss(g955
g609
tp3769
g1
(g7
tRp3770
g294
F1
ss(g371
S'we'
p3771
tp3772
g1
(g7
tRp3773
S'need'
p3774
F1
ss(g3504
S'the'
p3775
tp3776
g1
(g7
tRp3777
g258
F1
ss(S'the'
p3778
g159
tp3779
g1
(g7
tRp3780
g163
F0.5
sg165
F0.5
ss(g1277
g1292
tp3781
g1
(g7
tRp3782
g2385
F1
ss(g1888
tp3783
g1
(g7
tRp3784
g3578
F1
ss(g410
tp3785
g1
(g7
tRp3786
S'things'
p3787
F1
ss(g3185
g1325
tp3788
g1
(g7
tRp3789
g1326
F1
ss(g2465
g2468
tp3790
g1
(g7
tRp3791
S'I'
F1
ss(g681
tp3792
g1
(g7
tRp3793
g922
F0.0625
sg1225
F0.0625
sg682
F0.0625
sg1709
F0.0625
sg1755
F0.0625
sg1447
F0.0625
sg823
F0.0625
sS'an'
p3794
F0.0625
sg30
F0.0625
sg1754
F0.0625
sg859
F0.125
sg666
F0.0625
sg3666
F0.0625
sg1099
F0.0625
sg1421
F0.0625
ss(g2903
tp3795
g1
(g7
tRp3796
g1922
F1
ss(g1767
tp3797
g1
(g7
tRp3798
g3723
F0.33333333333333331
sg1770
F0.33333333333333331
sg482
F0.33333333333333331
ss(g828
tp3799
g1
(g7
tRp3800
g831
F1
ss(g655
g1930
tp3801
g1
(g7
tRp3802
S'to'
p3803
F1
ss(g801
g2567
tp3804
g1
(g7
tRp3805
g2607
F1
ss(g2572
tp3806
g1
(g7
tRp3807
g3571
F0.5
sg2773
F0.5
ss(g371
tp3808
g1
(g7
tRp3809
g3771
F1
ss(g1794
g815
tp3810
g1
(g7
tRp3811
S''
F1
ss(g1740
S'I'
tp3812
g1
(g7
tRp3813
S'believe'
p3814
F0.33333333333333331
sS'think'
p3815
F0.33333333333333331
sg3620
F0.33333333333333331
ss(g1491
g2822
tp3816
g1
(g7
tRp3817
g1153
F1
ss(g1709
g705
tp3818
g1
(g7
tRp3819
g2477
F1
ss(g184
g221
tp3820
g1
(g7
tRp3821
g224
F1
ss(g1876
g1879
tp3822
g1
(g7
tRp3823
g1729
F1
ss(S'about'
g3608
tp3824
g1
(g7
tRp3825
S''
F1
ss(g2660
g1835
tp3826
g1
(g7
tRp3827
g1838
F1
ss(g722
g725
tp3828
g1
(g7
tRp3829
g1182
F1
ss(g1371
tp3830
g1
(g7
tRp3831
g2163
F1
ss(g1798
g1801
tp3832
g1
(g7
tRp3833
g2013
F1
ss(g2657
tp3834
g1
(g7
tRp3835
g2660
F1
ss(g3390
tp3836
g1
(g7
tRp3837
S''
F1
ss(g16
g2818
tp3838
g1
(g7
tRp3839
g187
F1
ss(g2054
g35
tp3840
g1
(g7
tRp3841
g38
F1
ss(g3170
g3219
tp3842
g1
(g7
tRp3843
g4
F1
ss(g528
tp3844
g1
(g7
tRp3845
g3358
F1
ss(g1940
g648
tp3846
g1
(g7
tRp3847
g649
F1
ss(g1349
g2502
tp3848
g1
(g7
tRp3849
g2025
F1
ss(g1283
tp3850
g1
(g7
tRp3851
S''
F1
ss(g607
tp3852
g1
(g7
tRp3853
g3456
F1
ss(g3451
g2846
tp3854
g1
(g7
tRp3855
g2010
F1
ss(g1551
tp3856
g1
(g7
tRp3857
S'families'
p3858
F0.33333333333333331
sg1552
F0.33333333333333331
sg3682
F0.33333333333333331
ss(g967
tp3859
g1
(g7
tRp3860
g3473
F0.38461538461538469
sg1839
F0.076923076923076927
sg961
F0.076923076923076927
sg1220
F0.15384615384615385
sg2103
F0.076923076923076927
sg780
F0.076923076923076927
sg1514
F0.076923076923076927
sg1299
F0.076923076923076927
ss(S'I'
S'believe'
p3861
tp3862
g1
(g7
tRp3863
g2704
F0.5
sS'in'
p3864
F0.5
ss(g1723
g3641
tp3865
g1
(g7
tRp3866
g814
F1
ss(g1289
g1377
tp3867
g1
(g7
tRp3868
g1378
F1
ss(g461
g464
tp3869
g1
(g7
tRp3870
g1074
F1
ss(S'foreign'
p3871
tp3872
g1
(g7
tRp3873
S'aid:'
p3874
F1
ss(g307
g310
tp3875
g1
(g7
tRp3876
g685
F1
ss(g1105
g1447
tp3877
g1
(g7
tRp3878
g1448
F1
ss(g2993
tp3879
g1
(g7
tRp3880
g2996
F1
ss(g714
g2548
tp3881
g1
(g7
tRp3882
g2549
F1
ss(S'will'
g738
tp3883
g1
(g7
tRp3884
g739
F1
ss(g2372
g1720
tp3885
g1
(g7
tRp3886
g864
F1
ss(S'strength'
p3887
g2632
tp3888
g1
(g7
tRp3889
S'him'
p3890
F1
ss(S'and'
p3891
g1281
tp3892
g1
(g7
tRp3893
S'many'
p3894
F1
ss(g51
g3560
tp3895
g1
(g7
tRp3896
g324
F1
ss(g3210
tp3897
g1
(g7
tRp3898
g938
F0.125
sg2549
F0.125
sS'I'
F0.125
sg1559
F0.125
sg3494
F0.125
sg1248
F0.125
sg1086
F0.125
sg469
F0.125
ss(g1470
g1473
tp3899
g1
(g7
tRp3900
g1289
F1
ss(g2152
g2155
tp3901
g1
(g7
tRp3902
S'North'
p3903
F0.33333333333333331
sg3017
F0.33333333333333331
sg2713
F0.33333333333333331
ss(g1583
g1576
tp3904
g1
(g7
tRp3905
g1314
F1
ss(g279
g164
tp3906
g1
(g7
tRp3907
g1372
F1
ss(g1560
tp3908
g1
(g7
tRp3909
g1563
F1
ss(g3108
g3745
tp3910
g1
(g7
tRp3911
S'we'
p3912
F1
ss(g2664
tp3913
g1
(g7
tRp3914
g2667
F1
ss(g2145
g1504
tp3915
g1
(g7
tRp3916
g1505
F1
ss(g448
g451
tp3917
g1
(g7
tRp3918
g1236
F1
ss(g1063
g1066
tp3919
g1
(g7
tRp3920
g2925
F1
ss(S'Supreme'
p3921
g3087
tp3922
g1
(g7
tRp3923
g3090
F1
ss(g2885
S'that'
p3924
tp3925
g1
(g7
tRp3926
S'is'
p3927
F1
ss(S'to'
p3928
g129
tp3929
g1
(g7
tRp3930
S'a'
F1
ss(S'a'
g1695
tp3931
g1
(g7
tRp3932
g3273
F1
ss(g2836
tp3933
g1
(g7
tRp3934
g2085
F1
ss(S'else'
p3935
g692
tp3936
g1
(g7
tRp3937
g1288
F1
ss(g1790
g1793
tp3938
g1
(g7
tRp3939
g1220
F0.66666666666666663
sg3473
F0.33333333333333337
ss(g2264
tp3940
g1
(g7
tRp3941
g2265
F1
ss(g3706
g3709
tp3942
g1
(g7
tRp3943
g2187
F1
ss(S'nation'
p3944
g2979
tp3945
g1
(g7
tRp3946
S'a'
F1
ss(g2644
g2919
tp3947
g1
(g7
tRp3948
g2922
F1
ss(g3274
tp3949
g1
(g7
tRp3950
S''
F1
ss(g930
g2491
tp3951
g1
(g7
tRp3952
g2494
F1
ss(g3682
g3891
tp3953
g1
(g7
tRp3954
g1281
F1
ss(g2731
tp3955
g1
(g7
tRp3956
g1277
F1
ss(g337
g2982
tp3957
g1
(g7
tRp3958
S'anything'
p3959
F1
ss(g1029
g3269
tp3960
g1
(g7
tRp3961
g1869
F1
ss(g915
tp3962
g1
(g7
tRp3963
g1496
F0.5
sg2590
F0.5
ss(g813
g1105
tp3964
g1
(g7
tRp3965
g1447
F1
ss(g1575
g1865
tp3966
g1
(g7
tRp3967
g1866
F1
ss(S'it'
p3968
g53
tp3969
g1
(g7
tRp3970
S'people'
p3971
F1
ss(g3462
tp3972
g1
(g7
tRp3973
g3463
F1
ss(g430
g3887
tp3974
g1
(g7
tRp3975
g2632
F1
ss(g952
tp3976
g1
(g7
tRp3977
S'capabilities'
p3978
F1
ss(g1591
tp3979
g1
(g7
tRp3980
S''
F0.5
sg987
F0.5
ss(g2183
g2186
tp3981
g1
(g7
tRp3982
g3027
F0.5
sS'the'
p3983
F0.5
ss(g2364
g3399
tp3984
g1
(g7
tRp3985
g3400
F1
ss(g3391
g3188
tp3986
g1
(g7
tRp3987
g2193
F1
ss(S'And'
g3968
tp3988
g1
(g7
tRp3989
g48
F0.5
sg53
F0.5
ss(g917
g2965
tp3990
g1
(g7
tRp3991
g2968
F1
ss(g2894
g2897
tp3992
g1
(g7
tRp3993
S'I'
F1
ss(g3753
tp3994
g1
(g7
tRp3995
g3756
F1
ss(g367
g371
tp3996
g1
(g7
tRp3997
g3771
F1
ss(g2369
g3764
tp3998
g1
(g7
tRp3999
g1702
F0.5
sg358
F0.5
ss(g427
S'a'
tp4000
g1
(g7
tRp4001
g1771
F1
ss(g865
tp4002
g1
(g7
tRp4003
S''
F0.071428571428571438
sg1119
F0.071428571428571438
sg868
F0.14285714285714288
sg592
F0.071428571428571438
sg1790
F0.071428571428571438
sg545
F0.071428571428571438
sg27
F0.071428571428571438
sg775
F0.14285714285714288
sg3775
F0.071428571428571438
sg200
F0.071428571428571438
sg1923
F0.14285714285714288
ss(g1010
g2674
tp4004
g1
(g7
tRp4005
g1055
F1
ss(g3303
g3306
tp4006
g1
(g7
tRp4007
g1856
F1
ss(g1022
tp4008
g1
(g7
tRp4009
g1023
F1
ss(g742
tp4010
g1
(g7
tRp4011
S'I'
F0.19999999999999998
sg882
F0.19999999999999998
sg136
F0.39999999999999997
sg883
F0.19999999999999998
ss(g759
S'I'
tp4012
g1
(g7
tRp4013
g3660
F1
ss(g1634
tp4014
g1
(g7
tRp4015
S''
F1
ss(S'We'
g3403
tp4016
g1
(g7
tRp4017
g2040
F1
ss(g154
tp4018
g1
(g7
tRp4019
g1712
F0.5
sg1716
F0.5
ss(g504
tp4020
g1
(g7
tRp4021
g2047
F1
ss(g2321
g2324
tp4022
g1
(g7
tRp4023
g601
F1
ss(g1223
g2182
tp4024
g1
(g7
tRp4025
g1594
F1
ss(S'that'
p4026
g717
tp4027
g1
(g7
tRp4028
S''
F1
ss(g290
g293
tp4029
g1
(g7
tRp4030
g3303
F1
ss(g334
g1251
tp4031
g1
(g7
tRp4032
S'a'
F1
ss(g3394
tp4033
g1
(g7
tRp4034
g425
F0.013888888888888902
sS'all'
p4035
F0.027777777777777804
sg1723
F0.013888888888888902
sg2562
F0.013888888888888902
sg601
F0.013888888888888902
sg2461
F0.013888888888888902
sg410
F0.013888888888888902
sg128
F0.013888888888888902
sg312
F0.013888888888888902
sg129
F0.013888888888888902
sg948
F0.083333333333333426
sg2124
F0.013888888888888902
sg225
F0.013888888888888902
sg3560
F0.013888888888888902
sg126
F0.013888888888888902
sg2386
F0.013888888888888902
sg427
F0.027777777777777804
sg1794
F0.013888888888888902
sg68
F0.013888888888888902
sg429
F0.013888888888888902
sg2561
F0.027777777777777804
sS'emphasize'
p4036
F0.013888888888888902
sg1185
F0.013888888888888902
sg1909
F0.027777777777777804
sg1581
F0.013888888888888902
sg779
F0.069444444444444517
sg2437
F0.013888888888888902
sg865
F0.027777777777777804
sg2698
F0.041666666666666713
sg103
F0.013888888888888902
sg428
F0.013888888888888902
sg3693
F0.013888888888888902
sg726
F0.013888888888888902
sg2882
F0.013888888888888902
sg625
F0.013888888888888902
sg575
F0.027777777777777804
sg3746
F0.027777777777777804
sg2183
F0.013888888888888902
sg1862
F0.013888888888888902
sS'a'
F0.013888888888888902
sg1543
F0.013888888888888902
sg402
F0.013888888888888902
sg426
F0.013888888888888902
sg3609
F0.013888888888888902
sg127
F0.013888888888888902
sg801
F0.013888888888888902
sS'benefit'
p4037
F0.013888888888888902
sg430
F0.013888888888888902
sg2076
F0.013888888888888902
sg1510
F0.013888888888888902
sg1895
F0.013888888888888902
sg2664
F0.013888888888888902
sg943
F0.027777777777777804
ss(g3456
g3459
tp4038
g1
(g7
tRp4039
g1283
F1
ss(S'is'
g968
tp4040
g1
(g7
tRp4041
g1185
F1
ss(g2929
g2617
tp4042
g1
(g7
tRp4043
g555
F1
ss(g2532
g2041
tp4044
g1
(g7
tRp4045
S'with'
p4046
F1
ss(g2581
g1653
tp4047
g1
(g7
tRp4048
g1654
F1
ss(g3903
g897
tp4049
g1
(g7
tRp4050
g898
F1
ss(g1069
tp4051
g1
(g7
tRp4052
g538
F0.5
sg1070
F0.5
ss(g1534
g1537
tp4053
g1
(g7
tRp4054
g3666
F1
ss(g210
tp4055
g1
(g7
tRp4056
g213
F1
ss(g731
g1634
tp4057
g1
(g7
tRp4058
S''
F1
ss(g1747
tp4059
g1
(g7
tRp4060
g1682
F0.035714285714285726
sg1880
F0.035714285714285726
sg214
F0.17857142857142863
sg3749
F0.035714285714285726
sg1748
F0.035714285714285726
sS'I'
F0.14285714285714288
sS"I'm"
p4061
F0.035714285714285726
sg3968
F0.071428571428571438
sg1643
F0.035714285714285726
sg755
F0.071428571428571438
sS'let'
p4062
F0.035714285714285726
sg630
F0.035714285714285726
sg2139
F0.035714285714285726
sg1991
F0.035714285714285726
sg2204
F0.035714285714285726
sg114
F0.035714285714285726
sg3623
F0.035714285714285726
sS"that's"
p4063
F0.071428571428571438
ss(g2146
S'I'
tp4064
g1
(g7
tRp4065
S"didn't"
p4066
F1
ss(g2076
g2079
tp4067
g1
(g7
tRp4068
g3794
F1
ss(g3501
tp4069
g1
(g7
tRp4070
S'to'
p4071
F1
ss(g3272
tp4072
g1
(g7
tRp4073
S'at'
p4074
F1
ss(g1322
tp4075
g1
(g7
tRp4076
S''
F1
ss(g1239
g1909
tp4077
g1
(g7
tRp4078
g2097
F0.5
sg1910
F0.5
ss(g1007
g1010
tp4079
g1
(g7
tRp4080
g2674
F1
ss(g761
g764
tp4081
g1
(g7
tRp4082
g1495
F1
ss(g862
g2698
tp4083
g1
(g7
tRp4084
g2905
F0.33333333333333331
sg1483
F0.33333333333333331
sg3462
F0.33333333333333331
ss(g253
tp4085
g1
(g7
tRp4086
g254
F1
ss(g707
g1054
tp4087
g1
(g7
tRp4088
g9
F1
ss(g725
tp4089
g1
(g7
tRp4090
g1182
F0.5
sS''
F0.5
ss(S'a'
g1454
tp4091
g1
(g7
tRp4092
g1455
F1
ss(g343
g300
tp4093
g1
(g7
tRp4094
g1590
F0.5
sg301
F0.5
ss(S'But'
g2992
tp4095
g1
(g7
tRp4096
g2993
F1
ss(g53
tp4097
g1
(g7
tRp4098
g3061
F0.5
sg3971
F0.5
ss(g2361
tp4099
g1
(g7
tRp4100
g3235
F1
ss(g159
g165
tp4101
g1
(g7
tRp4102
S'I'
F1
ss(g588
g591
tp4103
g1
(g7
tRp4104
g3341
F1
ss(g1142
g1145
tp4105
g1
(g7
tRp4106
g1429
F1
ss(g2707
tp4107
g1
(g7
tRp4108
g559
F0.10000000000000001
sg1451
F0.10000000000000001
sg122
F0.80000000000000004
ss(g2307
g2310
tp4109
g1
(g7
tRp4110
g3921
F1
ss(g837
tp4111
g1
(g7
tRp4112
g1032
F1
ss(g578
g3249
tp4113
g1
(g7
tRp4114
S''
F1
ss(g1900
tp4115
g1
(g7
tRp4116
g889
F1
ss(S'We'
S'should'
p4117
tp4118
g1
(g7
tRp4119
g3509
F1
ss(g1095
g1098
tp4120
g1
(g7
tRp4121
S'give'
p4122
F1
ss(g3182
g3060
tp4123
g1
(g7
tRp4124
g3061
F1
ss(g2016
g2505
tp4125
g1
(g7
tRp4126
g752
F1
ss(g1586
tp4127
g1
(g7
tRp4128
g1589
F1
ss(g3162
tp4129
g1
(g7
tRp4130
S''
F1
ss(g1244
g1400
tp4131
g1
(g7
tRp4132
g2234
F1
ss(S'get'
p4133
g3462
tp4134
g1
(g7
tRp4135
g3463
F1
ss(g2882
g2885
tp4136
g1
(g7
tRp4137
g3924
F1
ss(S'We'
g3544
tp4138
g1
(g7
tRp4139
g1659
F1
ss(g2100
g2145
tp4140
g1
(g7
tRp4141
g1504
F1
ss(g3159
tp4142
g1
(g7
tRp4143
g3162
F1
ss(g1508
g1740
tp4144
g1
(g7
tRp4145
S'I'
F1
ss(g231
tp4146
g1
(g7
tRp4147
g234
F0.25
sg3207
F0.5
sg384
F0.25
ss(g530
tp4148
g1
(g7
tRp4149
g1848
F1
ss(g164
g1372
tp4150
g1
(g7
tRp4151
g131
F1
ss(g1850
tp4152
g1
(g7
tRp4153
g1853
F1
ss(g3386
tp4154
g1
(g7
tRp4155
g3387
F1
ss(g2182
tp4156
g1
(g7
tRp4157
g1594
F1
ss(g330
tp4158
g1
(g7
tRp4159
S''
F0.5
sg397
F0.5
ss(g3071
g3074
tp4160
g1
(g7
tRp4161
S'of'
p4162
F1
ss(g3959
g680
tp4163
g1
(g7
tRp4164
g2686
F1
ss(g1464
tp4165
g1
(g7
tRp4166
g1467
F1
ss(g443
tp4167
g1
(g7
tRp4168
g1480
F1
ss(g1537
g3666
tp4169
g1
(g7
tRp4170
g3669
F1
ss(S'have'
p4171
g694
tp4172
g1
(g7
tRp4173
g330
F0.5
sg335
F0.5
ss(g234
tp4174
g1
(g7
tRp4175
g1145
F0.25
sg2061
F0.25
sg1963
F0.5
ss(g3261
g3264
tp4176
g1
(g7
tRp4177
g3871
F1
ss(g337
tp4178
g1
(g7
tRp4179
g2982
F1
ss(g1400
g2234
tp4180
g1
(g7
tRp4181
g2237
F1
ss(g3090
g99
tp4182
g1
(g7
tRp4183
S''
F1
ss(g3064
tp4184
g1
(g7
tRp4185
g2336
F1
ss(g1095
tp4186
g1
(g7
tRp4187
g1098
F1
ss(g2265
g2268
tp4188
g1
(g7
tRp4189
S'a'
F0.5
sg1523
F0.5
ss(g1589
g2904
tp4190
g1
(g7
tRp4191
g956
F1
ss(g2103
tp4192
g1
(g7
tRp4193
g1192
F0.5
sg838
F0.5
ss(g422
g428
tp4194
g1
(g7
tRp4195
g2121
F1
ss(g2502
tp4196
g1
(g7
tRp4197
g2025
F1
ss(g187
g190
tp4198
g1
(g7
tRp4199
S''
F1
ss(g2925
S'give'
p4200
tp4201
g1
(g7
tRp4202
S'it'
p4203
F1
ss(g154
g1716
tp4204
g1
(g7
tRp4205
g1719
F1
ss(g1581
g2264
tp4206
g1
(g7
tRp4207
g2265
F1
ss(g2902
g3601
tp4208
g1
(g7
tRp4209
S'you'
p4210
F1
ss(g2145
tp4211
g1
(g7
tRp4212
g1504
F1
ss(g1172
tp4213
g1
(g7
tRp4214
g2985
F1
ss(g876
tp4215
g1
(g7
tRp4216
g992
F1
ss(g5
tp4217
g1
(g7
tRp4218
S''
F1
ss(S'for'
p4219
g844
tp4220
g1
(g7
tRp4221
g580
F1
ss(g3176
tp4222
g1
(g7
tRp4223
g111
F0.33333333333333331
sg3250
F0.33333333333333331
sg1640
F0.33333333333333331
ss(g771
g774
tp4224
g1
(g7
tRp4225
g666
F1
ss(g2216
tp4226
g1
(g7
tRp4227
g2428
F1
ss(S'we'
p4228
g737
tp4229
g1
(g7
tRp4230
g1049
F1
ss(g2156
g1395
tp4231
g1
(g7
tRp4232
g711
F1
ss(g1895
g2918
tp4233
g1
(g7
tRp4234
g3357
F1
ss(g3105
g2156
tp4235
g1
(g7
tRp4236
g1395
F1
ss(g4036
tp4237
g1
(g7
tRp4238
g1807
F1
ss(g2268
g1523
tp4239
g1
(g7
tRp4240
g1524
F1
ss(g550
tp4241
g1
(g7
tRp4242
g2976
F1
ss(g1062
tp4243
g1
(g7
tRp4244
g1063
F0.5
sg1146
F0.5
ss(g1284
g2325
tp4245
g1
(g7
tRp4246
g808
F1
ss(g3459
g1283
tp4247
g1
(g7
tRp4248
S''
F1
ss(g1473
g1289
tp4249
g1
(g7
tRp4250
S'need'
p4251
F0.5
sg1377
F0.5
ss(g2274
tp4252
g1
(g7
tRp4253
g2275
F1
ss(g1294
g1163
tp4254
g1
(g7
tRp4255
g1164
F1
ss(g386
g389
tp4256
g1
(g7
tRp4257
g3483
F1
ss(g407
g410
tp4258
g1
(g7
tRp4259
g3787
F1
ss(g1552
g852
tp4260
g1
(g7
tRp4261
g2278
F1
ss(g2155
g2713
tp4262
g1
(g7
tRp4263
g2714
F1
ss(g3116
g2819
tp4264
g1
(g7
tRp4265
g1388
F1
ss(S'a'
g1196
tp4266
g1
(g7
tRp4267
S''
F1
ss(g859
tp4268
g1
(g7
tRp4269
S'I'
F0.19999999999999998
sg862
F0.19999999999999998
sg863
F0.19999999999999998
sg349
F0.19999999999999998
sg276
F0.19999999999999998
ss(g2279
g2282
tp4270
g1
(g7
tRp4271
g2891
F1
ss(g3087
g3090
tp4272
g1
(g7
tRp4273
g99
F1
ss(g2230
g1888
tp4274
g1
(g7
tRp4275
g3578
F1
ss(g1123
g1126
tp4276
g1
(g7
tRp4277
S'a'
F0.5
sS''
F0.5
ss(g550
g2976
tp4278
g1
(g7
tRp4279
g729
F1
ss(g1291
tp4280
g1
(g7
tRp4281
g3720
F1
ss(g2197
g2017
tp4282
g1
(g7
tRp4283
g1404
F1
ss(g3736
tp4284
g1
(g7
tRp4285
g3210
F1
ss(g1346
g1349
tp4286
g1
(g7
tRp4287
g2502
F1
ss(g373
g376
tp4288
g1
(g7
tRp4289
g2557
F1
ss(S'know,'
p4290
g1091
tp4291
g1
(g7
tRp4292
S''
F1
ss(g1177
g162
tp4293
g1
(g7
tRp4294
g592
F1
ss(g1583
tp4295
g1
(g7
tRp4296
g1576
F1
ss(g674
tp4297
g1
(g7
tRp4298
g675
F0.5
sg1384
F0.5
ss(g2948
g797
tp4299
g1
(g7
tRp4300
g798
F1
ss(g81
g84
tp4301
g1
(g7
tRp4302
S'the'
p4303
F1
ss(g135
g2445
tp4304
g1
(g7
tRp4305
S'a'
F1
ss(g2118
g2501
tp4306
g1
(g7
tRp4307
g3440
F1
ss(g3140
S'America'
p4308
tp4309
g1
(g7
tRp4310
S''
F1
ss(g2428
tp4311
g1
(g7
tRp4312
g294
F0.25
sg2252
F0.5
sg339
F0.25
ss(g4071
g4037
tp4313
g1
(g7
tRp4314
S'the'
p4315
F1
ss(g1682
g1685
tp4316
g1
(g7
tRp4317
S'far'
p4318
F1
ss(S'the'
g670
tp4319
g1
(g7
tRp4320
g673
F1
ss(g2707
g559
tp4321
g1
(g7
tRp4322
g560
F1
ss(g1216
tp4323
g1
(g7
tRp4324
g1219
F1
ss(g2062
g2065
tp4325
g1
(g7
tRp4326
g2782
F1
ss(g857
g1266
tp4327
g1
(g7
tRp4328
g402
F1
ss(g685
g688
tp4329
g1
(g7
tRp4330
g2886
F1
ss(g3169
tp4331
g1
(g7
tRp4332
S'give'
p4333
F0.083333333333333301
sg3544
F0.083333333333333301
sg3403
F0.083333333333333301
sg4117
F0.16666666666666666
sg3307
F0.083333333333333301
sg1459
F0.16666666666666666
sS'need'
p4334
F0.16666666666666666
sg2657
F0.083333333333333301
sg1433
F0.083333333333333301
ss(g1897
g1900
tp4335
g1
(g7
tRp4336
g889
F1
ss(g2717
g2941
tp4337
g1
(g7
tRp4338
g2944
F0.66666666666666663
sg2945
F0.33333333333333337
ss(g421
tp4339
g1
(g7
tRp4340
S'a'
F0.49999999999999994
sg1203
F0.16666666666666666
sg3005
F0.16666666666666666
sg1628
F0.16666666666666666
ss(g1524
tp4341
g1
(g7
tRp4342
g1901
F0.125
sg155
F0.125
sS'--'
p4343
F0.125
sg2491
F0.125
sg316
F0.125
sg1527
F0.125
sg3661
F0.125
sg1046
F0.125
ss(g1467
tp4344
g1
(g7
tRp4345
g858
F1
ss(g559
tp4346
g1
(g7
tRp4347
g560
F1
ss(g2922
tp4348
g1
(g7
tRp4349
g1043
F0.66666666666666663
sS'that'
p4350
F0.33333333333333337
ss(g3381
tp4351
g1
(g7
tRp4352
g2274
F0.125
sg1355
F0.125
sg2581
F0.125
sg3391
F0.125
sg2617
F0.125
sg210
F0.125
sg418
F0.125
sg1897
F0.125
ss(S'just'
g1211
tp4353
g1
(g7
tRp4354
g1214
F1
ss(g218
g3571
tp4355
g1
(g7
tRp4356
S'to'
p4357
F1
ss(g660
g664
tp4358
g1
(g7
tRp4359
g2412
F1
ss(g2839
tp4360
g1
(g7
tRp4361
S''
F0.33333333333333331
sg1883
F0.33333333333333331
sg1692
F0.33333333333333331
ss(g35
g38
tp4362
g1
(g7
tRp4363
S''
F1
ss(g59
g62
tp4364
g1
(g7
tRp4365
g1083
F1
ss(g2836
g2085
tp4366
g1
(g7
tRp4367
g2086
F1
ss(S'to'
g426
tp4368
g1
(g7
tRp4369
g644
F1
ss(g1695
g3273
tp4370
g1
(g7
tRp4371
g3274
F1
ss(g3184
g2285
tp4372
g1
(g7
tRp4373
g702
F1
ss(g732
tp4374
g1
(g7
tRp4375
g2026
F0.33333333333333337
sg733
F0.66666666666666663
ss(S'are'
g2761
tp4376
g1
(g7
tRp4377
g2764
F1
ss(g992
g995
tp4378
g1
(g7
tRp4379
g2722
F1
ss(g3285
g2159
tp4380
g1
(g7
tRp4381
g2162
F1
ss(g2026
g1338
tp4382
g1
(g7
tRp4383
g1298
F1
ss(g2017
tp4384
g1
(g7
tRp4385
g1404
F1
ss(S'to'
g3746
tp4386
g1
(g7
tRp4387
S''
F0.5
sg1692
F0.5
ss(g2823
g2826
tp4388
g1
(g7
tRp4389
g1282
F1
ss(g3264
g3871
tp4390
g1
(g7
tRp4391
g3874
F1
ss(g563
g332
tp4392
g1
(g7
tRp4393
g2039
F0.33333333333333331
sg2041
F0.33333333333333331
sg535
F0.33333333333333331
ss(g3623
g204
tp4394
g1
(g7
tRp4395
g205
F1
ss(g1715
g2484
tp4396
g1
(g7
tRp4397
S''
F1
ss(g711
tp4398
g1
(g7
tRp4399
g1945
F0.5
sg689
F0.5
ss(S'other'
p4400
g261
tp4401
g1
(g7
tRp4402
g262
F1
ss(g406
tp4403
g1
(g7
tRp4404
g407
F1
ss(g68
g71
tp4405
g1
(g7
tRp4406
g3430
F1
ss(g1483
tp4407
g1
(g7
tRp4408
g1484
F1
ss(S'will'
p4409
g3439
tp4410
g1
(g7
tRp4411
g1514
F0.5
sg1299
F0.5
ss(g1897
tp4412
g1
(g7
tRp4413
g1900
F1
ss(g448
tp4414
g1
(g7
tRp4415
g451
F1
ss(g3553
g1046
tp4416
g1
(g7
tRp4417
g393
F1
ss(g567
g311
tp4418
g1
(g7
tRp4419
g312
F1
ss(g2159
g2162
tp4420
g1
(g7
tRp4421
g2753
F1
ss(g1236
tp4422
g1
(g7
tRp4423
g1239
F1
ss(g1569
g253
tp4424
g1
(g7
tRp4425
g254
F1
ss(g3108
tp4426
g1
(g7
tRp4427
g956
F0.5
sg3745
F0.5
ss(g1901
g1904
tp4428
g1
(g7
tRp4429
S''
F0.19999999999999998
sS'the'
p4430
F0.39999999999999997
sg12
F0.19999999999999998
sg16
F0.19999999999999998
ss(S'And'
g4063
tp4431
g1
(g7
tRp4432
g3778
F0.5
sg910
F0.5
ss(g3753
g3756
tp4433
g1
(g7
tRp4434
g2554
F1
ss(g2533
tp4435
g1
(g7
tRp4436
g1159
F1
ss(g967
g2103
tp4437
g1
(g7
tRp4438
g838
F1
ss(g601
tp4439
g1
(g7
tRp4440
g602
F1
ss(g2255
g805
tp4441
g1
(g7
tRp4442
g349
F1
ss(g1887
g1896
tp4443
g1
(g7
tRp4444
g1897
F1
ss(g2501
tp4445
g1
(g7
tRp4446
g293
F0.16666666666666666
sg3440
F0.16666666666666666
sg4200
F0.16666666666666666
sg1434
F0.16666666666666666
sg3675
F0.16666666666666666
sg2661
F0.16666666666666666
ss(g1448
g1451
tp4447
g1
(g7
tRp4448
g2316
F1
ss(g3005
g31
tp4449
g1
(g7
tRp4450
g32
F1
ss(g3443
g1919
tp4451
g1
(g7
tRp4452
S''
F1
ss(S'a'
g2363
tp4453
g1
(g7
tRp4454
g501
F1
ss(g389
tp4455
g1
(g7
tRp4456
g3483
F1
ss(S'a'
g2360
tp4457
g1
(g7
tRp4458
g63
F1
ss(S'I'
g3272
tp4459
g1
(g7
tRp4460
g4074
F1
ss(g3978
tp4461
g1
(g7
tRp4462
S''
F1
ss(g579
g1765
tp4463
g1
(g7
tRp4464
g1287
F1
ss(g1771
g1774
tp4465
g1
(g7
tRp4466
g1968
F1
ss(g812
g1248
tp4467
g1
(g7
tRp4468
g334
F1
ss(g430
tp4469
g1
(g7
tRp4470
g3887
F1
ss(g1425
g1428
tp4471
g1
(g7
tRp4472
g1609
F1
ss(g2674
g1055
tp4473
g1
(g7
tRp4474
g1056
F1
ss(g868
g967
tp4475
g1
(g7
tRp4476
g2103
F1
ss(g1281
g3894
tp4477
g1
(g7
tRp4478
g3858
F1
ss(g1273
g1276
tp4479
g1
(g7
tRp4480
g2111
F1
ss(S'And'
g114
tp4481
g1
(g7
tRp4482
g117
F1
ss(g195
tp4483
g1
(g7
tRp4484
S'a'
F1
ss(g3219
g4
tp4485
g1
(g7
tRp4486
g5
F1
ss(g1801
tp4487
g1
(g7
tRp4488
g1122
F0.025000000000000001
sg1789
F0.075000000000000011
sg289
F0.025000000000000001
sg80
F0.025000000000000001
sg220
F0.050000000000000003
sg736
F0.025000000000000001
sg2594
F0.025000000000000001
sg1888
F0.025000000000000001
sg3075
F0.025000000000000001
sg737
F0.025000000000000001
sg2216
F0.025000000000000001
sg2002
F0.025000000000000001
sg2013
F0.075000000000000011
sg218
F0.025000000000000001
sg2501
F0.025000000000000001
sg219
F0.25000000000000006
sg1720
F0.15000000000000002
sg1887
F0.025000000000000001
sg245
F0.025000000000000001
sg2269
F0.025000000000000001
sg1377
F0.025000000000000001
ss(g3013
g3016
tp4489
g1
(g7
tRp4490
S'of'
p4491
F1
ss(S'a'
g2353
tp4492
g1
(g7
tRp4493
S''
F1
ss(g1944
g1963
tp4494
g1
(g7
tRp4495
S'a'
F0.5
sg3005
F0.5
ss(g3357
S'a'
tp4496
g1
(g7
tRp4497
g760
F1
ss(g620
tp4498
g1
(g7
tRp4499
g2928
F1
ss(g3272
g4074
tp4500
g1
(g7
tRp4501
S'the'
p4502
F1
ss(g1182
tp4503
g1
(g7
tRp4504
S''
F1
ss(S'more'
g1770
tp4505
g1
(g7
tRp4506
S''
F1
ss(g1813
tp4507
g1
(g7
tRp4508
S'a'
F1
ss(g2029
tp4509
g1
(g7
tRp4510
g2032
F1
ss(g1940
tp4511
g1
(g7
tRp4512
g648
F1
ss(g151
tp4513
g1
(g7
tRp4514
g154
F1
ss(g1734
tp4515
g1
(g7
tRp4516
g1735
F1
ss(g2363
g501
tp4517
g1
(g7
tRp4518
g504
F0.5
sg505
F0.5
ss(g644
g647
tp4519
g1
(g7
tRp4520
g977
F1
ss(g2965
g2968
tp4521
g1
(g7
tRp4522
g4133
F1
ss(g1284
tp4523
g1
(g7
tRp4524
S'to'
p4525
F0.5
sg2325
F0.5
ss(g243
g1555
tp4526
g1
(g7
tRp4527
g1558
F1
ss(g3080
g3084
tp4528
g1
(g7
tRp4529
g1130
F1
ss(g370
g1294
tp4530
g1
(g7
tRp4531
g1163
F1
ss(g3666
g3669
tp4532
g1
(g7
tRp4533
S'the'
p4534
F1
ss(g1827
g3117
tp4535
g1
(g7
tRp4536
g1614
F1
ss(S'no'
p4537
g1590
tp4538
g1
(g7
tRp4539
g1591
F1
ss(g2151
tp4540
g1
(g7
tRp4541
g2152
F1
ss(g2750
tp4542
g1
(g7
tRp4543
g853
F1
ss(g2617
tp4544
g1
(g7
tRp4545
g555
F1
ss(g922
tp4546
g1
(g7
tRp4547
g925
F1
ss(g767
g51
tp4548
g1
(g7
tRp4549
g3560
F0.5
sg3746
F0.5
ss(g596
g185
tp4550
g1
(g7
tRp4551
g1945
F1
ss(g2585
tp4552
g1
(g7
tRp4553
g719
F1
ss(g2079
g3794
tp4554
g1
(g7
tRp4555
g3391
F1
ss(g3478
g2768
tp4556
g1
(g7
tRp4557
g2769
F1
ss(g1756
g1759
tp4558
g1
(g7
tRp4559
g2777
F1
ss(g137
tp4560
g1
(g7
tRp4561
g2434
F0.19999999999999998
sg1308
F0.19999999999999998
sg140
F0.59999999999999998
ss(g452
g455
tp4562
g1
(g7
tRp4563
g1412
F1
ss(g3912
g2594
tp4564
g1
(g7
tRp4565
g4219
F1
ss(g3188
g2193
tp4566
g1
(g7
tRp4567
g2194
F1
ss(g3903
tp4568
g1
(g7
tRp4569
g1074
F0.5
sg897
F0.5
ss(g1216
g1219
tp4570
g1
(g7
tRp4571
g1111
F1
ss(S'But'
S'I'
tp4572
g1
(g7
tRp4573
g492
F1
ss(g688
g2886
tp4574
g1
(g7
tRp4575
g1551
F1
ss(g4035
g811
tp4576
g1
(g7
tRp4577
S''
F1
ss(g335
g102
tp4578
g1
(g7
tRp4579
g1099
F1
ss(g1258
tp4580
g1
(g7
tRp4581
g1953
F0.14285714285714288
sg1954
F0.14285714285714288
sg1767
F0.28571428571428575
sg284
F0.14285714285714288
sg1069
F0.28571428571428575
ss(g788
tp4582
g1
(g7
tRp4583
g444
F1
ss(g1639
S'I'
tp4584
g1
(g7
tRp4585
g2677
F1
ss(S'a'
g1149
tp4586
g1
(g7
tRp4587
g1152
F0.5
sg1154
F0.5
ss(g301
tp4588
g1
(g7
tRp4589
S''
F1
ss(g4343
S'I'
tp4590
g1
(g7
tRp4591
g1760
F1
ss(g1513
g2581
tp4592
g1
(g7
tRp4593
g1653
F1
ss(g715
g2842
tp4594
g1
(g7
tRp4595
g2843
F1
ss(g2082
tp4596
g1
(g7
tRp4597
g942
F1
ss(g1206
tp4598
g1
(g7
tRp4599
S''
F1
ss(g3720
g1026
tp4600
g1
(g7
tRp4601
g564
F1
ss(g3861
g3864
tp4602
g1
(g7
tRp4603
g922
F0.5
sg823
F0.5
ss(g2903
g1922
tp4604
g1
(g7
tRp4605
g1923
F1
ss(g1282
g3261
tp4606
g1
(g7
tRp4607
g3264
F1
ss(g1860
g2097
tp4608
g1
(g7
tRp4609
g3207
F1
ss(g1839
tp4610
g1
(g7
tRp4611
g1215
F1
ss(g1514
S'a'
tp4612
g1
(g7
tRp4613
g2358
F1
ss(g973
g976
tp4614
g1
(g7
tRp4615
g3608
F0.5
sg2146
F0.5
ss(g316
g319
tp4616
g1
(g7
tRp4617
g2801
F1
ss(g20
g1291
tp4618
g1
(g7
tRp4619
g3720
F1
ss(g2485
tp4620
g1
(g7
tRp4621
g2488
F1
ss(g42
tp4622
g1
(g7
tRp4623
g121
F1
ss(g780
tp4624
g1
(g7
tRp4625
S''
F1
ss(g3764
g358
tp4626
g1
(g7
tRp4627
g150
F1
ss(g289
tp4628
g1
(g7
tRp4629
S'to'
p4630
F1
ss(S'a'
g2355
tp4631
g1
(g7
tRp4632
g1470
F1
ss(S'the'
p4633
g793
tp4634
g1
(g7
tRp4635
g796
F1
ss(g879
g730
tp4636
g1
(g7
tRp4637
g1876
F1
ss(g2357
g3008
tp4638
g1
(g7
tRp4639
g515
F1
ss(g587
tp4640
g1
(g7
tRp4641
g588
F1
ss(g2188
g2191
tp4642
g1
(g7
tRp4643
g1820
F1
ss(S'think'
p4644
g918
tp4645
g1
(g7
tRp4646
g329
F1
ss(g2698
tp4647
g1
(g7
tRp4648
S'a'
F0.20000000000000001
sg1359
F0.10000000000000001
sg2905
F0.10000000000000001
sS'to'
p4649
F0.10000000000000001
sg3462
F0.10000000000000001
sg2125
F0.10000000000000001
sg1483
F0.10000000000000001
sg973
F0.20000000000000001
ss(g271
tp4650
g1
(g7
tRp4651
S''
F0.125
sg274
F0.125
sg2401
F0.125
sg1272
F0.375
sg2279
F0.125
sg2420
F0.125
ss(g2437
g2330
tp4652
g1
(g7
tRp4653
g2331
F1
ss(g3787
g3224
tp4654
g1
(g7
tRp4655
g841
F1
ss(g1146
g931
tp4656
g1
(g7
tRp4657
g72
F1
ss(g2136
g520
tp4658
g1
(g7
tRp4659
g521
F1
ss(g2003
g745
tp4660
g1
(g7
tRp4661
g746
F1
ss(g976
g2146
tp4662
g1
(g7
tRp4663
S'I'
F1
ss(g1285
g2794
tp4664
g1
(g7
tRp4665
S''
F1
ss(g366
g3682
tp4666
g1
(g7
tRp4667
g3891
F1
ss(g1508
tp4668
g1
(g7
tRp4669
g1740
F1
ss(g894
g1677
tp4670
g1
(g7
tRp4671
g1017
F1
ss(g1110
g1582
tp4672
g1
(g7
tRp4673
g1583
F1
ss(g3022
g2860
tp4674
g1
(g7
tRp4675
g2894
F0.5
sg1828
F0.5
ss(g3682
tp4676
g1
(g7
tRp4677
g3891
F1
ss(g917
tp4678
g1
(g7
tRp4679
g2965
F1
ss(g410
g3787
tp4680
g1
(g7
tRp4681
g3224
F1
ss(g1520
tp4682
g1
(g7
tRp4683
S'I'
F1
ss(g597
tp4684
g1
(g7
tRp4685
g598
F1
ss(g2773
tp4686
g1
(g7
tRp4687
g2776
F1
ss(g141
tp4688
g1
(g7
tRp4689
g142
F1
ss(g1905
g1908
tp4690
g1
(g7
tRp4691
S'have'
p4692
F1
ss(g1954
g2901
tp4693
g1
(g7
tRp4694
S''
F1
ss(g1748
g1751
tp4695
g1
(g7
tRp4696
g3736
F1
ss(g3399
tp4697
g1
(g7
tRp4698
g1636
F0.5
sg3400
F0.5
ss(g1384
tp4699
g1
(g7
tRp4700
g1387
F1
ss(g2355
tp4701
g1
(g7
tRp4702
g1470
F1
ss(g3894
g3858
tp4703
g1
(g7
tRp4704
S''
F1
ss(g1359
tp4705
g1
(g7
tRp4706
g1360
F1
ss(g1240
tp4707
g1
(g7
tRp4708
S'a'
F0.21428571428571433
sg2066
F0.071428571428571438
sg3017
F0.071428571428571438
sg3903
F0.071428571428571438
sg758
F0.14285714285714288
sg1551
F0.071428571428571438
sg784
F0.071428571428571438
sg3871
F0.071428571428571438
sg1540
F0.071428571428571438
sg759
F0.071428571428571438
sg2713
F0.071428571428571438
ss(g2013
g2016
tp4709
g1
(g7
tRp4710
g2505
F1
ss(g3641
g814
tp4711
g1
(g7
tRp4712
g1647
F0.5
sg2836
F0.5
ss(g705
g2477
tp4713
g1
(g7
tRp4714
S'I'
F1
ss(g952
g3978
tp4715
g1
(g7
tRp4716
S''
F1
ss(g1318
g1321
tp4717
g1
(g7
tRp4718
g338
F1
ss(g2364
tp4719
g1
(g7
tRp4720
g3399
F1
ss(g378
S'a'
tp4721
g1
(g7
tRp4722
g2355
F1
ss(g2664
g2667
tp4723
g1
(g7
tRp4724
g2731
F1
ss(g4037
g4315
tp4725
g1
(g7
tRp4726
g3944
F1
ss(g2843
tp4727
g1
(g7
tRp4728
g647
F0.035714285714285719
sg967
F0.035714285714285719
sg1639
F0.035714285714285719
sg3022
F0.035714285714285719
sg3501
F0.035714285714285719
sg1193
F0.071428571428571425
sg507
F0.035714285714285719
sg2585
F0.035714285714285719
sg4308
F0.035714285714285719
sg373
F0.035714285714285719
sg968
F0.035714285714285719
sg1980
F0.035714285714285719
sg1918
F0.10714285714285715
sg2941
F0.10714285714285715
sS'a'
F0.035714285714285719
sg279
F0.035714285714285719
sg2929
F0.035714285714285719
sg2128
F0.035714285714285719
sg2653
F0.10714285714285715
sg1055
F0.035714285714285719
sg2451
F0.035714285714285719
ss(g1797
tp4729
g1
(g7
tRp4730
g1798
F1
ss(S'justice'
g4525
tp4731
g1
(g7
tRp4732
g4035
F1
ss(S'as'
g758
tp4733
g1
(g7
tRp4734
S'as'
p4735
F1
ss(g2016
tp4736
g1
(g7
tRp4737
S'a'
F0.090909090909090925
sg1033
F0.090909090909090925
sg230
F0.090909090909090925
sg1429
F0.090909090909090925
sg249
F0.090909090909090925
sg3117
F0.090909090909090925
sg1821
F0.18181818181818185
sg2505
F0.090909090909090925
sg465
F0.090909090909090925
sg778
F0.090909090909090925
ss(S'a'
g2358
tp4738
g1
(g7
tRp4739
g2485
F1
ss(g1798
tp4740
g1
(g7
tRp4741
g1801
F1
ss(S"that's"
g910
tp4742
g1
(g7
tRp4743
S'we'
p4744
F1
ss(g1563
g2823
tp4745
g1
(g7
tRp4746
g2826
F1
ss(g3400
g1206
tp4747
g1
(g7
tRp4748
S''
F1
ss(g1059
tp4749
g1
(g7
tRp4750
S'a'
F0.15384615384615383
sS''
F0.076923076923076913
sS'that'
p4751
F0.076923076923076913
sg1976
F0.076923076923076913
sg300
F0.15384615384615383
sg2433
F0.076923076923076913
sg587
F0.076923076923076913
sg1488
F0.23076923076923078
sg3027
F0.076923076923076913
ss(g1606
g1755
tp4752
g1
(g7
tRp4753
g1756
F1
ss(g3814
g2704
tp4754
g1
(g7
tRp4755
g266
F1
ss(g2533
g1159
tp4756
g1
(g7
tRp4757
g1162
F1
ss(g3269
tp4758
g1
(g7
tRp4759
g1869
F1
ss(g3306
g1856
tp4760
g1
(g7
tRp4761
S''
F1
ss(g289
g4630
tp4762
g1
(g7
tRp4763
g4036
F1
ss(S'pay'
g1133
tp4764
g1
(g7
tRp4765
g2707
F1
ss(g969
tp4766
g1
(g7
tRp4767
g970
F1
ss(g95
tp4768
g1
(g7
tRp4769
g98
F1
ss(g656
g659
tp4770
g1
(g7
tRp4771
g846
F1
ss(g692
g1288
tp4772
g1
(g7
tRp4773
g2723
F0.5
sg2136
F0.5
ss(g93
S'a'
tp4774
g1
(g7
tRp4775
g1391
F1
ss(g4735
g3017
tp4776
g1
(g7
tRp4777
g3018
F1
ss(g4630
g4036
tp4778
g1
(g7
tRp4779
g1807
F1
ss(g2698
g2905
tp4780
g1
(g7
tRp4781
g1240
F1
ss(g826
g1284
tp4782
g1
(g7
tRp4783
g4525
F0.5
sg2325
F0.5
ss(g1621
g1624
tp4784
g1
(g7
tRp4785
S''
F1
ss(g515
tp4786
g1
(g7
tRp4787
g516
F1
ss(g1543
tp4788
g1
(g7
tRp4789
g1546
F1
ss(g2201
g1247
tp4790
g1
(g7
tRp4791
g2701
F1
ss(S'a'
g191
tp4792
g1
(g7
tRp4793
g192
F1
ss(g2182
g1594
tp4794
g1
(g7
tRp4795
g587
F1
ss(g1543
g1546
tp4796
g1
(g7
tRp4797
g460
F1
ss(g54
g58
tp4798
g1
(g7
tRp4799
g1138
F0.5
sg3419
F0.5
ss(g4315
g3944
tp4800
g1
(g7
tRp4801
g2979
F1
ss(g1288
tp4802
g1
(g7
tRp4803
g2723
F0.33333333333333331
sg85
F0.33333333333333331
sg2136
F0.33333333333333331
ss(g2891
g2522
tp4804
g1
(g7
tRp4805
g1330
F1
ss(g752
tp4806
g1
(g7
tRp4807
g584
F1
ss(g2557
g2562
tp4808
g1
(g7
tRp4809
S''
F1
ss(g3501
g4071
tp4810
g1
(g7
tRp4811
g4037
F1
ss(g2163
g2166
tp4812
g1
(g7
tRp4813
g869
F1
ss(g2900
tp4814
g1
(g7
tRp4815
S'have'
p4816
F1
ss(S'The'
S'people'
p4817
tp4818
g1
(g7
tRp4819
S'who'
p4820
F1
ss(g2885
tp4821
g1
(g7
tRp4822
g3924
F1
ss(g620
g2928
tp4823
g1
(g7
tRp4824
g2929
F1
ss(g1816
g1819
tp4825
g1
(g7
tRp4826
g1000
F1
ss(g2269
tp4827
g1
(g7
tRp4828
g2270
F1
ss(g3061
g3064
tp4829
g1
(g7
tRp4830
g2336
F1
ss(g2368
tp4831
g1
(g7
tRp4832
S''
F1
ss(g3871
g3874
tp4833
g1
(g7
tRp4834
g1350
F1
ss(g9
g15
tp4835
g1
(g7
tRp4836
g2582
F0.25
sS'National'
p4837
F0.25
sg2668
F0.25
sg1564
F0.25
ss(g2462
tp4838
g1
(g7
tRp4839
g17
F1
ss(g3175
S'you'
p4840
tp4841
g1
(g7
tRp4842
g4290
F1
ss(g943
g946
tp4843
g1
(g7
tRp4844
S''
F1
ss(g2900
g4816
tp4845
g1
(g7
tRp4846
g3487
F1
ss(g876
g992
tp4847
g1
(g7
tRp4848
g995
F1
ss(g1995
tp4849
g1
(g7
tRp4850
g1998
F0.5
sg1999
F0.5
ss(g1420
g1954
tp4851
g1
(g7
tRp4852
g2901
F1
ss(g1384
g1387
tp4853
g1
(g7
tRp4854
g3158
F1
ss(g201
g49
tp4855
g1
(g7
tRp4856
S'a'
F1
ss(g226
g229
tp4857
g1
(g7
tRp4858
g528
F1
ss(g1653
tp4859
g1
(g7
tRp4860
g1654
F1
ss(g3179
tp4861
g1
(g7
tRp4862
g413
F0.5
sg4817
F0.5
ss(g1400
tp4863
g1
(g7
tRp4864
g2234
F1
ss(g220
g767
tp4865
g1
(g7
tRp4866
g51
F1
ss(g511
g514
tp4867
g1
(g7
tRp4868
g663
F1
ss(g2172
g579
tp4869
g1
(g7
tRp4870
g1765
F1
ss(g405
g1307
tp4871
g1
(g7
tRp4872
g2433
F1
ss(g2934
g1293
tp4873
g1
(g7
tRp4874
g337
F0.5
sS'have'
p4875
F0.5
ss(g3178
g2425
tp4876
g1
(g7
tRp4877
g1797
F1
ss(S'I'
g1990
tp4878
g1
(g7
tRp4879
S'a'
F1
ss(S'What'
g4171
tp4880
g1
(g7
tRp4881
g694
F1
ss(g221
g224
tp4882
g1
(g7
tRp4883
g2128
F1
ss(g3250
g406
tp4884
g1
(g7
tRp4885
g407
F1
ss(g1555
g1558
tp4886
g1
(g7
tRp4887
g370
F1
ss(g636
tp4888
g1
(g7
tRp4889
g639
F0.5
sS''
F0.5
ss(g2726
S'a'
tp4890
g1
(g7
tRp4891
g1318
F1
ss(g429
g534
tp4892
g1
(g7
tRp4893
g3470
F1
ss(g3874
g1350
tp4894
g1
(g7
tRp4895
g1351
F1
ss(g749
S'a'
tp4896
g1
(g7
tRp4897
g390
F1
ss(g1848
g660
tp4898
g1
(g7
tRp4899
g664
F1
ss(g851
g894
tp4900
g1
(g7
tRp4901
g1677
F1
ss(g1989
g768
tp4902
g1
(g7
tRp4903
g2653
F1
ss(g980
tp4904
g1
(g7
tRp4905
g275
F1
ss(g3506
g1421
tp4906
g1
(g7
tRp4907
g1422
F1
ss(g2285
tp4908
g1
(g7
tRp4909
g702
F1
ss(S'would'
p4910
g155
tp4911
g1
(g7
tRp4912
g156
F1
ss(S'a'
g377
tp4913
g1
(g7
tRp4914
g378
F1
ss(g2561
g850
tp4915
g1
(g7
tRp4916
S''
F1
ss(g2139
g2142
tp4917
g1
(g7
tRp4918
S'know,'
p4919
F1
ss(g1366
g43
tp4920
g1
(g7
tRp4921
g4649
F0.5
sg2125
F0.5
ss(g3478
tp4922
g1
(g7
tRp4923
g2768
F1
ss(g578
tp4924
g1
(g7
tRp4925
S''
F0.33333333333333331
sg960
F0.33333333333333331
sg3249
F0.33333333333333331
ss(S'I'
g4910
tp4926
g1
(g7
tRp4927
g1901
F0.16666666666666666
sg155
F0.16666666666666666
sg4343
F0.16666666666666666
sg316
F0.16666666666666666
sg3661
F0.16666666666666666
sg1046
F0.16666666666666666
ss(g2468
S'I'
tp4928
g1
(g7
tRp4929
g2029
F1
ss(g2324
g601
tp4930
g1
(g7
tRp4931
g602
F1
ss(g1225
g1228
tp4932
g1
(g7
tRp4933
g3340
F1
ss(g1392
tp4934
g1
(g7
tRp4935
g353
F1
ss(g1910
tp4936
g1
(g7
tRp4937
g847
F0.5
sg1569
F0.5
ss(g2993
g2996
tp4938
g1
(g7
tRp4939
g3095
F1
ss(g745
tp4940
g1
(g7
tRp4941
g746
F1
ss(g1756
tp4942
g1
(g7
tRp4943
g1759
F1
ss(g1741
g1744
tp4944
g1
(g7
tRp4945
S''
F1
ss(g960
g625
tp4946
g1
(g7
tRp4947
g626
F1
ss(g3387
g3390
tp4948
g1
(g7
tRp4949
S''
F1
ss(g699
g3693
tp4950
g1
(g7
tRp4951
S''
F1
ss(g89
g1039
tp4952
g1
(g7
tRp4953
g1040
F1
ss(g564
tp4954
g1
(g7
tRp4955
S'a'
F0.11111111111111113
sg2761
F0.11111111111111113
sg350
F0.11111111111111113
sg1378
F0.11111111111111113
sg2548
F0.11111111111111113
sg3310
F0.11111111111111113
sg636
F0.11111111111111113
sg1273
F0.11111111111111113
sg270
F0.11111111111111113
ss(S'And'
g4061
tp4956
g1
(g7
tRp4957
g2750
F1
ss(S'a'
g2357
tp4958
g1
(g7
tRp4959
g3008
F1
ss(g3608
tp4960
g1
(g7
tRp4961
S''
F0.75
sg3018
F0.25
ss(g863
g2216
tp4962
g1
(g7
tRp4963
g2428
F1
ss(g3137
g3140
tp4964
g1
(g7
tRp4965
g3331
F0.5
sg4308
F0.5
ss(g1977
g1980
tp4966
g1
(g7
tRp4967
g1981
F1
ss(g1548
S'a'
tp4968
g1
(g7
tRp4969
g2359
F1
ss(g2365
g2369
tp4970
g1
(g7
tRp4971
g3764
F1
ss(g813
tp4972
g1
(g7
tRp4973
g1105
F1
ss(g2358
tp4974
g1
(g7
tRp4975
g2485
F1
ss(g3861
tp4976
g1
(g7
tRp4977
g2704
F0.25
sg201
F0.25
sg3864
F0.5
ss(g591
g3341
tp4978
g1
(g7
tRp4979
S''
F1
ss(S'I'
g546
tp4980
g1
(g7
tRp4981
g547
F1
ss(g1176
tp4982
g1
(g7
tRp4983
g1177
F1
ss(g2029
g2032
tp4984
g1
(g7
tRp4985
g3075
F1
ss(g922
g925
tp4986
g1
(g7
tRp4987
g1777
F1
ss(g905
g909
tp4988
g1
(g7
tRp4989
g1572
F0.33333333333333337
sg159
F0.66666666666666663
ss(g2310
g3921
tp4990
g1
(g7
tRp4991
g3087
F1
ss(g4525
g4035
tp4992
g1
(g7
tRp4993
g2835
F0.5
sg811
F0.5
ss(g852
g2278
tp4994
g1
(g7
tRp4995
g2279
F1
ss(g3380
g3706
tp4996
g1
(g7
tRp4997
g3709
F1
ss(g110
g1286
tp4998
g1
(g7
tRp4999
g1496
F1
ss(g996
g999
tp5000
g1
(g7
tRp5001
g1106
F1
ss(S'a'
g1771
tp5002
g1
(g7
tRp5003
g1774
F1
ss(g2437
tp5004
g1
(g7
tRp5005
g2330
F1
ss(g271
g274
tp5006
g1
(g7
tRp5007
g1857
F1
ss(S'know,'
S'I'
tp5008
g1
(g7
tRp5009
g3753
F1
ss(S'to'
p5010
g127
tp5011
g1
(g7
tRp5012
g1438
F1
ss(g2773
g2776
tp5013
g1
(g7
tRp5014
S'we'
p5015
F1
ss(g492
g200
tp5016
g1
(g7
tRp5017
g201
F1
ss(g3008
g515
tp5018
g1
(g7
tRp5019
g516
F1
ss(g1314
g1317
tp5020
g1
(g7
tRp5021
g710
F1
ss(g2152
tp5022
g1
(g7
tRp5023
g2155
F1
ss(g3224
g841
tp5024
g1
(g7
tRp5025
g3935
F1
ss(g3381
g1355
tp5026
g1
(g7
tRp5027
g1356
F1
ss(g1915
g1193
tp5028
g1
(g7
tRp5029
S'a'
F0.5
sg3117
F0.5
ss(S'But'
g3504
tp5030
g1
(g7
tRp5031
g3775
F1
ss(S'That'
g929
tp5032
g1
(g7
tRp5033
g1123
F0.5
sg738
F0.5
ss(S'I'
g1989
tp5034
g1
(g7
tRp5035
g768
F1
ss(g1972
g3723
tp5036
g1
(g7
tRp5037
g3537
F1
ss(g4037
tp5038
g1
(g7
tRp5039
g4315
F1
ss(g500
g3526
tp5040
g1
(g7
tRp5041
S''
F1
ss(g541
tp5042
g1
(g7
tRp5043
g542
F1
ss(g716
g2394
tp5044
g1
(g7
tRp5045
g2395
F1
ss(g1290
S'America'
p5046
tp5047
g1
(g7
tRp5048
g94
F1
ss(g3181
tp5049
g1
(g7
tRp5050
g3373
F1
ss(g1100
tp5051
g1
(g7
tRp5052
S''
F1
ss(g21
g1581
tp5053
g1
(g7
tRp5054
g2264
F1
ss(g1995
g1998
tp5055
g1
(g7
tRp5056
S'a'
F1
ss(S'a'
g2362
tp5057
g1
(g7
tRp5058
g2075
F1
ss(g3921
tp5059
g1
(g7
tRp5060
g3087
F1
ss(g1873
g456
tp5061
g1
(g7
tRp5062
g457
F1
ss(g702
g715
tp5063
g1
(g7
tRp5064
g2842
F1
ss(g2522
tp5065
g1
(g7
tRp5066
g1330
F0.5
sg2227
F0.5
ss(g64
tp5067
g1
(g7
tRp5068
S''
F0.5
sg3601
F0.5
ss(g1059
S'a'
tp5069
g1
(g7
tRp5070
g191
F0.5
sg2361
F0.5
ss(g828
g831
tp5071
g1
(g7
tRp5072
g2368
F1
ss(g3171
g3506
tp5073
g1
(g7
tRp5074
g1421
F1
ss(g1066
g2925
tp5075
g1
(g7
tRp5076
g4200
F1
ss(g3167
tp5077
g1
(g7
tRp5078
S'a'
F0.33333333333333331
sS'going'
p5079
F0.33333333333333331
sg2750
F0.33333333333333331
ss(S'But'
g1094
tp5080
g1
(g7
tRp5081
g1095
F1
ss(g163
g904
tp5082
g1
(g7
tRp5083
g1712
F1
ss(g1572
g1575
tp5084
g1
(g7
tRp5085
g541
F0.19999999999999998
sg1865
F0.19999999999999998
sg2903
F0.19999999999999998
sg2900
F0.19999999999999998
sg2902
F0.19999999999999998
ss(S'I'
g1474
tp5086
g1
(g7
tRp5087
g1475
F1
ss(S'a'
g2082
tp5088
g1
(g7
tRp5089
g942
F1
ss(S'thing'
g1016
tp5090
g1
(g7
tRp5091
g2811
F1
ss(g1794
tp5092
g1
(g7
tRp5093
g815
F1
ss(g2394
tp5094
g1
(g7
tRp5095
g2395
F1
ss(g2661
g2345
tp5096
g1
(g7
tRp5097
g47
F1
ss(g3456
tp5098
g1
(g7
tRp5099
g3459
F1
ss(g196
g199
tp5100
g1
(g7
tRp5101
g813
F1
ss(g1368
tp5102
g1
(g7
tRp5103
g3306
F0.016129032258064523
sg2182
F0.016129032258064523
sg267
F0.016129032258064523
sg1342
F0.032258064516129045
sg2954
F0.016129032258064523
sg2465
F0.016129032258064523
sg1079
F0.016129032258064523
sg1100
F0.016129032258064523
sg2582
F0.016129032258064523
sg2382
F0.016129032258064523
sg2894
F0.016129032258064523
sg1919
F0.016129032258064523
sg2836
F0.016129032258064523
sg1176
F0.016129032258064523
sg1371
F0.016129032258064523
sg464
F0.016129032258064523
sg670
F0.016129032258064523
sg367
F0.016129032258064523
sg1670
F0.016129032258064523
sg3105
F0.080645161290322606
sg1564
F0.032258064516129045
sg3764
F0.032258064516129045
sg4
F0.016129032258064523
sg159
F0.032258064516129045
sg2100
F0.016129032258064523
sg1107
F0.016129032258064523
sg904
F0.016129032258064523
sg258
F0.016129032258064523
sg2644
F0.016129032258064523
sg1428
F0.016129032258064523
sg793
F0.016129032258064523
sg3921
F0.016129032258064523
sg3944
F0.016129032258064523
sg1992
F0.016129032258064523
sg1647
F0.016129032258064523
sg988
F0.016129032258064523
sg1004
F0.016129032258064523
sg1582
F0.016129032258064523
sg1572
F0.016129032258064523
sg996
F0.016129032258064523
sg1011
F0.032258064516129045
sg2804
F0.016129032258064523
sg468
F0.032258064516129045
sg1491
F0.016129032258064523
sg873
F0.032258064516129045
sg2065
F0.016129032258064523
sg3706
F0.016129032258064523
sg570
F0.016129032258064523
sg884
F0.016129032258064523
sg2668
F0.016129032258064523
sg660
F0.016129032258064523
ss(g1654
g54
tp5104
g1
(g7
tRp5105
g58
F1
ss(g1164
g280
tp5106
g1
(g7
tRp5107
S''
F1
ss(S'I'
tp5108
g1
(g7
tRp5109
g492
F0.026315789473684209
sg1474
F0.026315789473684209
sg1872
F0.026315789473684209
sg3272
F0.026315789473684209
sg4910
F0.15789473684210523
sg39
F0.078947368421052613
sg1813
F0.026315789473684209
sg1989
F0.026315789473684209
sg525
F0.078947368421052613
sg2677
F0.026315789473684209
sg546
F0.026315789473684209
sg2948
F0.026315789473684209
sg1990
F0.026315789473684209
sg3753
F0.026315789473684209
sg1409
F0.026315789473684209
sg3861
F0.052631578947368404
sg2365
F0.052631578947368404
sg912
F0.21052631578947362
sg2029
F0.026315789473684209
sg2637
F0.026315789473684209
ss(g472
tp5110
g1
(g7
tRp5111
g609
F0.25
sg1335
F0.25
sg1696
F0.5
ss(g2644
tp5112
g1
(g7
tRp5113
g2919
F1
ss(g1074
tp5114
g1
(g7
tRp5115
g1077
F1
ss(g3430
tp5116
g1
(g7
tRp5117
S''
F1
ss(g1211
g1214
tp5118
g1
(g7
tRp5119
S'I'
F1
ss(g2488
g709
tp5120
g1
(g7
tRp5121
g1346
F1
ss(g680
g2686
tp5122
g1
(g7
tRp5123
S'a'
F1
ss(S'And'
g1991
tp5124
g1
(g7
tRp5125
g1992
F1
ss(g156
tp5126
g1
(g7
tRp5127
S'a'
F0.28571428571428575
sS''
F0.14285714285714288
sg3470
F0.14285714285714288
sg521
F0.14285714285714288
sg1820
F0.14285714285714288
sg1624
F0.14285714285714288
ss(g838
g597
tp5128
g1
(g7
tRp5129
g598
F1
ss(g1290
tp5130
g1
(g7
tRp5131
g5046
F1
ss(g2818
g187
tp5132
g1
(g7
tRp5133
g190
F1
ss(g149
g289
tp5134
g1
(g7
tRp5135
g4630
F1
ss(S'of'
p5136
g2900
tp5137
g1
(g7
tRp5138
g4816
F1
ss(g2355
g1470
tp5139
g1
(g7
tRp5140
g1473
F1
ss(g1159
g1162
tp5141
g1
(g7
tRp5142
g1602
F1
ss(g274
tp5143
g1
(g7
tRp5144
g1262
F0.11111111111111112
sg797
F0.11111111111111112
sg2502
F0.11111111111111112
sg1857
F0.44444444444444448
sg2472
F0.11111111111111112
sg3116
F0.11111111111111112
ss(g172
g175
tp5145
g1
(g7
tRp5146
S'a'
F0.5
sg1741
F0.5
ss(g1126
S'a'
tp5147
g1
(g7
tRp5148
g1766
F1
ss(g3180
tp5149
g1
(g7
tRp5150
S''
F1
ss(g214
g219
tp5151
g1
(g7
tRp5152
S'a'
F0.20000000000000001
sg1134
F0.10000000000000001
sg3159
F0.10000000000000001
sg1534
F0.10000000000000001
sg422
F0.29999999999999999
sg4400
F0.10000000000000001
sS'the'
p5153
F0.10000000000000001
ss(g488
tp5154
g1
(g7
tRp5155
g491
F1
ss(g1225
tp5156
g1
(g7
tRp5157
S'a'
F0.25
sg2533
F0.25
sg3386
F0.25
sg1228
F0.25
ss(g1609
g3609
tp5158
g1
(g7
tRp5159
g2438
F1
ss(g739
g385
tp5160
g1
(g7
tRp5161
g386
F0.5
sg1621
F0.5
ss(g210
g213
tp5162
g1
(g7
tRp5163
S'tell'
p5164
F1
ss(g324
g3386
tp5165
g1
(g7
tRp5166
g3387
F1
ss(g3169
g4334
tp5167
g1
(g7
tRp5168
g3638
F1
ss(g2919
g2922
tp5169
g1
(g7
tRp5170
g4350
F1
ss(g1735
g196
tp5171
g1
(g7
tRp5172
g199
F1
ss(g3756
g2554
tp5173
g1
(g7
tRp5174
g2274
F1
ss(g1033
g1036
tp5175
g1
(g7
tRp5176
S''
F1
ss(g2217
g1635
tp5177
g1
(g7
tRp5178
g1636
F1
ss(g1273
tp5179
g1
(g7
tRp5180
g1276
F1
ss(g504
g2047
tp5181
g1
(g7
tRp5182
g2471
F1
ss(g1292
g2385
tp5183
g1
(g7
tRp5184
g2386
F1
ss(g162
g592
tp5185
g1
(g7
tRp5186
g593
F1
ss(g1291
g3720
tp5187
g1
(g7
tRp5188
g1026
F1
ss(g837
g1032
tp5189
g1
(g7
tRp5190
g2934
F1
ss(g3064
g2336
tp5191
g1
(g7
tRp5192
S''
F1
ss(g1586
g1589
tp5193
g1
(g7
tRp5194
g2904
F1
ss(S'It'
g4409
tp5195
g1
(g7
tRp5196
g3439
F1
ss(g3440
tp5197
g1
(g7
tRp5198
g3443
F0.5
sg3641
F0.5
ss(S'who'
p5199
g2420
tp5200
g1
(g7
tRp5201
g921
F1
ss(g418
g421
tp5202
g1
(g7
tRp5203
g1628
F1
ss(g1001
g1004
tp5204
g1
(g7
tRp5205
g1873
F1
ss(g2660
tp5206
g1
(g7
tRp5207
g1835
F0.5
sg72
F0.5
ss(g1969
g1972
tp5208
g1
(g7
tRp5209
g3723
F1
ss(g915
g2590
tp5210
g1
(g7
tRp5211
g706
F1
ss(g2371
tp5212
g1
(g7
tRp5213
g176
F0.19999999999999998
sg2372
F0.19999999999999998
sg4171
F0.19999999999999998
sS'kind'
p5214
F0.39999999999999997
ss(g3147
tp5215
g1
(g7
tRp5216
g511
F1
ss(g3675
g3294
tp5217
g1
(g7
tRp5218
g937
F0.33333333333333331
sg2954
F0.33333333333333331
sg3706
F0.33333333333333331
ss(g2714
tp5219
g1
(g7
tRp5220
S''
F0.5
sg2717
F0.5
ss(g12
S'a'
tp5221
g1
(g7
tRp5222
g2364
F1
ss(g2434
g2437
tp5223
g1
(g7
tRp5224
g2330
F1
ss(g1590
tp5225
g1
(g7
tRp5226
g1591
F1
ss(g2356
g339
tp5227
g1
(g7
tRp5228
g340
F1
ss(g1294
tp5229
g1
(g7
tRp5230
g1163
F1
ss(S'a'
g2364
tp5231
g1
(g7
tRp5232
g3399
F1
ss(g3340
g20
tp5233
g1
(g7
tRp5234
g1291
F0.33333333333333331
sg1290
F0.33333333333333331
sg95
F0.33333333333333331
ss(g1682
tp5235
g1
(g7
tRp5236
g1685
F0.5
sg1036
F0.5
ss(g53
g3971
tp5237
g1
(g7
tRp5238
g5199
F1
ss(g426
tp5239
g1
(g7
tRp5240
g644
F1
ss(g1063
tp5241
g1
(g7
tRp5242
g1066
F1
ss(g4061
g2750
tp5243
g1
(g7
tRp5244
g853
F1
ss(g3168
tp5245
g1
(g7
tRp5246
g3761
F0.79999999999999993
sg290
F0.19999999999999998
ss(g3177
g2647
tp5247
g1
(g7
tRp5248
g468
F1
ss(g1904
g12
tp5249
g1
(g7
tRp5250
S'a'
F1
ss(g2714
g2717
tp5251
g1
(g7
tRp5252
g2941
F1
ss(S'have'
g952
tp5253
g1
(g7
tRp5254
g3978
F1
ss(g857
tp5255
g1
(g7
tRp5256
g1266
F1
ss(g2370
g1029
tp5257
g1
(g7
tRp5258
g3269
F1
ss(g665
tp5259
g1
(g7
tRp5260
g2839
F1
ss(g3307
g3310
tp5261
g1
(g7
tRp5262
S''
F1
ss(g3410
g361
tp5263
g1
(g7
tRp5264
g749
F1
ss(g1251
S'a'
tp5265
g1
(g7
tRp5266
g2353
F0.125
sg1778
F0.125
sg3320
F0.125
sg1969
F0.125
sg2357
F0.125
sS'lot'
p5267
F0.125
sg2362
F0.125
sg1937
F0.125
ss(g58
tp5268
g1
(g7
tRp5269
S''
F0.33333333333333331
sg1138
F0.33333333333333331
sg3419
F0.33333333333333331
ss(g4036
g1807
tp5270
g1
(g7
tRp5271
S'I'
F1
ss(S'to'
g430
tp5272
g1
(g7
tRp5273
g3887
F1
ss(g4430
g2668
tp5274
g1
(g7
tRp5275
g2669
F1
ss(g1527
g1804
tp5276
g1
(g7
tRp5277
g681
F1
ss(g293
tp5278
g1
(g7
tRp5279
g3303
F0.33333333333333331
sg2115
F0.33333333333333331
sg626
F0.33333333333333331
ss(g333
tp5280
g1
(g7
tRp5281
S''
F1
ss(g1329
tp5282
g1
(g7
tRp5283
g3394
F1
ss(g43
g4649
tp5284
g1
(g7
tRp5285
g3444
F1
ss(g1428
g1609
tp5286
g1
(g7
tRp5287
g3609
F1
ss(S'And'
S'I'
tp5288
g1
(g7
tRp5289
g4644
F0.75
sg4910
F0.25
ss(g1372
tp5290
g1
(g7
tRp5291
g131
F1
ss(g3021
g2944
tp5292
g1
(g7
tRp5293
g2765
F1
ss(g2819
tp5294
g1
(g7
tRp5295
g1388
F1
ss(g2491
g2494
tp5296
g1
(g7
tRp5297
S'a'
F1
ss(g49
S'a'
tp5298
g1
(g7
tRp5299
g377
F1
ss(g3167
g5079
tp5300
g1
(g7
tRp5301
g5010
F1
ss(g1281
tp5302
g1
(g7
tRp5303
g3894
F1
ss(g1767
g482
tp5304
g1
(g7
tRp5305
g209
F1
ss(S'And'
g630
tp5306
g1
(g7
tRp5307
g631
F1
ss(g3927
g3501
tp5308
g1
(g7
tRp5309
g4071
F1
ss(S'was'
p5310
g2370
tp5311
g1
(g7
tRp5312
g1029
F1
ss(g2529
g336
tp5313
g1
(g7
tRp5314
g1509
F1
ss(g2764
g1118
tp5315
g1
(g7
tRp5316
g1119
F1
ss(g3858
tp5317
g1
(g7
tRp5318
S''
F1
ss(g3874
tp5319
g1
(g7
tRp5320
g1350
F1
ss(g612
g615
tp5321
g1
(g7
tRp5322
S'that'
p5323
F1
ss(g1617
tp5324
g1
(g7
tRp5325
g1618
F1
ss(g257
g2074
tp5326
g1
(g7
tRp5327
g1280
F1
ss(g1560
g1563
tp5328
g1
(g7
tRp5329
g2823
F1
ss(g2882
tp5330
g1
(g7
tRp5331
g2885
F1
ss(g2951
tp5332
g1
(g7
tRp5333
g2248
F0.5
sg1224
F0.5
ss(g912
tp5334
g1
(g7
tRp5335
g916
F0.29999999999999999
sg2614
F0.10000000000000001
sg2567
F0.10000000000000001
sg915
F0.10000000000000001
sg917
F0.10000000000000001
sg918
F0.10000000000000001
sg905
F0.20000000000000001
ss(g1719
g2124
tp5336
g1
(g7
tRp5337
g57
F1
ss(g556
g304
tp5338
g1
(g7
tRp5339
g59
F1
ss(g3178
tp5340
g1
(g7
tRp5341
g2425
F1
ss(g1751
g3736
tp5342
g1
(g7
tRp5343
g3210
F1
ss(g715
tp5344
g1
(g7
tRp5345
g667
F0.125
sg1744
F0.125
sg170
F0.125
sg2842
F0.125
sg2823
F0.125
sg3261
F0.125
sg787
F0.125
sg1405
F0.125
ss(g2361
g3235
tp5346
g1
(g7
tRp5347
g1891
F1
ss(g1354
g1754
tp5348
g1
(g7
tRp5349
S'America'
p5350
F1
ss(S'A'
g607
tp5351
g1
(g7
tRp5352
g3456
F1
ss(g616
tp5353
g1
(g7
tRp5354
g617
F1
ss(g575
tp5355
g1
(g7
tRp5356
g578
F0.5
sg579
F0.5
ss(g736
g3494
tp5357
g1
(g7
tRp5358
g4228
F1
ss(g639
tp5359
g1
(g7
tRp5360
g732
F1
ss(g1670
tp5361
g1
(g7
tRp5362
S''
F1
ss(g1892
g1895
tp5363
g1
(g7
tRp5364
g2918
F1
ss(g1149
g1154
tp5365
g1
(g7
tRp5366
g2213
F1
ss(g1032
g2934
tp5367
g1
(g7
tRp5368
g1293
F1
ss(g3736
g3210
tp5369
g1
(g7
tRp5370
g1086
F1
ss(g3387
tp5371
g1
(g7
tRp5372
S'I'
F0.5
sg3390
F0.5
ss(g265
g1559
tp5373
g1
(g7
tRp5374
g1560
F1
ss(g4046
g3027
tp5375
g1
(g7
tRp5376
g1725
F1
ss(g117
g2002
tp5377
g1
(g7
tRp5378
g2003
F1
ss(g1765
g1287
tp5379
g1
(g7
tRp5380
g2307
F1
ss(g14
g384
tp5381
g1
(g7
tRp5382
g50
F1
ss(g2265
tp5383
g1
(g7
tRp5384
g2268
F1
ss(S'I'
g1872
tp5385
g1
(g7
tRp5386
g1417
F1
ss(g2731
g1277
tp5387
g1
(g7
tRp5388
g1292
F1
ss(g1597
g381
tp5389
g1
(g7
tRp5390
g14
F1
ss(g1849
tp5391
g1
(g7
tRp5392
g1850
F1
ss(g555
tp5393
g1
(g7
tRp5394
g556
F1
ss(g2922
g4350
tp5395
g1
(g7
tRp5396
S'they'
p5397
F1
ss(g961
g964
tp5398
g1
(g7
tRp5399
g1794
F1
ss(g2357
tp5400
g1
(g7
tRp5401
g3008
F1
ss(g3358
g1308
tp5402
g1
(g7
tRp5403
g1309
F1
ss(g1228
g3340
tp5404
g1
(g7
tRp5405
g20
F1
ss(g1527
tp5406
g1
(g7
tRp5407
S''
F0.027027027027027032
sS'a'
F0.21621621621621626
sg520
F0.027027027027027032
sg1134
F0.027027027027027032
sg547
F0.027027027027027032
sg1804
F0.027027027027027032
sg951
F0.027027027027027032
sg955
F0.027027027027027032
sg3159
F0.027027027027027032
sg1534
F0.027027027027027032
sg363
F0.027027027027027032
sg3381
F0.027027027027027032
sg422
F0.21621621621621626
sg4400
F0.027027027027027032
sg694
F0.054054054054054071
sg952
F0.027027027027027032
sg3294
F0.081081081081081099
sg2282
F0.027027027027027032
sg1586
F0.027027027027027032
sg954
F0.027027027027027032
ss(g897
tp5408
g1
(g7
tRp5409
S''
F0.5
sg898
F0.5
ss(g1244
tp5410
g1
(g7
tRp5411
g1400
F1
ss(g3983
g988
tp5412
g1
(g7
tRp5413
g991
F1
ss(S'want'
g3116
tp5414
g1
(g7
tRp5415
g2819
F1
ss(g2191
g1820
tp5416
g1
(g7
tRp5417
g1821
F1
ss(g2115
g4751
tp5418
g1
(g7
tRp5419
S''
F1
ss(g1090
S'I'
tp5420
g1
(g7
tRp5421
g5310
F1
ss(g3319
g4343
tp5422
g1
(g7
tRp5423
S'I'
F1
ss(g1603
tp5424
g1
(g7
tRp5425
g1606
F1
ss(g778
g2460
tp5426
g1
(g7
tRp5427
g473
F1
ss(g729
tp5428
g1
(g7
tRp5429
g1189
F1
ss(g1271
g1078
tp5430
g1
(g7
tRp5431
g1079
F1
ss(S'We'
g4333
tp5432
g1
(g7
tRp5433
g770
F1
ss(g3174
tp5434
g1
(g7
tRp5435
S''
F1
ss(g593
tp5436
g1
(g7
tRp5437
g596
F1
ss(g1219
g1111
tp5438
g1
(g7
tRp5439
g983
F1
ss(g231
g234
tp5440
g1
(g7
tRp5441
g2061
F1
ss(g659
g846
tp5442
g1
(g7
tRp5443
g1519
F1
ss(g1720
tp5444
g1
(g7
tRp5445
g864
F1
ss(g1636
g1639
tp5446
g1
(g7
tRp5447
S'I'
F1
ss(g1107
tp5448
g1
(g7
tRp5449
g1110
F1
ss(S'a'
g2359
tp5450
g1
(g7
tRp5451
g3410
F1
ss(g973
tp5452
g1
(g7
tRp5453
g976
F1
ss(g1581
tp5454
g1
(g7
tRp5455
S'a'
F0.041666666666666671
sS''
F0.041666666666666671
sg3064
F0.041666666666666671
sg2112
F0.041666666666666671
sg32
F0.083333333333333315
sg1524
F0.041666666666666671
sg854
F0.041666666666666671
sg204
F0.041666666666666671
sg2264
F0.041666666666666671
sg229
F0.041666666666666671
sg145
F0.041666666666666671
sg3674
F0.041666666666666671
sg2471
F0.16666666666666669
sg1087
F0.29166666666666669
ss(g3173
g3674
tp5456
g1
(g7
tRp5457
g3675
F1
ss(g3168
g3761
tp5458
g1
(g7
tRp5459
g3137
F0.25
sS'I'
F0.25
sg2048
F0.25
sg90
F0.25
ss(g3463
g1976
tp5460
g1
(g7
tRp5461
g1977
F1
ss(g1367
tp5462
g1
(g7
tRp5463
g1368
F1
ss(g3775
g258
tp5464
g1
(g7
tRp5465
S''
F1
ss(S'What'
g5214
tp5466
g1
(g7
tRp5467
g5136
F1
ss(g1464
g1467
tp5468
g1
(g7
tRp5469
g858
F1
ss(g1699
g1918
tp5470
g1
(g7
tRp5471
g3928
F1
ss(g3609
tp5472
g1
(g7
tRp5473
g2438
F1
ss(g4919
g180
tp5474
g1
(g7
tRp5475
g184
F1
ss(S'and'
g1290
tp5476
g1
(g7
tRp5477
g5046
F1
ss(g3182
tp5478
g1
(g7
tRp5479
g4409
F0.25
sg3285
F0.25
sg240
F0.25
sg3060
F0.25
ss(g534
g3470
tp5480
g1
(g7
tRp5481
g2076
F1
ss(g1602
tp5482
g1
(g7
tRp5483
g3526
F0.19999999999999998
sg2316
F0.19999999999999998
sg2348
F0.19999999999999998
sg44
F0.19999999999999998
sg688
F0.19999999999999998
ss(S'a'
g2356
tp5484
g1
(g7
tRp5485
g339
F1
ss(g1444
g320
tp5486
g1
(g7
tRp5487
S''
F1
ss(g4534
g1491
tp5488
g1
(g7
tRp5489
g2822
F1
ss(g2111
g787
tp5490
g1
(g7
tRp5491
g788
F1
ss(g1884
g1887
tp5492
g1
(g7
tRp5493
g1896
F1
ss(g3578
g2465
tp5494
g1
(g7
tRp5495
g2468
F1
ss(g1695
tp5496
g1
(g7
tRp5497
g3273
F1
ss(g570
g573
tp5498
g1
(g7
tRp5499
g4633
F1
ss(g487
g804
tp5500
g1
(g7
tRp5501
g4026
F1
ss(g224
g2128
tp5502
g1
(g7
tRp5503
g2131
F1
ss(S'a'
g2361
tp5504
g1
(g7
tRp5505
g3235
F1
ss(g3794
g3391
tp5506
g1
(g7
tRp5507
g3188
F1
ss(g649
g652
tp5508
g1
(g7
tRp5509
g118
F1
ss(g270
tp5510
g1
(g7
tRp5511
g271
F1
ss(S'But'
g3505
tp5512
g1
(g7
tRp5513
g1533
F1
ss(g2904
g956
tp5514
g1
(g7
tRp5515
g957
F1
ss(g1781
tp5516
g1
(g7
tRp5517
S''
F1
ss(g514
g663
tp5518
g1
(g7
tRp5519
g742
F1
ss(g3185
tp5520
g1
(g7
tRp5521
g248
F0.25
sg1325
F0.25
sg2529
F0.5
ss(g2255
tp5522
g1
(g7
tRp5523
g805
F1
ss(g4837
g876
tp5524
g1
(g7
tRp5525
g992
F1
ss(g2976
g729
tp5526
g1
(g7
tRp5527
g1189
F1
ss(g1730
g1733
tp5528
g1
(g7
tRp5529
g4537
F1
ss(g3175
tp5530
g1
(g7
tRp5531
g4840
F1
ss(g3723
g3537
tp5532
g1
(g7
tRp5533
g2042
F1
ss(g926
g930
tp5534
g1
(g7
tRp5535
g2491
F1
ss(g1712
g1715
tp5536
g1
(g7
tRp5537
g2484
F1
ss(g3864
g823
tp5538
g1
(g7
tRp5539
g826
F1
ss(g2359
tp5540
g1
(g7
tRp5541
g3410
F1
ss(g107
g110
tp5542
g1
(g7
tRp5543
g1286
F1
ss(g951
g3478
tp5544
g1
(g7
tRp5545
g2768
F1
ss(g3183
tp5546
g1
(g7
tRp5547
g1547
F1
ss(g4333
g770
tp5548
g1
(g7
tRp5549
g1425
F1
ss(g844
tp5550
g1
(g7
tRp5551
g580
F1
ss(g2112
g2115
tp5552
g1
(g7
tRp5553
g4751
F1
ss(g1540
tp5554
g1
(g7
tRp5555
g2522
F0.25
sS''
F0.25
sg307
F0.25
sg1972
F0.25
ss(g2252
g2255
tp5556
g1
(g7
tRp5557
g805
F1
ss(g1429
g1432
tp5558
g1
(g7
tRp5559
g2951
F1
ss(g2097
g3207
tp5560
g1
(g7
tRp5561
S''
F0.5
sg1272
F0.5
ss(g1158
g960
tp5562
g1
(g7
tRp5563
g625
F1
ss(S'And'
g4062
tp5564
g1
(g7
tRp5565
S'me'
p5566
F1
ss(g845
g1569
tp5567
g1
(g7
tRp5568
g253
F1
ss(g1004
tp5569
g1
(g7
tRp5570
g1873
F1
ss(g951
tp5571
g1
(g7
tRp5572
g3478
F1
ss(g1475
S'a'
tp5573
g1
(g7
tRp5574
g2354
F1
ss(S'have'
g4400
tp5575
g1
(g7
tRp5576
g261
F1
ss(g3373
tp5577
g1
(g7
tRp5578
g1955
F1
ss(S'a'
g1381
tp5579
g1
(g7
tRp5580
g1199
F1
ss(g122
g128
tp5581
g1
(g7
tRp5582
g418
F1
ss(g1790
tp5583
g1
(g7
tRp5584
g1793
F0.75
sg2003
F0.25
ss(g2667
tp5585
g1
(g7
tRp5586
g2731
F1
ss(g2407
g1146
tp5587
g1
(g7
tRp5588
g931
F1
ss(g2918
g3357
tp5589
g1
(g7
tRp5590
S'a'
F1
ss(g1350
tp5591
g1
(g7
tRp5592
g1351
F1
ss(g331
g3381
tp5593
g1
(g7
tRp5594
g1355
F1
ss(S'a'
g760
tp5595
g1
(g7
tRp5596
g761
F1
ss(g185
g1945
tp5597
g1
(g7
tRp5598
g1946
F1
ss(g167
g170
tp5599
g1
(g7
tRp5600
g500
F1
ss(g488
g491
tp5601
g1
(g7
tRp5602
g2321
F1
ss(g176
g179
tp5603
g1
(g7
tRp5604
g2112
F1
ss(g142
g145
tp5605
g1
(g7
tRp5606
g655
F1
ss(S'as'
g3903
tp5607
g1
(g7
tRp5608
g897
F1
ss(g1905
tp5609
g1
(g7
tRp5610
S'a'
F0.16666666666666669
sS'I'
F0.16666666666666669
sg1908
F0.16666666666666669
sg2310
F0.16666666666666669
sg2608
F0.33333333333333331
ss(g417
g2217
tp5611
g1
(g7
tRp5612
g1635
F1
ss(S'I'
g2365
tp5613
g1
(g7
tRp5614
g2369
F0.5
sg2370
F0.5
ss(g764
g1495
tp5615
g1
(g7
tRp5616
g1296
F1
ss.