ccollections
defaultdict
p1
(cpymarkovchain.MarkovChain
_one_dict
p2
tRp3
(S'at'
p4
tp5
g1
(cpymarkovchain.MarkovChain
_one
p6
tRp7
S'home'
p8
F0.39583333333333331
sS'the'
p9
F0.39583333333333331
sS'Democratic'
p10
F0.20833333333333334
ss(S'America'
p11
tp12
g1
(g6
tRp13
S'is'
p14
F1
ss(S'do'
p15
S'in'
p16
tp17
g1
(g6
tRp18
S'Washington'
p19
F1
ss(S'what'
p20
S'happened'
p21
tp22
g1
(g6
tRp23
S'with'
p24
F1
ss(S'you'
p25
S'have'
p26
tp27
g1
(g6
tRp28
S'to'
p29
F1
ss(S'spent'
p30
S'the'
p31
tp32
g1
(g6
tRp33
S'last'
p34
F1
ss(S"I've"
p35
S'been'
p36
tp37
g1
(g6
tRp38
S'pretty'
p39
F1
ss(S'I'
S"don't"
p40
tp41
g1
(g6
tRp42
S''
F0.33333333333333331
sS'think'
p43
F0.33333333333333331
sS'care'
p44
F0.33333333333333331
ss(S'on'
p45
S'a'
tp46
g1
(g6
tRp47
S'list'
p48
F1
ss(S'Veterans'
p49
S'Administration'
p50
tp51
g1
(g6
tRp52
S"doesn't"
p53
F1
ss(S'does'
p54
tp55
g1
(g6
tRp56
S'not'
p57
F0.59523809523809523
sS'matter'
p58
F0.40476190476190482
ss(S'law'
p59
S'and'
p60
tp61
g1
(g6
tRp62
S'violate'
p63
F1
ss(S'now'
p64
tp65
g1
(g6
tRp66
S'and'
p67
F0.19999999999999998
sS'to'
p68
F0.19999999999999998
sS'closed'
p69
F0.19999999999999998
sS'for'
p70
F0.19999999999999998
sS'an'
p71
F0.19999999999999998
ss(S'they'
p72
S"didn't"
p73
tp74
g1
(g6
tRp75
S'do'
p76
F0.5
sS'want'
p77
F0.5
ss(S'to'
p78
S'defend'
p79
tp80
g1
(g6
tRp81
S'their'
p82
F1
ss(S'woman'
p83
S'being'
p84
tp85
g1
(g6
tRp86
S'violated'
p87
F1
ss(g19
tp88
g1
(g6
tRp89
S'D'
F1
ss(S'I'
S'learned'
p90
tp91
g1
(g6
tRp92
S'seven'
p93
F1
ss(S'the'
p94
S'world'
p95
tp96
g1
(g6
tRp97
S'to'
p98
F0.5
sS'freely'
p99
F0.5
ss(S'done'
p100
tp101
g1
(g6
tRp102
S''
F0.24786324786324787
sS'and'
p103
F0.24786324786324787
sS'by'
p104
F0.12820512820512819
sS'a'
F0.24786324786324787
sS'in'
p105
F0.12820512820512819
ss(S'had'
p106
S'when'
p107
tp108
g1
(g6
tRp109
S'I'
F0.5
sS'he'
p110
F0.5
ss(S'and'
p111
S'she'
p112
tp113
g1
(g6
tRp114
S'had'
p115
F1
ss(S'is'
p116
S'taking'
p117
tp118
g1
(g6
tRp119
S'Oxycontin'
p120
F1
ss(S'shame'
p121
S'is'
p122
tp123
g1
(g6
tRp124
S'--'
p125
F0.5
sS'that'
p126
F0.5
ss(S'going'
p127
S'to'
p128
tp129
g1
(g6
tRp130
S'do'
p131
F1
ss(S'millennial'
p132
tp133
g1
(g6
tRp134
S'or'
p135
F1
ss(S'let'
p136
S'me'
p137
tp138
g1
(g6
tRp139
S'tell'
p140
F1
ss(S"Let's"
p141
tp142
g1
(g6
tRp143
S'make'
p144
F0.5
sS'get'
p145
F0.5
ss(S'When'
p146
tp147
g1
(g6
tRp148
S"you're"
p149
F0.25
sS'the'
p150
F0.25
sg72
F0.25
sS'do'
p151
F0.25
ss(S'body'
p152
tp153
g1
(g6
tRp154
S'parts'
p155
F1
ss(S'look'
p156
S'these'
p157
tp158
g1
(g6
tRp159
S'folks'
p160
F1
ss(S'way'
p161
tp162
g1
(g6
tRp163
S'we'
p164
F0.65000000000000002
sS'with'
p165
F0.34999999999999998
ss(S'then'
p166
S'the'
p167
tp168
g1
(g6
tRp169
S'memorized'
p170
F1
ss(S'important'
p171
tp172
g1
(g6
tRp173
S''
F1
ss(S'again,'
p174
S'everybody'
p175
tp176
g1
(g6
tRp177
S''
F1
ss(S'with'
p178
S'this'
p179
tp180
g1
(g6
tRp181
S'and'
p182
F1
ss(S'if'
p183
tp184
g1
(g6
tRp185
S'a'
F0.32467532467532467
sS'you'
p186
F0.16883116883116886
sS'it'
p187
F0.16883116883116886
sS'they'
p188
F0.16883116883116886
sS'he'
p189
F0.16883116883116886
ss(S'proud'
p190
tp191
g1
(g6
tRp192
S'of'
p193
F0.34999999999999998
sS'to'
p194
F0.65000000000000002
ss(S"It's"
p195
tp196
g1
(g6
tRp197
S'a'
F0.39583333333333331
sS'not'
p198
F0.20833333333333334
sS'abundantly'
p199
F0.39583333333333331
ss(S'not'
p200
S'answering'
p201
tp202
g1
(g6
tRp203
S'a'
F1
ss(S'prison,'
p204
tp205
g1
(g6
tRp206
S'and'
p207
F1
ss(S'them'
p208
S'how'
p209
tp210
g1
(g6
tRp211
S"we're"
p212
F1
ss(S'But,'
p213
tp214
g1
(g6
tRp215
S'I'
F1
ss(S'the'
p216
S'ebola'
p217
tp218
g1
(g6
tRp219
S'virus'
p220
F1
ss(S'commander-in-chief'
p221
tp222
g1
(g6
tRp223
S'who'
p224
F1
ss(S'leader'
p225
S'must'
p226
tp227
g1
(g6
tRp228
S'fight'
p229
F1
ss(S'stood'
p230
tp231
g1
(g6
tRp232
S'up'
p233
F1
ss(S'up'
p234
S'her'
p235
tp236
g1
(g6
tRp237
S'just'
p238
F1
ss(S"Kasich's"
p239
tp240
g1
(g6
tRp241
S'record,'
p242
F1
ss(S'legislature'
p243
tp244
g1
(g6
tRp245
S'and'
p246
F0.5
sS'right'
p247
F0.5
ss(S'ask'
p248
S'all'
p249
tp250
g1
(g6
tRp251
S'the'
p252
F1
ss(S'a'
g132
tp253
g1
(g6
tRp254
g135
F1
ss(g103
S"here's"
p255
tp256
g1
(g6
tRp257
S''
F1
ss(S'say,'
p258
S'we'
p259
tp260
g1
(g6
tRp261
S'will'
p262
F1
ss(S'prepare'
p263
S'you'
p264
tp265
g1
(g6
tRp266
S'for'
p267
F1
ss(g48
S'of'
p268
tp269
g1
(g6
tRp270
S'a'
F1
ss(S'it'
p271
tp272
g1
(g6
tRp273
S''
F0.12380952380952381
sS"doesn't"
p274
F0.04190476190476191
sS'and'
p275
F0.082857142857142851
sS'said'
p276
F0.04190476190476191
sS'from'
p277
F0.04190476190476191
sS'like'
p278
F0.04190476190476191
sS'would'
p279
F0.04190476190476191
sS'did'
p280
F0.04190476190476191
sS'is'
p281
F0.12380952380952381
sS'is,'
p282
F0.04190476190476191
sS'will'
p283
F0.04190476190476191
sg54
F0.082857142857142851
sS'because'
p284
F0.04190476190476191
sS'in'
p285
F0.04190476190476191
sS'got'
p286
F0.04190476190476191
sS'happen,'
p287
F0.04190476190476191
sS'into'
p288
F0.04190476190476191
sS'happened'
p289
F0.04190476190476191
ss(S'you'
p290
S'need'
p291
tp292
g1
(g6
tRp293
S'to'
p294
F1
ss(S"shouldn't"
p295
tp296
g1
(g6
tRp297
S'compare'
p298
F0.5
sS'say'
p299
F0.5
ss(S'go'
p300
tp301
g1
(g6
tRp302
S'and'
p303
F0.33333333333333331
sS'to'
p304
F0.33333333333333331
sS'where'
p305
F0.33333333333333331
ss(S'truth'
p306
tp307
g1
(g6
tRp308
S''
F1
ss(S'have'
S'self-defense'
p309
tp310
g1
(g6
tRp311
S'for'
p312
F1
ss(S'raising'
p313
S'taxes'
p314
tp315
g1
(g6
tRp316
S'on'
p317
F1
ss(S'had'
p318
g216
tp319
g1
(g6
tRp320
g217
F0.5
sS'experience'
p321
F0.5
ss(S'everyone'
p322
tp323
g1
(g6
tRp324
S'out'
p325
F1
ss(S'I'
S'wake'
p326
tp327
g1
(g6
tRp328
S'up,'
p329
F1
ss(S'we'
p330
g106
tp331
g1
(g6
tRp332
g107
F1
ss(S'last'
p333
S'seven'
p334
tp335
g1
(g6
tRp336
S'years,'
p337
F1
ss(g280
S'not'
p338
tp339
g1
(g6
tRp340
S'work'
p341
F1
ss(S'get'
p342
S'the'
p343
tp344
g1
(g6
tRp345
S'schools'
p346
F0.5
sS'tools'
p347
F0.5
ss(S'cut'
p348
tp349
g1
(g6
tRp350
S'spending'
p351
F1
ss(g242
tp352
g1
(g6
tRp353
S'too'
p354
F1
ss(S'made'
p355
S'eight'
p356
tp357
g1
(g6
tRp358
S'years'
p359
F1
ss(S'million'
p360
S'worth'
p361
tp362
g1
(g6
tRp363
S'of'
p364
F1
ss(S'also'
p365
S'need'
p366
tp367
g1
(g6
tRp368
S'to'
p369
F1
ss(S'accountable'
S'for'
p370
tp371
g1
(g6
tRp372
S'them'
p373
F1
ss(S'swiftly'
p374
tp375
g1
(g6
tRp376
S'and'
p377
F1
ss(S'which'
p378
S'is'
p379
tp380
g1
(g6
tRp381
S'what'
p382
F1
ss(S'third'
p383
S'Barack'
p384
tp385
g1
(g6
tRp386
S'Obama'
p387
F1
ss(S'They'
p388
S'expect'
p389
tp390
g1
(g6
tRp391
S'you'
p392
F1
ss(S'state,'
p393
g378
tp394
g1
(g6
tRp395
g379
F1
ss(S'plowing'
p396
tp397
g1
(g6
tRp398
S'the'
p399
F1
ss(S'New'
p400
S'Jersey'
p401
tp402
g1
(g6
tRp403
S''
F0.44444444444444448
sS'be'
p404
F0.092592592592592615
sS'raised'
p405
F0.092592592592592615
sg348
F0.092592592592592615
sS'is'
p406
F0.092592592592592615
sS'had'
p407
F0.092592592592592615
sS'as'
p408
F0.092592592592592615
ss(S'that'
p409
S'one'
p410
tp411
g1
(g6
tRp412
S'of'
p413
F1
ss(S'10'
p414
S'percent'
p415
tp416
g1
(g6
tRp417
S''
F1
ss(S'over'
p418
tp419
g1
(g6
tRp420
S'stuff,'
p421
F0.25
sS'$50'
p422
F0.25
sS'the'
p423
F0.25
sS'$2'
p424
F0.25
ss(S'Excuse'
p425
S'me'
p426
tp427
g1
(g6
tRp428
S''
F1
ss(S'listen,'
p429
g174
tp430
g1
(g6
tRp431
g175
F1
ss(S'it'
p432
g280
tp433
g1
(g6
tRp434
g338
F1
ss(S'New'
p435
S'Hampshire'
p436
tp437
g1
(g6
tRp438
S''
F0.33333333333333331
sS'are'
p439
F0.33333333333333331
sS'in'
p440
F0.33333333333333331
ss(S'his'
p441
S'record'
p442
tp443
g1
(g6
tRp444
S'on'
p445
F1
ss(S'drive-by'
p446
tp447
g1
(g6
tRp448
S'shot'
p449
F1
ss(S'Washington,'
p450
tp451
g1
(g6
tRp452
S'D'
F1
ss(S'everybody'
p453
tp454
g1
(g6
tRp455
S''
F0.73333333333333328
sS'in'
p456
F0.26666666666666666
ss(S'they'
p457
tp458
g1
(g6
tRp459
g15
F0.050505050505050504
sS'never'
p460
F0.050505050505050504
sS'get'
p461
F0.050505050505050504
sS'practice'
p462
F0.050505050505050504
sg73
F0.099567099567099568
sS'knew'
p463
F0.050505050505050504
sS'understand'
p464
F0.050505050505050504
sS'can'
p465
F0.14862914862914861
sS'want'
p466
F0.099567099567099568
sS'need'
p467
F0.14862914862914861
sS'believe'
p468
F0.099567099567099568
sS'think'
p469
F0.050505050505050504
sS'expect'
p470
F0.050505050505050504
ss(S'your'
p471
S'accomplishments'
p472
tp473
g1
(g6
tRp474
S'you'
p475
F1
ss(S'Senator'
p476
S"Rubio's"
p477
tp478
g1
(g6
tRp479
S'answer'
p480
F1
ss(S'something'
p481
S'on'
p482
tp483
g1
(g6
tRp484
S'the'
p485
F1
ss(S'what'
p486
g450
tp487
g1
(g6
tRp488
S'D'
F1
ss(S'the'
p489
S'United'
p490
tp491
g1
(g6
tRp492
S'States'
p493
F0.6607142857142857
sS'States,'
p494
F0.3392857142857143
ss(S'told'
p495
tp496
g1
(g6
tRp497
S'them,'
p498
F1
ss(S'gets'
p499
S'very'
p500
tp501
g1
(g6
tRp502
S'unruly'
p503
F1
ss(S'registering'
p504
tp505
g1
(g6
tRp506
S'for'
p507
F1
ss(S'every'
p508
S'day,'
p509
tp510
g1
(g6
tRp511
S'but'
p512
F1
ss(S'After'
p513
S'New'
p514
tp515
g1
(g6
tRp516
S'Jersey'
p517
F1
ss(S'work,'
p518
S'do'
p519
tp520
g1
(g6
tRp521
S'you'
p522
F1
ss(g289
S'out'
p523
tp524
g1
(g6
tRp525
S'of'
p526
F1
ss(S'one'
p527
tp528
g1
(g6
tRp529
S'thing:'
p530
F0.083916083916083933
sS'last'
p531
F0.083916083916083933
sS'--'
p532
F0.083916083916083933
sS'of'
p533
F0.24475524475524482
sS'is'
p534
F0.083916083916083933
sS'up'
p535
F0.083916083916083933
sS'person'
p536
F0.083916083916083933
sS'second'
p537
F0.083916083916083933
sS'other'
p538
F0.083916083916083933
sS'problem'
p539
F0.083916083916083933
ss(S'does'
p540
g57
tp541
g1
(g6
tRp542
S'receive'
p543
F0.33333333333333331
sS'have'
p544
F0.33333333333333331
sg263
F0.33333333333333331
ss(S'heroin-addicted'
p545
S'drug'
p546
tp547
g1
(g6
tRp548
S'girl'
p549
F1
ss(S'saved'
p550
tp551
g1
(g6
tRp552
S'now,'
p553
F1
ss(S'Oh,'
p554
S'so'
p555
tp556
g1
(g6
tRp557
S'--'
p558
F1
ss(S'illegal'
p559
tp560
g1
(g6
tRp561
S'detention'
p562
F1
ss(S'First,'
p563
S"let's"
p564
tp565
g1
(g6
tRp566
S'remember'
p567
F1
ss(S'fact'
S'is'
p568
tp569
g1
(g6
tRp570
S'--'
p571
F0.17142857142857143
sS'that'
p572
F0.48571428571428571
sS'it'
p573
F0.17142857142857143
sS"that's"
p574
F0.17142857142857143
ss(g513
tp575
g1
(g6
tRp576
g514
F1
ss(S'responsibility'
p577
S'for'
p578
tp579
g1
(g6
tRp580
S'these'
p581
F0.5
sS'my'
p582
F0.5
ss(S'law'
p583
S'enforcement'
p584
tp585
g1
(g6
tRp586
S'so'
p587
F0.5
sS'background'
p588
F0.5
ss(S'picked'
p589
tp590
g1
(g6
tRp591
g234
F1
ss(g526
S'nowhere'
p592
tp593
g1
(g6
tRp594
S''
F1
ss(S'cause'
p595
S'in'
p596
tp597
g1
(g6
tRp598
S'one'
p599
F1
ss(S'principle'
p600
tp601
g1
(g6
tRp602
S''
F1
ss(S'one'
p603
g534
tp604
g1
(g6
tRp605
S'for'
p606
F1
ss(S'one,'
p607
tp608
g1
(g6
tRp609
S"I'll"
p610
F1
ss(g346
tp611
g1
(g6
tRp612
S'open'
p613
F1
ss(S'They'
S'go'
p614
tp615
g1
(g6
tRp616
g304
F1
ss(S"I'd"
p617
tp618
g1
(g6
tRp619
S'like'
p620
F1
ss(g26
g29
tp621
g1
(g6
tRp622
S'make'
p623
F0.25714285714285712
sS'deliver'
p624
F0.25714285714285712
sS'take'
p625
F0.48571428571428577
ss(S'federal'
p626
tp627
g1
(g6
tRp628
S'prosecutor'
p629
F1
ss(S'a'
S'young'
p630
tp631
g1
(g6
tRp632
S'woman'
p633
F1
ss(S'so'
p634
S'people'
p635
tp636
g1
(g6
tRp637
S'can'
p638
F1
ss(S'put'
p639
S'up'
p640
tp641
g1
(g6
tRp642
g178
F1
ss(S'For'
p643
tp644
g1
(g6
tRp645
S'the'
p646
F1
ss(S'and'
p647
S"can't"
p648
tp649
g1
(g6
tRp650
S'get'
p651
F1
ss(S'fact'
S'of'
p652
tp653
g1
(g6
tRp654
S'the'
p655
F1
ss(g150
S'teachers'
p656
tp657
g1
(g6
tRp658
S'unions'
p659
F1
ss(g179
g182
tp660
g1
(g6
tRp661
S'we'
p662
F1
ss(S'they'
p663
g467
tp664
g1
(g6
tRp665
S''
F0.65000000000000002
sS'is'
p666
F0.34999999999999998
ss(S'a'
S'pregnancy'
p667
tp668
g1
(g6
tRp669
S'that'
p670
F1
ss(S'for'
p671
S'his'
p672
tp673
g1
(g6
tRp674
g442
F0.33333333333333331
sS'life'
p675
F0.33333333333333331
sS'legislation'
p676
F0.33333333333333331
ss(S'that'
p677
S'their'
p678
tp679
g1
(g6
tRp680
S'sense'
p681
F1
ss(S'for'
p682
S'when'
p683
tp684
g1
(g6
tRp685
S'they'
p686
F1
ss(S'of'
p687
S'working'
p688
tp689
g1
(g6
tRp690
S'with'
p691
F1
ss(S'is'
g574
tp692
g1
(g6
tRp693
S'the'
p694
F1
ss(S'selective'
p695
S'service'
p696
tp697
g1
(g6
tRp698
S''
F1
ss(g235
g238
tp699
g1
(g6
tRp700
S'for'
p701
F1
ss(S'The'
S'prison'
p702
tp703
g1
(g6
tRp704
S'population'
p705
F1
ss(S'former'
p706
tp707
g1
(g6
tRp708
S'United'
p709
F0.5
sS'secretary'
p710
F0.5
ss(S'weaker'
p711
tp712
g1
(g6
tRp713
S''
F1
ss(S'now'
p714
g70
tp715
g1
(g6
tRp716
S'the'
p717
F1
ss(S'child'
p718
tp719
g1
(g6
tRp720
S'if'
p721
F1
ss(S'listened'
p722
S'to'
p723
tp724
g1
(g6
tRp725
g476
F1
ss(S'consequential'
p726
tp727
g1
(g6
tRp728
S'decision'
p729
F1
ss(S'position'
p730
tp731
g1
(g6
tRp732
S''
F1
ss(S'was,'
p733
tp734
g1
(g6
tRp735
S'"Did'
p736
F1
ss(S'bigger'
p737
tp738
g1
(g6
tRp739
S'government'
p740
F1
ss(S'rehabilitation'
p741
S'facility,'
p742
tp743
g1
(g6
tRp744
g634
F1
ss(S'with'
p745
S'everyday'
p746
tp747
g1
(g6
tRp748
S'Muslim-Americans'
p749
F1
ss(S'those'
p750
S'lives'
p751
tp752
g1
(g6
tRp753
S'is'
p754
F1
ss(S'person'
p755
S'and'
p756
tp757
g1
(g6
tRp758
S'a'
F1
ss(S'history'
p759
tp760
g1
(g6
tRp761
S''
F0.5
sS'hits'
p762
F0.5
ss(S'into'
p763
tp764
g1
(g6
tRp765
S'a'
F0.5
sS'effect,'
p766
F0.5
ss(S'Parenthood'
p767
tp768
g1
(g6
tRp769
S'does'
p770
F1
ss(S"didn't"
p771
tp772
g1
(g6
tRp773
S''
F0.19999999999999998
sg76
F0.19999999999999998
sS'fight'
p774
F0.19999999999999998
sg77
F0.19999999999999998
sS'pass'
p775
F0.19999999999999998
ss(g509
tp776
g1
(g6
tRp777
g512
F1
ss(S'it'
p778
g288
tp779
g1
(g6
tRp780
S'a'
F1
ss(S"didn't"
p781
g775
tp782
g1
(g6
tRp783
S'a'
F1
ss(g435
tp784
g1
(g6
tRp785
S'Jersey,'
p786
F0.11904761904761904
sS'Hampshire,'
p787
F0.06084656084656085
sg436
F0.17724867724867727
sg401
F0.64285714285714279
ss(S'who'
p788
S'is'
p789
tp790
g1
(g6
tRp791
g117
F0.33333333333333331
sS'embracing'
p792
F0.33333333333333331
sS'in'
p793
F0.33333333333333331
ss(g584
g588
tp794
g1
(g6
tRp795
S'as'
p796
F1
ss(S'everybody,'
p797
S'I'
tp798
g1
(g6
tRp799
S'want'
p800
F1
ss(g763
g766
tp801
g1
(g6
tRp802
S'which'
p803
F1
ss(S'effort'
p804
S'in'
p805
tp806
g1
(g6
tRp807
S'this'
p808
F1
ss(S'last'
p809
S'15'
p810
tp811
g1
(g6
tRp812
S'years'
p813
F1
ss(S'maybe'
p814
tp815
g1
(g6
tRp816
S'since'
p817
F1
ss(S'to'
p818
S'plow'
p819
tp820
g1
(g6
tRp821
S'the'
p822
F1
ss(S'You'
S'bet'
p823
tp824
g1
(g6
tRp825
S'I'
F1
ss(g472
tp826
g1
(g6
tRp827
g475
F1
ss(S'enforcement'
p828
g587
tp829
g1
(g6
tRp830
S'we'
p831
F1
ss(S'something'
p832
tp833
g1
(g6
tRp834
S''
F0.58333333333333337
sS'very'
p835
F0.20833333333333334
sg482
F0.20833333333333334
ss(S'faith'
p836
S'they'
p837
tp838
g1
(g6
tRp839
g462
F1
ss(S'problem'
p840
S'do'
p841
tp842
g1
(g6
tRp843
S'I'
F1
ss(g545
tp844
g1
(g6
tRp845
g546
F1
ss(S'eye'
p846
tp847
g1
(g6
tRp848
S'and'
p849
F1
ss(S'he'
p850
S'gets'
p851
tp852
g1
(g6
tRp853
S'off'
p854
F1
ss(S'symptoms'
p855
tp856
g1
(g6
tRp857
S'--'
p858
F0.5
sS'and'
p859
F0.5
ss(g401
g407
tp860
g1
(g6
tRp861
S'its'
p862
F1
ss(S'Do'
p863
S'not'
p864
tp865
g1
(g6
tRp866
S'make'
p867
F1
ss(S'You'
S'just'
p868
tp869
g1
(g6
tRp870
S'simply'
p871
F1
ss(S'Now,'
p872
S"I'm"
p873
tp874
g1
(g6
tRp875
S'the'
p876
F1
ss(S'25-second'
p877
tp878
g1
(g6
tRp879
S'speech'
p880
F1
ss(S'when'
S'the'
p881
tp882
g1
(g6
tRp883
S'challenges'
p884
F0.25
sS'problems'
p885
F0.25
sS'worst'
p886
F0.25
sS'government'
p887
F0.25
ss(S'gone'
p888
S'down'
p889
tp890
g1
(g6
tRp891
g414
F0.5
sS'20'
p892
F0.5
ss(g630
g633
tp893
g1
(g6
tRp894
S'in'
p895
F1
ss(S'way,'
p896
S'I'
tp897
g1
(g6
tRp898
S'like'
p899
F1
ss(S'streets,'
p900
S'getting'
p901
tp902
g1
(g6
tRp903
S'the'
p904
F1
ss(S'turning'
p905
tp906
g1
(g6
tRp907
g778
F1
ss(g299
S'that'
p908
tp909
g1
(g6
tRp910
S"that's"
p911
F1
ss(S'upon'
p912
S'the'
p913
tp914
g1
(g6
tRp915
S'symptoms,'
p916
F1
ss(S'your'
p917
S'90s,'
p918
tp919
g1
(g6
tRp920
S'no'
p921
F1
ss(S'negative'
p922
tp923
g1
(g6
tRp924
S'ultimately'
p925
F1
ss(S'coming'
p926
S'back'
p927
tp928
g1
(g6
tRp929
S'from'
p930
F1
ss(S'experience'
p931
tp932
g1
(g6
tRp933
S''
F0.19999999999999998
sS'to'
p934
F0.19999999999999998
sS'really'
p935
F0.19999999999999998
sS'with'
p936
F0.19999999999999998
sg687
F0.19999999999999998
ss(S'one'
p937
g539
tp938
g1
(g6
tRp939
S'for'
p940
F1
ss(S'for'
p941
S'your'
p942
tp943
g1
(g6
tRp944
S'vote'
p945
F1
ss(S'being'
p946
tp947
g1
(g6
tRp948
S'a'
F0.5
sg87
F0.5
ss(S'said'
p949
tp950
g1
(g6
tRp951
S'this'
p952
F0.20370370370370372
sS'on'
p953
F0.20370370370370372
sS'his'
p954
F0.20370370370370372
sS'that'
p955
F0.38888888888888884
ss(S'first'
p956
tp957
g1
(g6
tRp958
S''
F0.34999999999999998
sS'time'
p959
F0.65000000000000002
ss(S'You'
S'never'
p960
tp961
g1
(g6
tRp962
S'pay'
p963
F1
ss(g956
g959
tp964
g1
(g6
tRp965
S'and'
p966
F0.5
sS'in'
p967
F0.5
ss(S'we'
p968
S'released'
p969
tp970
g1
(g6
tRp971
S'her'
p972
F1
ss(S'in'
p973
S'those'
p974
tp975
g1
(g6
tRp976
S'years'
p977
F1
ss(S'medicine,'
p978
S'and'
p979
tp980
g1
(g6
tRp981
S'the'
p982
F1
ss(S'attorney'
p983
tp984
g1
(g6
tRp985
S'who'
p986
F1
ss(S'showing'
p987
S'up'
p988
tp989
g1
(g6
tRp990
S'to'
p991
F1
ss(S'second-worst'
p992
tp993
g1
(g6
tRp994
S'natural'
p995
F1
ss(S'and'
p996
S'we'
p997
tp998
g1
(g6
tRp999
S'need'
p1000
F0.25
sS'will'
p1001
F0.25
sS'have'
p1002
F0.25
sg969
F0.25
ss(g840
tp1003
g1
(g6
tRp1004
g841
F0.33333333333333331
sg940
F0.33333333333333331
sS'in'
p1005
F0.33333333333333331
ss(S'wakes'
p1006
tp1007
g1
(g6
tRp1008
S'up,'
p1009
F1
ss(g908
tp1010
g1
(g6
tRp1011
S''
F0.04429347826086958
sS'because'
p1012
F0.022282608695652181
sS'violation'
p1013
F0.022282608695652181
sS'money'
p1014
F0.022282608695652181
sS'is'
p1015
F0.066304347826086976
sS'executive'
p1016
F0.022282608695652181
sg410
F0.022282608695652181
sS'pregnancy'
p1017
F0.022282608695652181
sS'in'
p1018
F0.022282608695652181
sS'68'
p1019
F0.022282608695652181
sS'our'
p1020
F0.022282608695652181
sS'John'
p1021
F0.022282608695652181
sS'if'
p1022
F0.022282608695652181
sS"doesn't"
p1023
F0.022282608695652181
sS'what'
p1024
F0.022282608695652181
sS'funding'
p1025
F0.022282608695652181
sg678
F0.022282608695652181
sg318
F0.022282608695652181
sS'anyone'
p1026
F0.04429347826086958
sS'also'
p1027
F0.022282608695652181
sS'President'
p1028
F0.022282608695652181
sS'you'
p1029
F0.066304347826086976
sS'type'
p1030
F0.022282608695652181
sS'organization,'
p1031
F0.022282608695652181
sg600
F0.022282608695652181
sS'we'
p1032
F0.066304347826086976
sS'I'
F0.022282608695652181
sS'they'
p1033
F0.04429347826086958
sg718
F0.022282608695652181
sS'nurse'
p1034
F0.022282608695652181
sS'he'
p1035
F0.04429347826086958
sS'stuff'
p1036
F0.022282608695652181
sS'she'
p1037
F0.022282608695652181
sS'makes'
p1038
F0.022282608695652181
sg911
F0.022282608695652181
ss(S'wrong'
p1039
tp1040
g1
(g6
tRp1041
S''
F0.65000000000000002
sS'about'
p1042
F0.34999999999999998
ss(S'But'
S'all'
p1043
tp1044
g1
(g6
tRp1045
S'that'
p1046
F1
ss(g877
g880
tp1047
g1
(g6
tRp1048
S''
F0.5
sS'that'
p1049
F0.5
ss(g508
tp1050
g1
(g6
tRp1051
g509
F1
ss(S'on'
p1052
S'millionaires,'
p1053
tp1054
g1
(g6
tRp1055
S'we'
p1056
F1
ss(S'Everyone'
p1057
S'out'
p1058
tp1059
g1
(g6
tRp1060
S'at'
p1061
F1
ss(S'sure'
p1062
S'that'
p1063
tp1064
g1
(g6
tRp1065
S'anyone'
p1066
F0.33333333333333331
sg1020
F0.33333333333333331
sg1033
F0.33333333333333331
ss(S'cars,'
p1067
S'head'
p1068
tp1069
g1
(g6
tRp1070
S'to'
p1071
F1
ss(S'stopped'
p1072
S'it'
p1073
tp1074
g1
(g6
tRp1075
g277
F1
ss(g936
g313
tp1076
g1
(g6
tRp1077
g314
F1
ss(S'subject'
p1078
S'of'
p1079
tp1080
g1
(g6
tRp1081
S'this'
p1082
F0.5
sS'incest'
p1083
F0.5
ss(g477
g480
tp1084
g1
(g6
tRp1085
S'on'
p1086
F1
ss(S'a'
S'disease'
p1087
tp1088
g1
(g6
tRp1089
S''
F1
ss(S'It'
g499
tp1090
g1
(g6
tRp1091
g500
F1
ss(S'over'
p1092
g422
tp1093
g1
(g6
tRp1094
g360
F1
ss(S'Ohio'
p1095
tp1096
g1
(g6
tRp1097
S''
F1
ss(g464
S"there's"
p1098
tp1099
g1
(g6
tRp1100
S'a'
F1
ss(S'give'
p1101
tp1102
g1
(g6
tRp1103
S'me'
p1104
F0.5
sS'or'
p1105
F0.5
ss(S'taken'
p1106
tp1107
g1
(g6
tRp1108
S'over'
p1109
F1
ss(S'a'
g225
tp1110
g1
(g6
tRp1111
g226
F1
ss(g572
g1024
tp1112
g1
(g6
tRp1113
S'we'
p1114
F1
ss(S'what'
p1115
S"he's"
p1116
tp1117
g1
(g6
tRp1118
S'doing'
p1119
F1
ss(S'do'
p1120
S'not'
p1121
tp1122
g1
(g6
tRp1123
S'understand'
p1124
F0.5
sS'just'
p1125
F0.5
ss(g1049
g1015
tp1126
g1
(g6
tRp1127
S'not'
p1128
F0.33333333333333331
sS'a'
F0.33333333333333331
sS'exactly'
p1129
F0.33333333333333331
ss(g871
S"haven't"
p1130
tp1131
g1
(g6
tRp1132
S''
F1
ss(g710
tp1133
g1
(g6
tRp1134
S'of'
p1135
F1
ss(S'old'
p1136
S'statistics'
p1137
tp1138
g1
(g6
tRp1139
S''
F1
ss(S'States,'
S'as'
p1140
tp1141
g1
(g6
tRp1142
S'well'
p1143
F1
ss(S"state's"
p1144
tp1145
g1
(g6
tRp1146
g759
F1
ss(g264
g267
tp1147
g1
(g6
tRp1148
S'president'
p1149
F1
ss(g986
S'spent'
p1150
tp1151
g1
(g6
tRp1152
S'seven'
p1153
F1
ss(g1053
tp1154
g1
(g6
tRp1155
g1056
F1
ss(S'the'
p1156
S'canary'
p1157
tp1158
g1
(g6
tRp1159
S'in'
p1160
F1
ss(g1043
tp1161
g1
(g6
tRp1162
S'of'
p1163
F0.33333333333333331
sg252
F0.33333333333333331
sg1046
F0.33333333333333331
ss(S'the'
p1164
g347
tp1165
g1
(g6
tRp1166
g663
F1
ss(g99
tp1167
g1
(g6
tRp1168
S'and'
p1169
F1
ss(g1042
S'that,'
p1170
tp1171
g1
(g6
tRp1172
S'it'
p1173
F1
ss(S'build'
p1174
S'bridges'
p1175
tp1176
g1
(g6
tRp1177
S''
F0.5
sS'between'
p1178
F0.5
ss(g737
g740
tp1179
g1
(g6
tRp1180
g64
F1
ss(S'of'
p1181
g435
tp1182
g1
(g6
tRp1183
g436
F0.5
sS'Jersey'
p1184
F0.5
ss(S'fact'
p1185
S'is,'
p1186
tp1187
g1
(g6
tRp1188
S'Marco,'
p1189
F0.25
sS'I'
F0.25
sS'we'
p1190
F0.25
sS'that'
p1191
F0.25
ss(S'for'
p1192
S'that'
p1193
tp1194
g1
(g6
tRp1195
g1030
F0.5
sg1018
F0.5
ss(S'United'
p1196
tp1197
g1
(g6
tRp1198
S'States'
p1199
F0.77272727272727271
sg494
F0.22727272727272724
ss(g152
g155
tp1200
g1
(g6
tRp1201
S'for'
p1202
F1
ss(g421
tp1203
g1
(g6
tRp1204
S"he's"
p1205
F1
ss(S'offender'
p1206
S'no'
p1207
tp1208
g1
(g6
tRp1209
S'longer'
p1210
F1
ss(g1173
g283
tp1211
g1
(g6
tRp1212
S'hurt'
p1213
F1
ss(S'really'
p1214
S'matters'
p1215
tp1216
g1
(g6
tRp1217
S''
F0.5
sS'is'
p1218
F0.5
ss(S'the'
p1219
S'stage'
p1220
tp1221
g1
(g6
tRp1222
S'tonight'
p1223
F0.5
sS'that'
p1224
F0.5
ss(S'leadership,'
p1225
S"that's"
p1226
tp1227
g1
(g6
tRp1228
S'truancy'
p1229
F1
ss(S'if'
p1230
g187
tp1231
g1
(g6
tRp1232
g289
F1
ss(S'for'
p1233
tp1234
g1
(g6
tRp1235
S''
F0.026442307692307692
sS'all'
p1236
F0.026442307692307692
sS'it,'
p1237
F0.026442307692307692
sS'one'
p1238
F0.026442307692307692
sS'healthcare,'
p1239
F0.026442307692307692
sg942
F0.026442307692307692
sS'what'
p1240
F0.05248397435897436
sS'her'
p1241
F0.026442307692307692
sS'six'
p1242
F0.026442307692307692
sg683
F0.026442307692307692
sS'any'
p1243
F0.026442307692307692
sg373
F0.026442307692307692
sg672
F0.078525641025641024
sg1193
F0.05248397435897436
sg987
F0.026442307692307692
sS'problems'
p1244
F0.026442307692307692
sg271
F0.05248397435897436
sS'hostages'
p1245
F0.026442307692307692
sg1149
F0.026442307692307692
sS'women'
p1246
F0.026442307692307692
sS'paying'
p1247
F0.026442307692307692
sg581
F0.026442307692307692
sS'sale'
p1248
F0.026442307692307692
sS'this'
p1249
F0.026442307692307692
sS'the'
p1250
F0.20873397435897437
sg582
F0.026442307692307692
ss(S'mistake'
p1251
S'we'
p1252
tp1253
g1
(g6
tRp1254
g355
F1
ss(g538
tp1255
g1
(g6
tRp1256
S'thing'
p1257
F1
ss(S'trains'
p1258
S'running'
p1259
tp1260
g1
(g6
tRp1261
S'back'
p1262
F1
ss(S'of'
p1263
S'two'
p1264
tp1265
g1
(g6
tRp1266
S'daughters'
p1267
F1
ss(S'knowing'
p1268
tp1269
g1
(g6
tRp1270
S'what'
p1271
F1
ss(S'You'
S'see,'
p1272
tp1273
g1
(g6
tRp1274
g797
F1
ss(S'tax'
p1275
S'increase,'
p1276
tp1277
g1
(g6
tRp1278
S'because'
p1279
F1
ss(S'skills'
p1280
tp1281
g1
(g6
tRp1282
S'you'
p1283
F1
ss(S'to'
p1284
S'do'
p1285
tp1286
g1
(g6
tRp1287
S'--'
p1288
F0.16666666666666666
sS'is'
p1289
F0.16666666666666666
sS'exactly'
p1290
F0.16666666666666666
sS'so'
p1291
F0.16666666666666666
sS'with'
p1292
F0.16666666666666666
sS'more'
p1293
F0.16666666666666666
ss(S"I'll"
p1294
S'get'
p1295
tp1296
g1
(g6
tRp1297
S'in'
p1298
F1
ss(S'country'
p1299
S'is'
p1300
tp1301
g1
(g6
tRp1302
S'not'
p1303
F1
ss(S'back'
p1304
S'to'
p1305
tp1306
g1
(g6
tRp1307
S'the'
p1308
F1
ss(S'place'
p1309
S'that'
p1310
tp1311
g1
(g6
tRp1312
g318
F1
ss(S'down'
p1313
tp1314
g1
(g6
tRp1315
g414
F0.25714285714285712
sS'the'
p1316
F0.48571428571428577
sg892
F0.25714285714285712
ss(S'he'
p1317
S'simply'
p1318
tp1319
g1
(g6
tRp1320
g540
F1
ss(S'and'
p1321
S'managing'
p1322
tp1323
g1
(g6
tRp1324
S'the'
p1325
F1
ss(S'This'
p1326
S'president'
p1327
tp1328
g1
(g6
tRp1329
S'and'
p1330
F1
ss(S'rebuilt'
p1331
tp1332
g1
(g6
tRp1333
S'the'
p1334
F0.5
sS'after'
p1335
F0.5
ss(S'terminate'
p1336
tp1337
g1
(g6
tRp1338
S''
F1
ss(S'policy,'
p1339
S"it's"
p1340
tp1341
g1
(g6
tRp1342
S'class'
p1343
F1
ss(S'open'
p1344
S'a'
tp1345
g1
(g6
tRp1346
S'beer'
p1347
F1
ss(S'showing'
p1348
g855
tp1349
g1
(g6
tRp1350
g858
F0.5
sg859
F0.5
ss(g110
S'walked'
p1351
tp1352
g1
(g6
tRp1353
S'in'
p1354
F1
ss(S'what'
p1355
S'kind'
p1356
tp1357
g1
(g6
tRp1358
S'of'
p1359
F1
ss(S'a'
g1347
tp1360
g1
(g6
tRp1361
S'and'
p1362
F1
ss(S"we're"
p1363
S'doing'
p1364
tp1365
g1
(g6
tRp1366
S''
F1
ss(g911
tp1367
g1
(g6
tRp1368
g1229
F0.20370370370370372
sS'what'
p1369
F0.38888888888888884
sg694
F0.20370370370370372
sS'been'
p1370
F0.20370370370370372
ss(S'I'
S'think'
p1371
tp1372
g1
(g6
tRp1373
S'I'
F0.25
sS'about'
p1374
F0.25
sS'is'
p1375
F0.25
sS'he'
p1376
F0.25
ss(g746
g749
tp1377
g1
(g6
tRp1378
S''
F1
ss(S'That'
p1379
tp1380
g1
(g6
tRp1381
S'woman'
p1382
F1
ss(S'deaths'
p1383
S'have'
p1384
tp1385
g1
(g6
tRp1386
S'gone'
p1387
F1
ss(g1058
g1061
tp1388
g1
(g6
tRp1389
S'home'
p1390
F1
ss(g73
g77
tp1391
g1
(g6
tRp1392
S'--'
p1393
F1
ss(S'this'
p1394
S'in'
p1395
tp1396
g1
(g6
tRp1397
S'New'
p1398
F1
ss(S'When'
g151
tp1399
g1
(g6
tRp1400
S'that,'
p1401
F1
ss(S'tonight'
p1402
S'with'
p1403
tp1404
g1
(g6
tRp1405
S'these'
p1406
F1
ss(g449
tp1407
g1
(g6
tRp1408
S'at'
p1409
F1
ss(S'to'
S'have'
p1410
tp1411
g1
(g6
tRp1412
S'rebuild'
p1413
F0.33333333333333331
sS'done'
p1414
F0.33333333333333331
sS'in'
p1415
F0.33333333333333331
ss(S'the'
p1416
S'door'
p1417
tp1418
g1
(g6
tRp1419
S''
F1
ss(S'able'
p1420
tp1421
g1
(g6
tRp1422
S'to'
p1423
F1
ss(S'do'
g1289
tp1424
g1
(g6
tRp1425
S'to'
p1426
F1
ss(S"It's"
g198
tp1427
g1
(g6
tRp1428
S'a'
F1
ss(S'idea'
p1429
S'and'
p1430
tp1431
g1
(g6
tRp1432
S'a'
F1
ss(S'Congress'
p1433
tp1434
g1
(g6
tRp1435
S'is'
p1436
F1
ss(S'governor'
p1437
S'who'
p1438
tp1439
g1
(g6
tRp1440
S'actually'
p1441
F1
ss(S'against'
p1442
S'from'
p1443
tp1444
g1
(g6
tRp1445
g504
F1
ss(g918
g921
tp1446
g1
(g6
tRp1447
g603
F1
ss(g252
S'veterans'
p1448
tp1449
g1
(g6
tRp1450
S'listening'
p1451
F1
ss(S'them'
p1452
S'is'
p1453
tp1454
g1
(g6
tRp1455
S'here'
p1456
F1
ss(S'my'
p1457
S'state,'
p1458
tp1459
g1
(g6
tRp1460
S'I'
F1
ss(S'threatened'
p1461
S'to'
p1462
tp1463
g1
(g6
tRp1464
S'close'
p1465
F1
ss(S'engage'
p1466
S'the'
p1467
tp1468
g1
(g6
tRp1469
S'Chinese'
p1470
F1
ss(S'piece'
p1471
S'of'
p1472
tp1473
g1
(g6
tRp1474
S'paper'
p1475
F1
ss(S'by'
p1476
S'the'
p1477
tp1478
g1
(g6
tRp1479
g896
F1
ss(g193
S'my'
p1480
tp1481
g1
(g6
tRp1482
S'record'
p1483
F0.20370370370370372
sS'life'
p1484
F0.38888888888888884
sS'state'
p1485
F0.20370370370370372
sg1458
F0.20370370370370372
ss(S'take'
p1486
tp1487
g1
(g6
tRp1488
S'a'
F0.17142857142857143
sg577
F0.48571428571428571
sS'whatever'
p1489
F0.17142857142857143
sS'people'
p1490
F0.17142857142857143
ss(S'anymore;'
p1491
g1092
tp1492
g1
(g6
tRp1493
g422
F1
ss(S'when'
p1494
S'a'
tp1495
g1
(g6
tRp1496
g1196
F1
ss(S'next'
p1497
S'four'
p1498
tp1499
g1
(g6
tRp1500
S'years,'
p1501
F1
ss(S'are'
p1502
S'good,'
p1503
tp1504
g1
(g6
tRp1505
S'law'
p1506
F1
ss(S'Senate'
p1507
tp1508
g1
(g6
tRp1509
S''
F1
ss(S'between'
p1510
g946
tp1511
g1
(g6
tRp1512
S'a'
F1
ss(g9
S'beginning'
p1513
tp1514
g1
(g6
tRp1515
S'with'
p1516
F1
ss(S'And'
S'we'
p1517
tp1518
g1
(g6
tRp1519
S'need'
p1520
F1
ss(S'them'
p1521
S'and'
p1522
tp1523
g1
(g6
tRp1524
S'I'
F0.34999999999999998
sS'fought'
p1525
F0.65000000000000002
ss(S'help'
p1526
tp1527
g1
(g6
tRp1528
S'you'
p1529
F1
ss(S'there'
p1530
tp1531
g1
(g6
tRp1532
S'to'
p1533
F0.33333333333333331
sS'knows'
p1534
F0.33333333333333331
sS'tonight,'
p1535
F0.33333333333333331
ss(S'folks'
p1536
tp1537
g1
(g6
tRp1538
S''
F0.5
sS'in'
p1539
F0.5
ss(S'or'
p1540
S'no'
p1541
tp1542
g1
(g6
tRp1543
g508
F1
ss(S'outside,'
p1544
S'but'
p1545
tp1546
g1
(g6
tRp1547
S'comes'
p1548
F1
ss(S'what'
p1549
S'Hillary'
p1550
tp1551
g1
(g6
tRp1552
S'Clinton'
p1553
F1
ss(S'Act'
p1554
tp1555
g1
(g6
tRp1556
S'that'
p1557
F1
ss(S'home'
p1558
S'safely,'
p1559
tp1560
g1
(g6
tRp1561
S'but'
p1562
F1
ss(S'Maine'
p1563
tp1564
g1
(g6
tRp1565
S''
F1
ss(S'Joe'
p1566
tp1567
g1
(g6
tRp1568
S'Biden'
p1569
F1
ss(g333
tp1570
g1
(g6
tRp1571
g334
F0.14285714285714288
sg810
F0.14285714285714288
sS'six'
p1572
F0.14285714285714288
sS'three'
p1573
F0.14285714285714288
sS'thing'
p1574
F0.14285714285714288
sS'thing,'
p1575
F0.14285714285714288
sS'13'
p1576
F0.14285714285714288
ss(S'my'
p1577
g1484
tp1578
g1
(g6
tRp1579
S'focused'
p1580
F0.5
sS'fighting'
p1581
F0.5
ss(S'not'
p1582
g639
tp1583
g1
(g6
tRp1584
g640
F1
ss(g574
g694
tp1585
g1
(g6
tRp1586
S'way'
p1587
F1
ss(S'failed'
p1588
g1429
tp1589
g1
(g6
tRp1590
g1430
F1
ss(S'state'
p1591
tp1592
g1
(g6
tRp1593
S''
F0.3775510204081633
sS'and'
p1594
F0.07823129251700682
sS'after'
p1595
F0.07823129251700682
sS'budget'
p1596
F0.07823129251700682
sS'to'
p1597
F0.15306122448979592
sS'at'
p1598
F0.07823129251700682
sS'prison'
p1599
F0.07823129251700682
sg204
F0.07823129251700682
ss(g886
S'natural'
p1600
tp1601
g1
(g6
tRp1602
S'disaster'
p1603
F1
ss(S'president'
p1604
S'of'
p1605
tp1606
g1
(g6
tRp1607
g489
F1
ss(S'respond'
p1608
tp1609
g1
(g6
tRp1610
S''
F1
ss(g389
g392
tp1611
g1
(g6
tRp1612
g818
F1
ss(g405
tp1613
g1
(g6
tRp1614
S'our'
p1615
F0.34999999999999998
sS'taxes'
p1616
F0.65000000000000002
ss(S'win'
p1617
S'this'
p1618
tp1619
g1
(g6
tRp1620
g607
F1
ss(S'those'
p1621
tp1622
g1
(g6
tRp1623
S'who'
p1624
F0.33333333333333331
sg751
F0.33333333333333331
sg977
F0.33333333333333331
ss(S"That's"
S'the'
p1625
tp1626
g1
(g6
tRp1627
S'way'
p1628
F1
ss(S'jihadist'
p1629
g745
tp1630
g1
(g6
tRp1631
g746
F1
ss(g439
S'smart'
p1632
tp1633
g1
(g6
tRp1634
S''
F1
ss(S'smart'
p1635
g755
tp1636
g1
(g6
tRp1637
g756
F1
ss(g1006
g1009
tp1638
g1
(g6
tRp1639
g457
F1
ss(S'want'
p1640
S'everybody'
p1641
tp1642
g1
(g6
tRp1643
g456
F1
ss(g79
g82
tp1644
g1
(g6
tRp1645
S'country,'
p1646
F1
ss(g736
S'he'
p1647
tp1648
g1
(g6
tRp1649
S'fight'
p1650
F1
ss(S'governors'
p1651
tp1652
g1
(g6
tRp1653
S'this'
p1654
F1
ss(S'And'
S'so,'
p1655
tp1656
g1
(g6
tRp1657
S'what'
p1658
F1
ss(S'intelligence'
p1659
tp1660
g1
(g6
tRp1661
S'and'
p1662
F1
ss(S'But'
S'for'
p1663
tp1664
g1
(g6
tRp1665
g1242
F1
ss(S'Because'
p1666
S'I'
tp1667
g1
(g6
tRp1668
g40
F1
ss(S'partisanship,'
p1669
S'but'
p1670
tp1671
g1
(g6
tRp1672
S'putting'
p1673
F1
ss(S'within'
p1674
tp1675
g1
(g6
tRp1676
S''
F1
ss(g1226
g1229
tp1677
g1
(g6
tRp1678
S''
F1
ss(S'endanger'
p1679
S'even'
p1680
tp1681
g1
(g6
tRp1682
S'more'
p1683
F1
ss(g1072
tp1684
g1
(g6
tRp1685
g1073
F1
ss(S'take,'
p1686
S'not'
p1687
tp1688
g1
(g6
tRp1689
S'only'
p1690
F1
ss(S"You've"
p1691
tp1692
g1
(g6
tRp1693
S'gotten'
p1694
F1
ss(g1276
g1279
tp1695
g1
(g6
tRp1696
S'I'
F1
ss(S'this'
p1697
S'on'
p1698
tp1699
g1
(g6
tRp1700
g1219
F1
ss(g1218
S'this,'
p1701
tp1702
g1
(g6
tRp1703
S'that'
p1704
F1
ss(S'ransom'
p1705
S'for'
p1706
tp1707
g1
(g6
tRp1708
g1243
F0.5
sg1245
F0.5
ss(S'one'
p1709
g532
tp1710
g1
(g6
tRp1711
S'young'
p1712
F1
ss(S'a'
S'good'
p1713
tp1714
g1
(g6
tRp1715
S'guy,'
p1716
F0.5
sS'governor'
p1717
F0.5
ss(S'speech'
p1718
tp1719
g1
(g6
tRp1720
S''
F0.25
sS'where'
p1721
F0.25
sS'can'
p1722
F0.25
sg1049
F0.25
ss(S'State,'
p1723
tp1724
g1
(g6
tRp1725
g788
F1
ss(S'of'
p1726
S'it'
p1727
tp1728
g1
(g6
tRp1729
g274
F1
ss(g592
tp1730
g1
(g6
tRp1731
S''
F1
ss(g1247
tp1732
g1
(g6
tRp1733
S'ransom'
p1734
F1
ss(g922
g925
tp1735
g1
(g6
tRp1736
S'after'
p1737
F1
ss(S'John'
p1738
S'has'
p1739
tp1740
g1
(g6
tRp1741
S'a'
F1
ss(S'issue'
p1742
tp1743
g1
(g6
tRp1744
S''
F0.5
sS'of'
p1745
F0.5
ss(S'in-patient'
p1746
tp1747
g1
(g6
tRp1748
S'drug'
p1749
F1
ss(S'is'
p1750
g573
tp1751
g1
(g6
tRp1752
g54
F1
ss(g509
g512
tp1753
g1
(g6
tRp1754
S'when'
p1755
F1
ss(S'a'
g1309
tp1756
g1
(g6
tRp1757
g1310
F1
ss(S'I'
g722
tp1758
g1
(g6
tRp1759
g723
F1
ss(S'time'
p1760
S'when'
p1761
tp1762
g1
(g6
tRp1763
S"you've"
p1764
F1
ss(S'believed,'
p1765
tp1766
g1
(g6
tRp1767
S'as'
p1768
F1
ss(S'I'
S'need'
p1769
tp1770
g1
(g6
tRp1771
S'to'
p1772
F1
ss(g1046
g1023
tp1773
g1
(g6
tRp1774
S'matter'
p1775
F1
ss(g1035
g771
tp1776
g1
(g6
tRp1777
S''
F0.5
sg774
F0.5
ss(S'a'
S"woman's"
p1778
tp1779
g1
(g6
tRp1780
S'choice'
p1781
F1
ss(S'was'
S'done'
p1782
tp1783
g1
(g6
tRp1784
S''
F0.5
sg104
F0.5
ss(g543
S'that'
p1785
tp1786
g1
(g6
tRp1787
g1025
F1
ss(S'attacked'
p1788
tp1789
g1
(g6
tRp1790
S'me'
p1791
F1
ss(S'Yeah,'
p1792
tp1793
g1
(g6
tRp1794
S'David,'
p1795
F1
ss(g198
S'a'
tp1796
g1
(g6
tRp1797
g1778
F0.5
sS'moral'
p1798
F0.5
ss(S'just'
p1799
S'like'
p1800
tp1801
g1
(g6
tRp1802
S'you'
p1803
F1
ss(S'fewer'
p1804
S'employees'
p1805
tp1806
g1
(g6
tRp1807
S'than'
p1808
F1
ss(S'has'
p1809
tp1810
g1
(g6
tRp1811
S'a'
F0.11176470588235296
sg888
F0.21764705882352947
sS'advocated'
p1812
F0.11176470588235296
sS'been'
p1813
F0.11176470588235296
sS'Ronald'
p1814
F0.11176470588235296
sS'to'
p1815
F0.11176470588235296
sg1765
F0.11176470588235296
sS'happened'
p1816
F0.11176470588235296
ss(S'What'
S'my'
p1817
tp1818
g1
(g6
tRp1819
S'wife'
p1820
F1
ss(S'bridges'
p1821
g1178
tp1822
g1
(g6
tRp1823
S'our'
p1824
F1
ss(S'action'
p1825
S'to'
p1826
tp1827
g1
(g6
tRp1828
S'make'
p1829
F1
ss(g1014
tp1830
g1
(g6
tRp1831
S'will'
p1832
F0.5
sS"that's"
p1833
F0.5
ss(g1249
S'campaign'
p1834
tp1835
g1
(g6
tRp1836
S'--'
p1837
F1
ss(g1788
g1791
tp1838
g1
(g6
tRp1839
S'with'
p1840
F1
ss(g991
S'work,'
p1841
tp1842
g1
(g6
tRp1843
g396
F1
ss(S'in'
p1844
S'from'
p1845
tp1846
g1
(g6
tRp1847
S'the'
p1848
F1
ss(g710
g1135
tp1849
g1
(g6
tRp1850
S'State'
p1851
F0.5
sg1723
F0.5
ss(g1053
g1056
tp1852
g1
(g6
tRp1853
S'lost,'
p1854
F1
ss(g314
g317
tp1855
g1
(g6
tRp1856
S'millionaires'
p1857
F0.5
sg1053
F0.5
ss(g1722
tp1858
g1
(g6
tRp1859
S'dream,'
p1860
F0.10227272727272728
sS'violate'
p1861
F0.10227272727272728
sS'do'
p1862
F0.10227272727272728
sS'get'
p1863
F0.19886363636363635
sS'I'
F0.39204545454545453
sS'call'
p1864
F0.10227272727272728
ss(S'heart'
p1865
S'is'
p1866
tp1867
g1
(g6
tRp1868
S'to'
p1869
F1
ss(g1262
S'on'
p1870
tp1871
g1
(g6
tRp1872
g1760
F1
ss(g1544
tp1873
g1
(g6
tRp1874
g1545
F1
ss(g1706
g1243
tp1875
g1
(g6
tRp1876
S'hostage'
p1877
F1
ss(S'busy'
p1878
tp1879
g1
(g6
tRp1880
S'doing'
p1881
F1
ss(g1433
g1436
tp1882
g1
(g6
tRp1883
S''
F1
ss(S'Rubio,'
p1884
S'and'
p1885
tp1886
g1
(g6
tRp1887
S"he's"
p1888
F1
ss(g1339
tp1889
g1
(g6
tRp1890
g1340
F1
ss(S'me'
p1891
S'when'
p1892
tp1893
g1
(g6
tRp1894
S'the'
p1895
F1
ss(S'Sixteen-year-old,'
p1896
tp1897
g1
(g6
tRp1898
g545
F1
ss(g892
S'percent'
p1899
tp1900
g1
(g6
tRp1901
g973
F1
ss(S'My'
p1902
g1865
tp1903
g1
(g6
tRp1904
g1866
F1
ss(g199
tp1905
g1
(g6
tRp1906
S'clear'
p1907
F1
ss(S'is'
p1908
S'exactly'
p1909
tp1910
g1
(g6
tRp1911
S'what'
p1912
F1
ss(g1851
S'are'
p1913
tp1914
g1
(g6
tRp1915
S'for'
p1916
F1
ss(S'watched'
p1917
tp1918
g1
(g6
tRp1919
S'it'
p1920
F1
ss(g1272
g797
tp1921
g1
(g6
tRp1922
S'I'
F1
ss(g1370
g550
tp1923
g1
(g6
tRp1924
g553
F1
ss(S'and'
p1925
tp1926
g1
(g6
tRp1927
S'be'
p1928
F0.017579445571331998
sS'our'
p1929
F0.034989858012170416
sS'information'
p1930
F0.017579445571331998
sg258
F0.034989858012170416
sg63
F0.017579445571331998
sS'her'
p1931
F0.017579445571331998
sg1888
F0.017579445571331998
sg1322
F0.017579445571331998
sg559
F0.017579445571331998
sS'make'
p1932
F0.017579445571331998
sS'been'
p1933
F0.017579445571331998
sS'fight'
p1934
F0.017579445571331998
sg1525
F0.034989858012170416
sS"we're"
p1935
F0.017579445571331998
sS'you'
p1936
F0.017579445571331998
sS'has'
p1937
F0.017579445571331998
sS'more'
p1938
F0.017579445571331998
sg166
F0.017579445571331998
sg997
F0.069810682893847259
sS'his'
p1939
F0.017579445571331998
sS'impregnated'
p1940
F0.017579445571331998
sS'I'
F0.034989858012170416
sg1461
F0.017579445571331998
sS'why'
p1941
F0.017579445571331998
sS'watch'
p1942
F0.017579445571331998
sS'surely'
p1943
F0.017579445571331998
sS'they'
p1944
F0.017579445571331998
sg926
F0.017579445571331998
sg200
F0.017579445571331998
sS"I'm"
p1945
F0.017579445571331998
sg714
F0.017579445571331998
sS'rebuilt'
p1946
F0.017579445571331998
sg255
F0.017579445571331998
sS'a'
F0.069810682893847259
sS'strength,'
p1947
F0.017579445571331998
sS'my'
p1948
F0.017579445571331998
sS'incomplete'
p1949
F0.017579445571331998
sS'so'
p1950
F0.017579445571331998
sg112
F0.017579445571331998
sS"it's"
p1951
F0.017579445571331998
sS'the'
p1952
F0.052400270453008838
sS'safely'
p1953
F0.017579445571331998
sS'support'
p1954
F0.017579445571331998
sg648
F0.017579445571331998
sS"that's"
p1955
F0.017579445571331998
ss(S'but'
p1956
S'toughness'
p1957
tp1958
g1
(g6
tRp1959
S'and'
p1960
F1
ss(S'be'
p1961
S'the'
p1962
tp1963
g1
(g6
tRp1964
g1157
F0.5
sg1078
F0.5
ss(g1909
g1912
tp1965
g1
(g6
tRp1966
g1550
F0.25
sS'his'
p1967
F0.25
sS"we're"
p1968
F0.25
sg1116
F0.25
ss(S'Ever'
p1969
tp1970
g1
(g6
tRp1971
S''
F1
ss(g623
S'decisions'
p1972
tp1973
g1
(g6
tRp1974
S'and'
p1975
F1
ss(S"I'm"
p1976
S'glad'
p1977
tp1978
g1
(g6
tRp1979
S'you'
p1980
F1
ss(S'Planned'
p1981
g767
tp1982
g1
(g6
tRp1983
g770
F1
ss(S'on'
p1984
S'Tuesday'
p1985
tp1986
g1
(g6
tRp1987
S'I'
F1
ss(g1248
tp1988
g1
(g6
tRp1989
S'on'
p1990
F1
ss(g204
g207
tp1991
g1
(g6
tRp1992
g1935
F1
ss(g531
g1575
tp1993
g1
(g6
tRp1994
S'David,'
p1995
F1
ss(S'of'
g840
tp1996
g1
(g6
tRp1997
g841
F1
ss(S'Hurricane'
p1998
S'Sandy,'
p1999
tp2000
g1
(g6
tRp2001
S'and'
p2002
F1
ss(g1841
tp2003
g1
(g6
tRp2004
g519
F0.5
sg396
F0.5
ss(S'and'
p2005
g1955
tp2006
g1
(g6
tRp2007
S'what'
p2008
F1
ss(g1250
S'people'
p2009
tp2010
g1
(g6
tRp2011
g1181
F0.28125
sS'that'
p2012
F0.14583333333333334
sS'who'
p2013
F0.28125
sS'are'
p2014
F0.14583333333333334
sg4
F0.14583333333333334
ss(g149
S'president'
p2015
tp2016
g1
(g6
tRp2017
S'of'
p2018
F1
ss(S'cannot'
p2019
S'nix'
p2020
tp2021
g1
(g6
tRp2022
S'(ph)'
p2023
F1
ss(S'fine'
p2024
tp2025
g1
(g6
tRp2026
S''
F0.5
sS'job,'
p2027
F0.5
ss(S'vote'
p2028
S'for'
p2029
tp2030
g1
(g6
tRp2031
g271
F1
ss(S'wait'
p2032
tp2033
g1
(g6
tRp2034
S'a'
F1
ss(g1224
g1028
tp2035
g1
(g6
tRp2036
S'Obama'
p2037
F1
ss(S'because'
p2038
S'I'
tp2039
g1
(g6
tRp2040
S'vetoed'
p2041
F0.25
sS'wanted'
p2042
F0.25
sS'am'
p2043
F0.25
sS'took'
p2044
F0.25
ss(g775
tp2045
g1
(g6
tRp2046
S'a'
F0.5
sS'on'
p2047
F0.5
ss(g1453
g1456
tp2048
g1
(g6
tRp2049
S'tonight'
p2050
F1
ss(S'solve'
p2051
g1233
tp2052
g1
(g6
tRp2053
g1250
F1
ss(S'of'
p2054
S'ads'
p2055
tp2056
g1
(g6
tRp2057
g2038
F1
ss(S'be'
p2058
S'a'
tp2059
g1
(g6
tRp2060
S'party'
p2061
F1
ss(S'treating'
p2062
tp2063
g1
(g6
tRp2064
S'patients'
p2065
F1
ss(S'handicap'
p2066
S'it'
p2067
tp2068
g1
(g6
tRp2069
S'and'
p2070
F1
ss(S'about'
p2071
S'this'
p2072
tp2073
g1
(g6
tRp2074
S''
F1
ss(S'You'
S'can'
p2075
tp2076
g1
(g6
tRp2077
g1864
F1
ss(S'Parenthood,'
p2078
tp2079
g1
(g6
tRp2080
S'not'
p2081
F1
ss(g160
g1539
tp2082
g1
(g6
tRp2083
S'New'
p2084
F0.5
sS'the'
p2085
F0.5
ss(S'Anybody'
p2086
tp2087
g1
(g6
tRp2088
S'who'
p2089
F1
ss(S'the'
p2090
S'nine'
p2091
tp2092
g1
(g6
tRp2093
S'months'
p2094
F1
ss(g1999
g2002
tp2095
g1
(g6
tRp2096
g1945
F1
ss(g1379
g1382
tp2097
g1
(g6
tRp2098
S'should'
p2099
F1
ss(g1888
S'a'
tp2100
g1
(g6
tRp2101
g1635
F1
ss(S'30-second'
p2102
S'speech'
p2103
tp2104
g1
(g6
tRp2105
g1721
F1
ss(S'come'
p2106
g1844
tp2107
g1
(g6
tRp2108
g1845
F1
ss(S'have'
p2109
S'always'
p2110
tp2111
g1
(g6
tRp2112
S'has'
p2113
F1
ss(S'a'
S'greater'
p2114
tp2115
g1
(g6
tRp2116
g804
F1
ss(S'actually'
p2117
S'criticize'
p2118
tp2119
g1
(g6
tRp2120
S'somebody'
p2121
F1
ss(g544
S'the'
p2122
tp2123
g1
(g6
tRp2124
S'experience'
p2125
F1
ss(g1534
g1394
tp2126
g1
(g6
tRp2127
g1395
F1
ss(g1541
g508
tp2128
g1
(g6
tRp2129
g509
F1
ss(g99
g1169
tp2130
g1
(g6
tRp2131
g1953
F1
ss(S'what'
p2132
S'leadership'
p2133
tp2134
g1
(g6
tRp2135
S'is'
p2136
F1
ss(S'people'
p2137
S'the'
p2138
tp2139
g1
(g6
tRp2140
S'treatment'
p2141
F1
ss(g1953
tp2142
g1
(g6
tRp2143
S''
F1
ss(S'not'
p2144
S'just'
p2145
tp2146
g1
(g6
tRp2147
S'need'
p2148
F0.33333333333333331
sS'some'
p2149
F0.33333333333333331
sS'for'
p2150
F0.33333333333333331
ss(S'drug'
p2151
S'overdose'
p2152
tp2153
g1
(g6
tRp2154
g1383
F1
ss(S'engage'
p2155
tp2156
g1
(g6
tRp2157
g1467
F0.5
sS'in'
p2158
F0.5
ss(S'the'
p2159
S'women'
p2160
tp2161
g1
(g6
tRp2162
S'in'
p2163
F1
ss(S'warfare'
p2164
tp2165
g1
(g6
tRp2166
S''
F1
ss(g1294
tp2167
g1
(g6
tRp2168
S'bring'
p2169
F0.19999999999999998
sS'say'
p2170
F0.19999999999999998
sS'run'
p2171
F0.19999999999999998
sS'tell'
p2172
F0.19999999999999998
sg1295
F0.19999999999999998
ss(g539
g940
tp2173
g1
(g6
tRp2174
g1238
F1
ss(g1562
S'to'
p2175
tp2176
g1
(g6
tRp2177
g374
F1
ss(S"That's"
S'OK'
p2178
tp2179
g1
(g6
tRp2180
S''
F1
ss(S'in'
p2181
S'order'
p2182
tp2183
g1
(g6
tRp2184
S'to'
p2185
F1
ss(S'no'
p2186
S'reason'
p2187
tp2188
g1
(g6
tRp2189
S'why'
p2190
F1
ss(S'Is'
p2191
g409
tp2192
g1
(g6
tRp2193
g410
F1
ss(S'We'
p2194
S'have'
p2195
tp2196
g1
(g6
tRp2197
S'to'
p2198
F1
ss(g174
tp2199
g1
(g6
tRp2200
g175
F1
ss(S'not'
p2201
S'be'
p2202
tp2203
g1
(g6
tRp2204
S'involved'
p2205
F1
ss(S"we've"
p2206
g1106
tp2207
g1
(g6
tRp2208
g1109
F1
ss(g90
tp2209
g1
(g6
tRp2210
g93
F1
ss(S'so'
p2211
S'weak'
p2212
tp2213
g1
(g6
tRp2214
S'and'
p2215
F1
ss(S'victim'
p2216
tp2217
g1
(g6
tRp2218
S'of'
p2219
F1
ss(S'you'
p2220
S'the'
p2221
tp2222
g1
(g6
tRp2223
g306
F1
ss(g786
tp2224
g1
(g6
tRp2225
S'Josh'
p2226
F0.5
sS'for'
p2227
F0.5
ss(g1267
tp2228
g1
(g6
tRp2229
S''
F0.33333333333333331
sg2005
F0.33333333333333331
sS'right'
p2230
F0.33333333333333331
ss(g1251
tp2231
g1
(g6
tRp2232
S'again'
p2233
F0.5
sg1252
F0.5
ss(S'million'
p2234
tp2235
g1
(g6
tRp2236
g2054
F0.5
sg361
F0.5
ss(g242
g354
tp2237
g1
(g6
tRp2238
S''
F1
ss(S'the'
p2239
S'government'
p2240
tp2241
g1
(g6
tRp2242
S''
F0.25
sS'reopens'
p2243
F0.25
sS'because'
p2244
F0.25
sS"doesn't"
p2245
F0.25
ss(g50
g53
tp2246
g1
(g6
tRp2247
g518
F1
ss(g2114
g804
tp2248
g1
(g6
tRp2249
g805
F1
ss(g766
g803
tp2250
g1
(g6
tRp2251
S'said'
p2252
F1
ss(S'executives'
p2253
tp2254
g1
(g6
tRp2255
S''
F1
ss(S"weren't"
p2256
tp2257
g1
(g6
tRp2258
S'even'
p2259
F1
ss(S'throughout'
p2260
tp2261
g1
(g6
tRp2262
S'my'
p2263
F1
ss(S'Does'
p2264
tp2265
g1
(g6
tRp2266
S''
F1
ss(g797
tp2267
g1
(g6
tRp2268
S'I'
F1
ss(S'wrong'
p2269
g1042
tp2270
g1
(g6
tRp2271
g1170
F1
ss(S'Marco,'
p2272
S'the'
p2273
tp2274
g1
(g6
tRp2275
S'thing'
p2276
F1
ss(g666
S'our'
p2277
tp2278
g1
(g6
tRp2279
S'cooperation,'
p2280
F1
ss(S'good'
p2281
S'job'
p2282
tp2283
g1
(g6
tRp2284
S''
F0.5
sS'as'
p2285
F0.5
ss(S'--'
p2286
S'this'
p2287
tp2288
g1
(g6
tRp2289
S'is'
p2290
F1
ss(S'with'
p2291
S'the'
p2292
tp2293
g1
(g6
tRp2294
S'folks'
p2295
F0.5
sS'North'
p2296
F0.5
ss(S'legislature'
p2297
g247
tp2298
g1
(g6
tRp2299
S'now'
p2300
F1
ss(g1679
tp2301
g1
(g6
tRp2302
g1680
F1
ss(S'would'
p2303
S'fight'
p2304
tp2305
g1
(g6
tRp2306
S'for'
p2307
F1
ss(g1943
tp2308
g1
(g6
tRp2309
S'punish'
p2310
F1
ss(S'about'
p2311
g1669
tp2312
g1
(g6
tRp2313
g1670
F1
ss(S'wealth'
p2314
S'left'
p2315
tp2316
g1
(g6
tRp2317
S'our'
p2318
F1
ss(g672
g676
tp2319
g1
(g6
tRp2320
S''
F1
ss(g1079
g1082
tp2321
g1
(g6
tRp2322
S'type'
p2323
F1
ss(g1768
S'has'
p2324
tp2325
g1
(g6
tRp2326
g1814
F1
ss(g389
tp2327
g1
(g6
tRp2328
g392
F1
ss(g1576
S'years'
p2329
tp2330
g1
(g6
tRp2331
S'of'
p2332
F1
ss(S'turned'
p2333
S'out'
p2334
tp2335
g1
(g6
tRp2336
S'to'
p2337
F1
ss(S'it'
g282
tp2338
g1
(g6
tRp2339
S'everybody'
p2340
F1
ss(S'dying'
p2341
tp2342
g1
(g6
tRp2343
S'because'
p2344
F1
ss(g1423
g1336
tp2345
g1
(g6
tRp2346
S''
F1
ss(g2169
S'the'
p2347
tp2348
g1
(g6
tRp2349
S'same'
p2350
F1
ss(S'accountable'
p2351
tp2352
g1
(g6
tRp2353
S''
F0.5
sg370
F0.5
ss(S'mine'
p2354
tp2355
g1
(g6
tRp2356
S''
F1
ss(S'hard'
p2357
S'working'
p2358
tp2359
g1
(g6
tRp2360
S'people'
p2361
F1
ss(S'under'
p2362
S'five'
p2363
tp2364
g1
(g6
tRp2365
S'different'
p2366
F1
ss(S'you'
p2367
S'know'
p2368
tp2369
g1
(g6
tRp2370
S'what'
p2371
F1
ss(S'billion'
p2372
S'and'
p2373
tp2374
g1
(g6
tRp2375
S'we'
p2376
F1
ss(g209
g212
tp2377
g1
(g6
tRp2378
S'helping'
p2379
F1
ss(S'I'
S'be'
p2380
tp2381
g1
(g6
tRp2382
S'really'
p2383
F1
ss(S'points'
p2384
tp2385
g1
(g6
tRp2386
S''
F1
ss(g2171
tp2387
g1
(g6
tRp2388
S''
F1
ss(S'Come'
p2389
S'take'
p2390
tp2391
g1
(g6
tRp2392
S'a'
F1
ss(g322
g325
tp2393
g1
(g6
tRp2394
S'there'
p2395
F1
ss(g1014
g1832
tp2396
g1
(g6
tRp2397
S'leave'
p2398
F1
ss(g2042
S'to'
p2399
tp2400
g1
(g6
tRp2401
S'raise'
p2402
F0.5
sS'reform'
p2403
F0.5
ss(g817
tp2404
g1
(g6
tRp2405
S'I'
F1
ss(g2149
S'--'
p2406
tp2407
g1
(g6
tRp2408
S'like,'
p2409
F1
ss(S'against'
p2410
tp2411
g1
(g6
tRp2412
S'them'
p2413
F0.5
sg1443
F0.5
ss(S'billion'
p2414
S'in'
p2415
tp2416
g1
(g6
tRp2417
g2314
F1
ss(g1462
g1465
tp2418
g1
(g6
tRp2419
g1313
F1
ss(g559
g562
tp2420
g1
(g6
tRp2421
S''
F1
ss(S'a'
S'state,'
p2422
tp2423
g1
(g6
tRp2424
S'the'
p2425
F1
ss(g287
tp2426
g1
(g6
tRp2427
g453
F1
ss(S'American'
p2428
S'population'
p2429
tp2430
g1
(g6
tRp2431
S'in'
p2432
F1
ss(S'non-dealing,'
p2433
tp2434
g1
(g6
tRp2435
S'first-time'
p2436
F1
ss(S'travel'
p2437
S'the'
p2438
tp2439
g1
(g6
tRp2440
S'world'
p2441
F1
ss(g278
S'they'
p2442
tp2443
g1
(g6
tRp2444
g15
F1
ss(S'you'
p2445
S'would'
p2446
tp2447
g1
(g6
tRp2448
g2117
F1
ss(g1785
g1025
tp2449
g1
(g6
tRp2450
S'from'
p2451
F1
ss(S'very'
p2452
g2281
tp2453
g1
(g6
tRp2454
g2282
F1
ss(S'government,'
p2455
tp2456
g1
(g6
tRp2457
S'I'
F1
ss(g1718
g1722
tp2458
g1
(g6
tRp2459
S'I'
F1
ss(S'maximize'
p2460
S'the'
p2461
tp2462
g1
(g6
tRp2463
S'value'
p2464
F1
ss(S'is,'
S'I'
tp2465
g1
(g6
tRp2466
S'went'
p2467
F1
ss(S'is'
g572
tp2468
g1
(g6
tRp2469
S'we'
p2470
F0.25
sg1012
F0.25
sg1024
F0.25
sg2445
F0.25
ss(g457
g469
tp2471
g1
(g6
tRp2472
S'about'
p2473
F1
ss(S'people'
p2474
g1181
tp2475
g1
(g6
tRp2476
g435
F0.5
sS'my'
p2477
F0.5
ss(S'understands'
p2478
S'that'
p2479
tp2480
g1
(g6
tRp2481
g600
F1
ss(S'ransom'
p2482
tp2483
g1
(g6
tRp2484
S'to'
p2485
F0.5
sg1706
F0.5
ss(S'your'
p2486
g1144
tp2487
g1
(g6
tRp2488
g759
F1
ss(g1245
tp2489
g1
(g6
tRp2490
S''
F1
ss(S'aspire'
p2491
S'to'
p2492
tp2493
g1
(g6
tRp2494
S'as'
p2495
F1
ss(S'These'
p2496
tp2497
g1
(g6
tRp2498
S'efforts'
p2499
F0.5
sg1502
F0.5
ss(S'vote'
p2500
S'yes'
p2501
tp2502
g1
(g6
tRp2503
g1540
F1
ss(g1647
g1650
tp2504
g1
(g6
tRp2505
g671
F1
ss(S'And'
S'this'
p2506
tp2507
g1
(g6
tRp2508
S'is'
p2509
F1
ss(S'the'
p2510
g695
tp2511
g1
(g6
tRp2512
g696
F1
ss(S'signed'
p2513
g763
tp2514
g1
(g6
tRp2515
g766
F1
ss(S'I'
S'would'
p2516
tp2517
g1
(g6
tRp2518
S''
F0.38888888888888884
sS'do'
p2519
F0.20370370370370372
sg1799
F0.20370370370370372
sg2304
F0.20370370370370372
ss(S'States'
g1507
tp2520
g1
(g6
tRp2521
S''
F1
ss(S'I'
S'fought'
p2522
tp2523
g1
(g6
tRp2524
g1521
F1
ss(S'$20'
p2525
tp2526
g1
(g6
tRp2527
g2234
F1
ss(g959
g967
tp2528
g1
(g6
tRp2529
S'four'
p2530
F1
ss(g1857
tp2531
g1
(g6
tRp2532
S'in'
p2533
F1
ss(g2202
g2205
tp2534
g1
(g6
tRp2535
S'in'
p2536
F1
ss(S'entire'
p2537
tp2538
g1
(g6
tRp2539
S'life'
p2540
F1
ss(g1489
S'actions'
p2541
tp2542
g1
(g6
tRp2543
S'we'
p2544
F1
ss(g44
S'if'
p2545
tp2546
g1
(g6
tRp2547
g186
F1
ss(S'yourself'
p2548
tp2549
g1
(g6
tRp2550
S'to'
p2551
F1
ss(S'Can'
p2552
tp2553
g1
(g6
tRp2554
S'I'
F1
ss(S"couldn't"
p2555
tp2556
g1
(g6
tRp2557
S'pass'
p2558
F1
ss(g277
S'happening'
p2559
tp2560
g1
(g6
tRp2561
S'again'
p2562
F1
ss(g1356
tp2563
g1
(g6
tRp2564
g1359
F1
ss(g624
S'that'
p2565
tp2566
g1
(g6
tRp2567
g718
F1
ss(S'one'
p2568
g530
tp2569
g1
(g6
tRp2570
S'serving'
p2571
F1
ss(S'have'
p2572
S'better'
p2573
tp2574
g1
(g6
tRp2575
S'jobs'
p2576
F1
ss(S'get'
p2577
S'our'
p2578
tp2579
g1
(g6
tRp2580
S'people'
p2581
F1
ss(S'radical'
p2582
S'Islamic'
p2583
tp2584
g1
(g6
tRp2585
g1629
F1
ss(S'And'
S'if'
p2586
tp2587
g1
(g6
tRp2588
S'a'
F1
ss(S'and'
p2589
g1949
tp2590
g1
(g6
tRp2591
S'information'
p2592
F1
ss(g562
tp2593
g1
(g6
tRp2594
S''
F1
ss(S'womb,'
p2595
tp2596
g1
(g6
tRp2597
S"I'm"
p2598
F0.5
sg2181
F0.5
ss(g793
S'that'
p2599
tp2600
g1
(g6
tRp2601
g1019
F1
ss(S'here'
p2602
S"who's"
p2603
tp2604
g1
(g6
tRp2605
S'had'
p2606
F1
ss(g1769
g1772
tp2607
g1
(g6
tRp2608
g1285
F0.29292929292929298
sg1466
F0.10101010101010104
sg2058
F0.10101010101010104
sS'make'
p2609
F0.10101010101010104
sS'get'
p2610
F0.10101010101010104
sg2051
F0.10101010101010104
sg1410
F0.10101010101010104
sg1686
F0.10101010101010104
ss(S'not'
p2611
g263
tp2612
g1
(g6
tRp2613
g264
F1
ss(S'when'
p2614
S'people'
p2615
tp2616
g1
(g6
tRp2617
S'wanted'
p2618
F1
ss(g1972
tp2619
g1
(g6
tRp2620
g1975
F0.33333333333333331
sS''
F0.33333333333333331
sS'based'
p2621
F0.33333333333333331
ss(g226
g229
tp2622
g1
(g6
tRp2623
S'for'
p2624
F1
ss(g1136
tp2625
g1
(g6
tRp2626
g1137
F1
ss(g533
g471
tp2627
g1
(g6
tRp2628
S'state'
p2629
F0.5
sg472
F0.5
ss(g370
g373
tp2630
g1
(g6
tRp2631
S''
F1
ss(S'the'
p2632
S'American'
p2633
tp2634
g1
(g6
tRp2635
S'economy'
p2636
F1
ss(S'of'
S'our'
p2637
tp2638
g1
(g6
tRp2639
S'nation'
p2640
F1
ss(g2422
g2425
tp2641
g1
(g6
tRp2642
S'memorized'
p2643
F1
ss(S'a'
g2024
tp2644
g1
(g6
tRp2645
g2027
F1
ss(g1387
S'down,'
p2646
tp2647
g1
(g6
tRp2648
S'not'
p2649
F1
ss(g1945
S'incredibly'
p2650
tp2651
g1
(g6
tRp2652
S'proud'
p2653
F1
ss(g755
tp2654
g1
(g6
tRp2655
g756
F0.5
sS''
F0.5
ss(S'fact'
p2656
S'when'
p2657
tp2658
g1
(g6
tRp2659
S'you'
p2660
F1
ss(g317
g1857
tp2661
g1
(g6
tRp2662
g2533
F1
ss(S'this'
p2663
g1299
tp2664
g1
(g6
tRp2665
S'wants'
p2666
F0.33333333333333331
sg1300
F0.33333333333333331
sS'understand'
p2667
F0.33333333333333331
ss(S'been'
p2668
S'raped'
p2669
tp2670
g1
(g6
tRp2671
S'and'
p2672
F1
ss(g1262
tp2673
g1
(g6
tRp2674
g1870
F0.33333333333333331
sg930
F0.33333333333333331
sg1305
F0.33333333333333331
ss(S'go'
p2675
g303
tp2676
g1
(g6
tRp2677
g1934
F1
ss(S'lot'
p2678
S'more'
p2679
tp2680
g1
(g6
tRp2681
S'complicated'
p2682
F1
ss(g1975
g1928
tp2683
g1
(g6
tRp2684
S'held'
p2685
F1
ss(g243
g246
tp2686
g1
(g6
tRp2687
g1461
F1
ss(g170
g877
tp2688
g1
(g6
tRp2689
g880
F1
ss(g2571
tp2690
g1
(g6
tRp2691
S'the'
p2692
F1
ss(g1157
tp2693
g1
(g6
tRp2694
g1160
F1
ss(S'of'
p2695
g1452
tp2696
g1
(g6
tRp2697
g1453
F1
ss(g1572
tp2698
g1
(g6
tRp2699
S'years'
p2700
F1
ss(g722
tp2701
g1
(g6
tRp2702
g723
F1
ss(S'No'
p2703
tp2704
g1
(g6
tRp2705
S''
F1
ss(g630
tp2706
g1
(g6
tRp2707
g633
F0.5
sS'women'
p2708
F0.5
ss(S'taxes'
p2709
S'any'
p2710
tp2711
g1
(g6
tRp2712
S'further,'
p2713
F1
ss(g2537
g2540
tp2714
g1
(g6
tRp2715
S''
F1
ss(S'--'
p2716
S'but'
p2717
tp2718
g1
(g6
tRp2719
S'unfortunately,'
p2720
F1
ss(S'the'
p2721
g978
tp2722
g1
(g6
tRp2723
g979
F1
ss(S'from'
p2724
S'God'
p2725
tp2726
g1
(g6
tRp2727
S''
F1
ss(g1687
g1690
tp2728
g1
(g6
tRp2729
S'to'
p2730
F1
ss(g1932
S'these'
p2731
tp2732
g1
(g6
tRp2733
S'decision'
p2734
F0.34999999999999998
sS'decisions'
p2735
F0.65000000000000002
ss(S'which'
p2736
S'engages'
p2737
tp2738
g1
(g6
tRp2739
S'in'
p2740
F1
ss(g2043
S'the'
p2741
tp2742
g1
(g6
tRp2743
S'father'
p2744
F1
ss(S'in'
p2745
g2486
tp2746
g1
(g6
tRp2747
g2537
F0.33333333333333331
sg1144
F0.33333333333333331
sg918
F0.33333333333333331
ss(g2669
g2672
tp2748
g1
(g6
tRp2749
g1940
F1
ss(g1130
tp2750
g1
(g6
tRp2751
S''
F1
ss(S'I'
g495
tp2752
g1
(g6
tRp2753
g498
F1
ss(g573
g54
tp2754
g1
(g6
tRp2755
g2611
F0.5
sg58
F0.5
ss(S'lockup,'
p2756
S"I'm"
p2757
tp2758
g1
(g6
tRp2759
S'pro-life'
p2760
F1
ss(g2055
tp2761
g1
(g6
tRp2762
g2038
F1
ss(g2660
S'talk'
p2763
tp2764
g1
(g6
tRp2765
S'about'
p2766
F1
ss(g383
tp2767
g1
(g6
tRp2768
g384
F1
ss(S'pro-choice'
p2769
tp2770
g1
(g6
tRp2771
S'states'
p2772
F1
ss(g2700
S"we've"
p2773
tp2774
g1
(g6
tRp2775
S'de-funded'
p2776
F1
ss(S'one'
p2777
g531
tp2778
g1
(g6
tRp2779
g1575
F1
ss(S'been'
p2780
S'so'
p2781
tp2782
g1
(g6
tRp2783
g1878
F1
ss(S'governor'
p2784
S'of'
p2785
tp2786
g1
(g6
tRp2787
S'a'
F0.5
sg1095
F0.5
ss(S'look'
p2788
S'--'
p2789
tp2790
g1
(g6
tRp2791
g432
F1
ss(S'and'
p2792
g1937
tp2793
g1
(g6
tRp2794
g1812
F1
ss(S'value,'
p2795
S'their'
p2796
tp2797
g1
(g6
tRp2798
S'sense'
p2799
F1
ss(S"Let's"
g144
tp2800
g1
(g6
tRp2801
S'something'
p2802
F1
ss(S'country'
g2667
tp2803
g1
(g6
tRp2804
S'anything'
p2805
F1
ss(S'just'
p2806
S'for'
p2807
tp2808
g1
(g6
tRp2809
g1249
F0.34999999999999998
sg2090
F0.65000000000000002
ss(g298
tp2810
g1
(g6
tRp2811
g2548
F1
ss(S'want'
p2812
S'to'
p2813
tp2814
g1
(g6
tRp2815
S'aspire'
p2816
F0.25
sS'do'
p2817
F0.25
sS'add'
p2818
F0.25
sS'tell'
p2819
F0.25
ss(S'like'
p2820
tp2821
g1
(g6
tRp2822
S'Marco'
p2823
F0.14285714285714288
sg239
F0.14285714285714288
sS'to'
p2824
F0.14285714285714288
sS"we're"
p2825
F0.14285714285714288
sg2442
F0.14285714285714288
sS'Senator'
p2826
F0.14285714285714288
sg1803
F0.14285714285714288
ss(S'term,'
p2827
S'would'
p2828
tp2829
g1
(g6
tRp2830
S'be'
p2831
F1
ss(g1559
g1562
tp2832
g1
(g6
tRp2833
g2175
F1
ss(S'rebuild'
p2834
tp2835
g1
(g6
tRp2836
S'their'
p2837
F0.5
sS'my'
p2838
F0.5
ss(g640
g178
tp2839
g1
(g6
tRp2840
g179
F1
ss(S'and'
p2841
g1932
tp2842
g1
(g6
tRp2843
g2731
F1
ss(g1318
g540
tp2844
g1
(g6
tRp2845
g57
F1
ss(g1701
tp2846
g1
(g6
tRp2847
S'because'
p2848
F0.5
sg1704
F0.5
ss(g2259
tp2849
g1
(g6
tRp2850
g1530
F0.33333333333333331
sg711
F0.33333333333333331
sg1683
F0.33333333333333331
ss(S'opportunity'
p2851
S'to'
p2852
tp2853
g1
(g6
tRp2854
S'serve'
p2855
F1
ss(S'government'
p2856
S'themselves'
p2857
tp2858
g1
(g6
tRp2859
S''
F1
ss(g156
tp2860
g1
(g6
tRp2861
g157
F0.5
sg2789
F0.5
ss(S'non-'
p2862
S'violent,'
p2863
tp2864
g1
(g6
tRp2865
g2433
F1
ss(g1503
g1506
tp2866
g1
(g6
tRp2867
S'abiding,'
p2868
F1
ss(g396
g399
tp2869
g1
(g6
tRp2870
g900
F1
ss(S'Governor'
p2871
tp2872
g1
(g6
tRp2873
S'of'
p2874
F1
ss(S'drug'
p2875
g741
tp2876
g1
(g6
tRp2877
g742
F1
ss(g1485
g1594
tp2878
g1
(g6
tRp2879
S'our'
p2880
F1
ss(S'me'
p2881
S'and'
p2882
tp2883
g1
(g6
tRp2884
g1948
F1
ss(g258
tp2885
g1
(g6
tRp2886
g259
F0.5
sS'well'
p2887
F0.5
ss(g1854
S'in'
p2888
tp2889
g1
(g6
tRp2890
S'the'
p2891
F1
ss(g79
tp2892
g1
(g6
tRp2893
g82
F1
ss(g519
g522
tp2894
g1
(g6
tRp2895
S'think'
p2896
F1
ss(g2014
g2269
tp2897
g1
(g6
tRp2898
g1042
F1
ss(S'know'
p2899
S'my'
p2900
tp2901
g1
(g6
tRp2902
S'heart'
p2903
F1
ss(S'drug'
p2904
g1206
tp2905
g1
(g6
tRp2906
g1207
F1
ss(S'to'
p2907
S'be'
p2908
tp2909
g1
(g6
tRp2910
S'a'
F0.14285714285714288
sS'on'
p2911
F0.14285714285714288
sS'responsible'
p2912
F0.14285714285714288
sS'held'
p2913
F0.14285714285714288
sS'part'
p2914
F0.14285714285714288
sg1604
F0.14285714285714288
sg1962
F0.14285714285714288
ss(S'not'
p2915
S'from'
p2916
tp2917
g1
(g6
tRp2918
S'the'
p2919
F1
ss(S'Thank'
p2920
tp2921
g1
(g6
tRp2922
S'you'
p2923
F1
ss(g2379
tp2924
g1
(g6
tRp2925
S'to'
p2926
F1
ss(g1144
g759
tp2927
g1
(g6
tRp2928
g762
F1
ss(g1157
g1160
tp2929
g1
(g6
tRp2930
S'the'
p2931
F1
ss(S'a'
g2678
tp2932
g1
(g6
tRp2933
g2679
F1
ss(g2372
tp2934
g1
(g6
tRp2935
g2373
F0.5
sg2415
F0.5
ss(S'and'
p2936
g1946
tp2937
g1
(g6
tRp2938
g1335
F1
ss(g359
S'ago'
p2939
tp2940
g1
(g6
tRp2941
S''
F1
ss(S'a'
S'question'
p2942
tp2943
g1
(g6
tRp2944
S''
F1
ss(g2863
g2433
tp2945
g1
(g6
tRp2946
g2436
F1
ss(S'acted'
p2947
tp2948
g1
(g6
tRp2949
S'as'
p2950
F1
ss(g1105
S'what'
p2951
tp2952
g1
(g6
tRp2953
S'kind'
p2954
F1
ss(S'coal'
p2955
tp2956
g1
(g6
tRp2957
g2354
F1
ss(g1888
tp2958
g1
(g6
tRp2959
S'a'
F0.20833333333333334
sS'using'
p2960
F0.20833333333333334
sg1119
F0.58333333333333337
ss(g1655
tp2961
g1
(g6
tRp2962
g1658
F1
ss(g1237
S'but'
p2963
tp2964
g1
(g6
tRp2965
S'it'
p2966
F1
ss(g571
S'the'
p2967
tp2968
g1
(g6
tRp2969
g2656
F1
ss(g1938
S'employees'
p2970
tp2971
g1
(g6
tRp2972
S'than'
p2973
F1
ss(S'cannot'
p2974
S'do'
p2975
tp2976
g1
(g6
tRp2977
S'it'
p2978
F1
ss(S'issue,'
p2979
tp2980
g1
(g6
tRp2981
S'like'
p2982
F1
ss(S'a'
S'much'
p2983
tp2984
g1
(g6
tRp2985
S'different'
p2986
F1
ss(g276
g953
tp2987
g1
(g6
tRp2988
S'the'
p2989
F1
ss(S'know'
p2990
S'what'
p2991
tp2992
g1
(g6
tRp2993
S'the'
p2994
F1
ss(g1977
tp2995
g1
(g6
tRp2996
g1980
F1
ss(g2187
g2190
tp2997
g1
(g6
tRp2998
g1709
F1
ss(g136
tp2999
g1
(g6
tRp3000
g137
F1
ss(g1191
S'I'
tp3001
g1
(g6
tRp3002
S'believe'
p3003
F1
ss(g286
S'done'
p3004
tp3005
g1
(g6
tRp3006
g103
F1
ss(S'3'
g2372
tp3007
g1
(g6
tRp3008
g2373
F1
ss(S'be'
g1420
tp3009
g1
(g6
tRp3010
g1423
F1
ss(g1764
S'never'
p3011
tp3012
g1
(g6
tRp3013
S'been'
p3014
F1
ss(g2121
tp3015
g1
(g6
tRp3016
S'for'
p3017
F1
ss(S'should'
p3018
S'make'
p3019
tp3020
g1
(g6
tRp3021
S'these'
p3022
F1
ss(g563
tp3023
g1
(g6
tRp3024
g564
F1
ss(g1426
g2155
tp3025
g1
(g6
tRp3026
g1467
F0.5
sg2158
F0.5
ss(g1861
S'the'
p3027
tp3028
g1
(g6
tRp3029
g59
F1
ss(g963
tp3030
g1
(g6
tRp3031
g2482
F1
ss(g1588
tp3032
g1
(g6
tRp3033
g1339
F0.5
sg1429
F0.5
ss(S'that'
p3034
g1027
tp3035
g1
(g6
tRp3036
S'needs'
p3037
F1
ss(S'rights'
p3038
tp3039
g1
(g6
tRp3040
S'to'
p3041
F1
ss(S'42-year-old'
p3042
S'lawyer'
p3043
tp3044
g1
(g6
tRp3045
S'who'
p3046
F1
ss(S'for'
p3047
g1239
tp3048
g1
(g6
tRp3049
S'who'
p3050
F1
ss(g2891
g1497
tp3051
g1
(g6
tRp3052
g1498
F1
ss(g259
g262
tp3053
g1
(g6
tRp3054
g1582
F0.5
sS'take'
p3055
F0.5
ss(g974
g977
tp3056
g1
(g6
tRp3057
S''
F1
ss(g2573
g2576
tp3058
g1
(g6
tRp3059
S''
F1
ss(g1501
S'$70'
p3060
tp3061
g1
(g6
tRp3062
g2414
F1
ss(S'what'
p3063
S'they'
p3064
tp3065
g1
(g6
tRp3066
g468
F0.33333333333333331
sS"didn't"
p3067
F0.33333333333333331
sg466
F0.33333333333333331
ss(S'did,'
p3068
tp3069
g1
(g6
tRp3070
S'you'
p3071
F1
ss(S'The'
p3072
S'fact'
p3073
tp3074
g1
(g6
tRp3075
g652
F0.25714285714285712
sg1750
F0.25714285714285712
sS'is,'
p3076
F0.48571428571428577
ss(g686
g461
tp3077
g1
(g6
tRp3078
S'out'
p3079
F1
ss(g1355
tp3080
g1
(g6
tRp3081
g1114
F0.11038961038961038
sg1967
F0.037337662337662336
sg1433
F0.037337662337662336
sS"I've"
p3082
F0.037337662337662336
sS'I'
F0.037337662337662336
sS"we've"
p3083
F0.037337662337662336
sg1116
F0.11038961038961038
sg1356
F0.11038961038961038
sg450
F0.037337662337662336
sS'to'
p3084
F0.037337662337662336
sg1550
F0.037337662337662336
sg2133
F0.037337662337662336
sg1363
F0.073863636363636367
sg3064
F0.11038961038961038
sg2994
F0.073863636363636367
sg290
F0.037337662337662336
sg21
F0.037337662337662336
ss(S"don't"
p3085
tp3086
g1
(g6
tRp3087
S''
F0.25
sS'come'
p3088
F0.25
sg43
F0.25
sg44
F0.25
ss(S'evaluates'
p3089
tp3090
g1
(g6
tRp3091
S'him'
p3092
F1
ss(S'in'
p3093
S'New'
p3094
tp3095
g1
(g6
tRp3096
g786
F0.22500000000000001
sS'Jersey'
p3097
F0.55000000000000004
sS'Hampshire'
p3098
F0.22500000000000001
ss(g3082
g100
tp3099
g1
(g6
tRp3100
S''
F1
ss(S'I'
tp3101
g1
(g6
tRp3102
g800
F0.084651898734177264
sS'proposed'
p3103
F0.021360759493670892
sg1101
F0.021360759493670892
sg2043
F0.021360759493670892
sS'have'
p3104
F0.021360759493670892
sg1769
F0.021360759493670892
sg2041
F0.021360759493670892
sg3003
F0.021360759493670892
sg2516
F0.10574894514767938
sg40
F0.063554852320675134
sS'actually'
p3105
F0.021360759493670892
sS'won'
p3106
F0.021360759493670892
sS'take'
p3107
F0.021360759493670892
sg2522
F0.021360759493670892
sg90
F0.021360759493670892
sg495
F0.021360759493670892
sg2380
F0.042457805907173019
sg722
F0.021360759493670892
sS'get'
p3108
F0.021360759493670892
sg2044
F0.021360759493670892
sg326
F0.021360759493670892
sg2042
F0.021360759493670892
sg2820
F0.042457805907173019
sS'--'
p3109
F0.021360759493670892
sS'drop'
p3110
F0.021360759493670892
sS'spent'
p3111
F0.021360759493670892
sS'walked'
p3112
F0.021360759493670892
sS'will'
p3113
F0.021360759493670892
sS'believed'
p3114
F0.021360759493670892
sg2467
F0.042457805907173019
sg1371
F0.084651898734177264
sS"can't"
p3115
F0.021360759493670892
ss(g2478
tp3116
g1
(g6
tRp3117
g2479
F1
ss(S'be'
p3118
S'discriminated'
p3119
tp3120
g1
(g6
tRp3121
g1442
F1
ss(g2603
tp3122
g1
(g6
tRp3123
g2606
F1
ss(S'women'
p3124
S'in'
p3125
tp3126
g1
(g6
tRp3127
S'this'
p3128
F0.5
sS'our'
p3129
F0.5
ss(g1541
tp3130
g1
(g6
tRp3131
g2187
F0.25
sg508
F0.25
sg1210
F0.25
sg603
F0.25
ss(g2441
g99
tp3132
g1
(g6
tRp3133
g1169
F1
ss(g2766
S'the'
p3134
tp3135
g1
(g6
tRp3136
S'Hezbollah'
p3137
F1
ss(S'permitted'
p3138
S'to'
p3139
tp3140
g1
(g6
tRp3141
S'do'
p3142
F1
ss(S'heck'
p3143
S'of'
p3144
tp3145
g1
(g6
tRp3146
S'it,'
p3147
F1
ss(S'somehow'
p3148
S'disembodied'
p3149
tp3150
g1
(g6
tRp3151
S'from'
p3152
F1
ss(S'and'
p3153
g1933
tp3154
g1
(g6
tRp3155
S'impregnated'
p3156
F1
ss(g2234
g2054
tp3157
g1
(g6
tRp3158
g2055
F1
ss(g1967
tp3159
g1
(g6
tRp3160
g675
F0.091666666666666674
sS'family'
p3161
F0.091666666666666674
sg442
F0.091666666666666674
sS'advisers'
p3162
F0.091666666666666674
sS'bill'
p3163
F0.26666666666666666
sg676
F0.091666666666666674
sS'idea'
p3164
F0.091666666666666674
sS'talking'
p3165
F0.091666666666666674
sg706
F0.091666666666666674
ss(g40
g43
tp3166
g1
(g6
tRp3167
S'it'
p3168
F1
ss(S'chance'
p3169
S'to'
p3170
tp3171
g1
(g6
tRp3172
g1608
F1
ss(S'the'
p3173
g992
tp3174
g1
(g6
tRp3175
g995
F1
ss(S'The'
S'shame'
p3176
tp3177
g1
(g6
tRp3178
S'is'
p3179
F1
ss(g3042
tp3180
g1
(g6
tRp3181
g3043
F1
ss(S'the'
S'county'
p3182
tp3183
g1
(g6
tRp3184
g2756
F1
ss(g643
g646
tp3185
g1
(g6
tRp3186
g333
F1
ss(S'growth'
p3187
tp3188
g1
(g6
tRp3189
S'in'
p3190
F1
ss(g1605
g489
tp3191
g1
(g6
tRp3192
g490
F0.355263157894737
sS'matter'
p3193
F0.092105263157894759
sg1280
F0.092105263157894759
sS'people'
p3194
F0.092105263157894759
sg3182
F0.092105263157894759
sS'most'
p3195
F0.092105263157894759
sS'religious'
p3196
F0.092105263157894759
sg2160
F0.092105263157894759
ss(g195
S'a'
tp3197
g1
(g6
tRp3198
S'different'
p3199
F0.5
sg2024
F0.5
ss(S'three'
p3200
S'years'
p3201
tp3202
g1
(g6
tRp3203
S'ago,'
p3204
F1
ss(g207
g1935
tp3205
g1
(g6
tRp3206
g905
F1
ss(S'Well,'
g35
tp3207
g1
(g6
tRp3208
g36
F1
ss(S'They'
g781
tp3209
g1
(g6
tRp3210
g775
F1
ss(S'record'
p3211
S'in'
p3212
tp3213
g1
(g6
tRp3214
S'there,'
p3215
F0.5
sS'New'
p3216
F0.5
ss(S'country'
g2666
tp3217
g1
(g6
tRp3218
S'to'
p3219
F1
ss(g1362
g1942
tp3220
g1
(g6
tRp3221
S'the'
p3222
F1
ss(g387
tp3223
g1
(g6
tRp3224
g2827
F0.34999999999999998
sS'knows'
p3225
F0.65000000000000002
ss(S'why'
p3226
S"you're"
p3227
tp3228
g1
(g6
tRp3229
S'wrong'
p3230
F1
ss(S'Jersey'
g406
tp3231
g1
(g6
tRp3232
S'the'
p3233
F1
ss(S'quarantined'
p3234
S'her,'
p3235
tp3236
g1
(g6
tRp3237
S'she'
p3238
F1
ss(S'how'
p3239
tp3240
g1
(g6
tRp3241
S'to'
p3242
F0.33333333333333331
sS'great'
p3243
F0.33333333333333331
sg212
F0.33333333333333331
ss(S'ESP'
p3244
S'also'
p3245
tp3246
g1
(g6
tRp3247
S''
F1
ss(S'70'
p3248
S'days'
p3249
tp3250
g1
(g6
tRp3251
S'here'
p3252
F1
ss(g1941
S'the'
p3253
tp3254
g1
(g6
tRp3255
S'secretary'
p3256
F1
ss(S'politics,'
p3257
S'not'
p3258
tp3259
g1
(g6
tRp3260
g2311
F1
ss(g2720
tp3261
g1
(g6
tRp3262
S"John's"
p3263
F1
ss(S'daughters'
p3264
g2230
tp3265
g1
(g6
tRp3266
S'from'
p3267
F1
ss(S'was'
p3268
S'his'
p3269
tp3270
g1
(g6
tRp3271
S'bill'
p3272
F0.5
sg3164
F0.5
ss(g2551
g1566
tp3273
g1
(g6
tRp3274
g1569
F1
ss(g3196
g836
tp3275
g1
(g6
tRp3276
g837
F1
ss(S'percent,'
p3277
S'I'
tp3278
g1
(g6
tRp3279
g2812
F1
ss(S'waiting'
p3280
S'in'
p3281
tp3282
g1
(g6
tRp3283
S'line'
p3284
F1
ss(S'government'
p3285
g2244
tp3286
g1
(g6
tRp3287
S'they'
p3288
F1
ss(g817
S'I'
tp3289
g1
(g6
tRp3290
g3115
F1
ss(S'When'
g150
tp3291
g1
(g6
tRp3292
g656
F1
ss(S'closed'
p3293
S'the'
p3294
tp3295
g1
(g6
tRp3296
S'state'
p3297
F0.5
sg3285
F0.5
ss(g347
g663
tp3298
g1
(g6
tRp3299
g467
F1
ss(S'And'
S'when'
p3300
tp3301
g1
(g6
tRp3302
S'the'
p3303
F1
ss(g1691
g1694
tp3304
g1
(g6
tRp3305
S'to'
p3306
F1
ss(g1034
tp3307
g1
(g6
tRp3308
S''
F1
ss(g1809
g1815
tp3309
g1
(g6
tRp3310
S'be'
p3311
F1
ss(g463
tp3312
g1
(g6
tRp3313
S'I'
F1
ss(S'you'
p3314
S'give'
p3315
tp3316
g1
(g6
tRp3317
g1104
F1
ss(S'active'
p3318
tp3319
g1
(g6
tRp3320
g111
F1
ss(S'state'
p3321
g1595
tp3322
g1
(g6
tRp3323
g1998
F1
ss(S'the'
p3324
g885
tp3325
g1
(g6
tRp3326
S'of'
p3327
F0.65000000000000002
sg2106
F0.34999999999999998
ss(g494
S'when'
p3328
tp3329
g1
(g6
tRp3330
S"you're"
p3331
F1
ss(S'tenure,'
p3332
S'I'
tp3333
g1
(g6
tRp3334
g2522
F1
ss(S'goes'
p3335
tp3336
g1
(g6
tRp3337
S'to'
p3338
F1
ss(g1545
g1548
tp3339
g1
(g6
tRp3340
S'from'
p3341
F1
ss(S'She'
p3342
S'was'
p3343
tp3344
g1
(g6
tRp3345
S'showing'
p3346
F1
ss(g1026
tp3347
g1
(g6
tRp3348
S'who'
p3349
F1
ss(S'heard'
p3350
tp3351
g1
(g6
tRp3352
g1697
F0.5
sS'it'
p3353
F0.5
ss(S"I'm"
p3354
S'pro-life'
p3355
tp3356
g1
(g6
tRp3357
S''
F0.26666666666666666
sg682
F0.73333333333333328
ss(g775
S'a'
tp3358
g1
(g6
tRp3359
g1275
F1
ss(S'teacher'
p3360
tp3361
g1
(g6
tRp3362
g3332
F1
ss(g356
tp3363
g1
(g6
tRp3364
S''
F0.5
sg359
F0.5
ss(g3068
g3071
tp3365
g1
(g6
tRp3366
g2256
F1
ss(g1259
g1262
tp3367
g1
(g6
tRp3368
g1870
F1
ss(g2276
tp3369
g1
(g6
tRp3370
S''
F0.34999999999999998
sS'is'
p3371
F0.65000000000000002
ss(S'from'
p3372
S'these'
p3373
tp3374
g1
(g6
tRp3375
S'folks'
p3376
F1
ss(g2763
tp3377
g1
(g6
tRp3378
g2766
F1
ss(S'the'
p3379
g1185
tp3380
g1
(g6
tRp3381
g568
F0.61616161616161613
sg2657
F0.13131313131313133
sg1186
F0.25252525252525249
ss(g2837
tp3382
g1
(g6
tRp3383
g2297
F0.12698412698412698
sg152
F0.12698412698412698
sS'life'
p3384
F0.12698412698412698
sg1646
F0.12698412698412698
sg393
F0.12698412698412698
sg681
F0.36507936507936506
ss(g1283
S'get'
p3385
tp3386
g1
(g6
tRp3387
S'as'
p3388
F1
ss(g3238
g2333
tp3389
g1
(g6
tRp3390
g2334
F1
ss(g155
tp3391
g1
(g6
tRp3392
g1202
F1
ss(g2433
g2436
tp3393
g1
(g6
tRp3394
g2904
F1
ss(S'back,'
p3395
S'it'
p3396
tp3397
g1
(g6
tRp3398
g286
F1
ss(S'be'
p3399
g1604
tp3400
g1
(g6
tRp3401
g1605
F1
ss(S'--'
p3402
S'closed'
p3403
tp3404
g1
(g6
tRp3405
S'a'
F1
ss(g553
S'that'
p3406
tp3407
g1
(g6
tRp3408
S'is'
p3409
F1
ss(g1805
tp3410
g1
(g6
tRp3411
g1808
F1
ss(g2350
S'solutions'
p3412
tp3413
g1
(g6
tRp3414
S'to'
p3415
F1
ss(g2509
S'why'
p3416
tp3417
g1
(g6
tRp3418
S'this'
p3419
F0.5
sg3227
F0.5
ss(g3284
g3047
tp3420
g1
(g6
tRp3421
g1239
F1
ss(g3098
g440
tp3422
g1
(g6
tRp3423
S'their'
p3424
F1
ss(S'not'
p3425
S'pay'
p3426
tp3427
g1
(g6
tRp3428
g1705
F1
ss(g3043
tp3429
g1
(g6
tRp3430
g3046
F1
ss(g3060
tp3431
g1
(g6
tRp3432
g2414
F1
ss(S'last'
p3433
g1574
tp3434
g1
(g6
tRp3435
S'is'
p3436
F1
ss(S'is'
p3437
g2211
tp3438
g1
(g6
tRp3439
g2212
F1
ss(S'and'
p3440
g1951
tp3441
g1
(g6
tRp3442
S'a'
F1
ss(S'know'
p3443
S'how'
p3444
tp3445
g1
(g6
tRp3446
g3242
F1
ss(S'And'
g1476
tp3447
g1
(g6
tRp3448
g1477
F1
ss(S'act'
p3449
S'as'
p3450
tp3451
g1
(g6
tRp3452
g1230
F1
ss(S'experience'
p3453
g936
tp3454
g1
(g6
tRp3455
g313
F1
ss(g3349
S'was'
p3456
tp3457
g1
(g6
tRp3458
S'a'
F0.5
sg1348
F0.5
ss(S'who'
p3459
S'have'
p3460
tp3461
g1
(g6
tRp3462
S'given'
p3463
F0.5
sg2668
F0.5
ss(g1954
tp3464
g1
(g6
tRp3465
S'his'
p3466
F1
ss(g1202
g1248
tp3467
g1
(g6
tRp3468
g1990
F1
ss(S'watching'
p3469
tp3470
g1
(g6
tRp3471
S'tonight'
p3472
F1
ss(g1376
S'mentioned'
p3473
tp3474
g1
(g6
tRp3475
g2881
F1
ss(g2078
g2081
tp3476
g1
(g6
tRp3477
S'talked'
p3478
F1
ss(S'alright'
p3479
tp3480
g1
(g6
tRp3481
S''
F1
ss(g2609
g1062
tp3482
g1
(g6
tRp3483
g1063
F1
ss(g1295
g1298
tp3484
g1
(g6
tRp3485
S'my'
p3486
F1
ss(S'symptoms,'
p3487
S'and'
p3488
tp3489
g1
(g6
tRp3490
g1952
F1
ss(g1124
tp3491
g1
(g6
tRp3492
g1098
F0.34999999999999998
sS'anything'
p3493
F0.65000000000000002
ss(g3412
tp3494
g1
(g6
tRp3495
g3415
F1
ss(g3194
g2014
tp3496
g1
(g6
tRp3497
g2269
F1
ss(g1942
g3222
tp3498
g1
(g6
tRp3499
S'Mets'
p3500
F1
ss(g1617
tp3501
g1
(g6
tRp3502
g1618
F1
ss(S'whether'
p3503
S'you'
p3504
tp3505
g1
(g6
tRp3506
S'are'
p3507
F1
ss(g3037
S'to'
p3508
tp3509
g1
(g6
tRp3510
S'be'
p3511
F1
ss(g808
S'country,'
p3512
tp3513
g1
(g6
tRp3514
S'and'
p3515
F1
ss(g239
g242
tp3516
g1
(g6
tRp3517
g354
F1
ss(S"We've"
S'now'
p3518
tp3519
g1
(g6
tRp3520
g69
F1
ss(g2042
tp3521
g1
(g6
tRp3522
g2399
F1
ss(S'most'
p3523
S'radical'
p3524
tp3525
g1
(g6
tRp3526
S'type'
p3527
F1
ss(S'individual'
p3528
S'gift'
p3529
tp3530
g1
(g6
tRp3531
g2724
F1
ss(g1310
g318
tp3532
g1
(g6
tRp3533
g216
F1
ss(g1220
g1223
tp3534
g1
(g6
tRp3535
S''
F0.5
sg1403
F0.5
ss(S'of'
p3536
S'situations'
p3537
tp3538
g1
(g6
tRp3539
S'like'
p3540
F1
ss(S'for'
p3541
g1236
tp3542
g1
(g6
tRp3543
g1163
F1
ss(g567
g832
tp3544
g1
(g6
tRp3545
S''
F1
ss(g1210
g3335
tp3546
g1
(g6
tRp3547
g3338
F1
ss(g2513
tp3548
g1
(g6
tRp3549
g763
F1
ss(S"We've"
g1331
tp3550
g1
(g6
tRp3551
g1334
F1
ss(S'a'
tp3552
g1
(g6
tRp3553
g1196
F0.035598705501618137
sS'pizza,'
p3554
F0.017884517118037818
sS'people'
p3555
F0.017884517118037818
sg1275
F0.017884517118037818
sg630
F0.017884517118037818
sS'second'
p3556
F0.017884517118037818
sg1713
F0.035598705501618137
sg1798
F0.017884517118037818
sg2784
F0.035598705501618137
sS'governor,'
p3557
F0.017884517118037818
sg667
F0.017884517118037818
sg2024
F0.017884517118037818
sg221
F0.017884517118037818
sg3199
F0.017884517118037818
sS'strong'
p3558
F0.017884517118037818
sg626
F0.017884517118037818
sg2862
F0.017884517118037818
sg2942
F0.017884517118037818
sS'state'
p3559
F0.017884517118037818
sg1588
F0.035598705501618137
sg1347
F0.017884517118037818
sg2983
F0.035598705501618137
sg2678
F0.017884517118037818
sg726
F0.017884517118037818
sg2061
F0.017884517118037818
sg225
F0.017884517118037818
sg1635
F0.017884517118037818
sS'woman'
p3560
F0.035598705501618137
sg2114
F0.017884517118037818
sg2856
F0.017884517118037818
sg2452
F0.035598705501618137
sg132
F0.017884517118037818
sg2422
F0.017884517118037818
sg3169
F0.017884517118037818
sS'U'
F0.017884517118037818
sS'birth'
p3561
F0.017884517118037818
sS'law'
p3562
F0.035598705501618137
sS'former'
p3563
F0.017884517118037818
sg737
F0.017884517118037818
sg2788
F0.017884517118037818
sg383
F0.017884517118037818
sg1778
F0.017884517118037818
sg48
F0.017884517118037818
sg1087
F0.035598705501618137
sg2875
F0.017884517118037818
sg1309
F0.017884517118037818
sg1471
F0.017884517118037818
ss(g1837
g3200
tp3564
g1
(g6
tRp3565
g3201
F1
ss(S'was'
p3566
tp3567
g1
(g6
tRp3568
S'a'
F0.10227272727272728
sg3269
F0.19886363636363635
sg1348
F0.29545454545454547
sg3148
F0.10227272727272728
sg1782
F0.19886363636363635
sS'not'
p3569
F0.10227272727272728
ss(g925
g1737
tp3570
g1
(g6
tRp3571
S'48'
p3572
F1
ss(g2772
S'in'
p3573
tp3574
g1
(g6
tRp3575
S'the'
p3576
F1
ss(g3306
g2899
tp3577
g1
(g6
tRp3578
g2900
F1
ss(g1207
g1210
tp3579
g1
(g6
tRp3580
g3335
F1
ss(g1808
g330
tp3581
g1
(g6
tRp3582
g106
F1
ss(g1998
tp3583
g1
(g6
tRp3584
g1999
F1
ss(g2178
tp3585
g1
(g6
tRp3586
S''
F1
ss(g1150
tp3587
g1
(g6
tRp3588
g1153
F0.33333333333333331
sg31
F0.33333333333333331
sg3248
F0.33333333333333331
ss(S'last'
p3589
g1572
tp3590
g1
(g6
tRp3591
g2700
F1
ss(S'has'
p3592
g888
tp3593
g1
(g6
tRp3594
g889
F1
ss(g578
g581
tp3595
g1
(g6
tRp3596
S'things'
p3597
F1
ss(g1902
tp3598
g1
(g6
tRp3599
g1865
F1
ss(g255
tp3600
g1
(g6
tRp3601
S''
F1
ss(g3554
tp3602
g1
(g6
tRp3603
g1344
F1
ss(S'of'
p3604
S'children'
p3605
tp3606
g1
(g6
tRp3607
S'in'
p3608
F1
ss(g2376
g1002
tp3609
g1
(g6
tRp3610
S'10,000'
p3611
F0.33333333333333331
sg309
F0.33333333333333331
sg2110
F0.33333333333333331
ss(g2920
g2923
tp3612
g1
(g6
tRp3613
S''
F1
ss(g868
tp3614
g1
(g6
tRp3615
g1800
F0.10101010101010104
sg2807
F0.29292929292929298
sS'that'
p3616
F0.10101010101010104
sg3068
F0.10101010101010104
sg2149
F0.10101010101010104
sg871
F0.10101010101010104
sg3449
F0.10101010101010104
sg2148
F0.10101010101010104
ss(S'guess'
p3617
g3063
tp3618
g1
(g6
tRp3619
g3064
F1
ss(g167
g170
tp3620
g1
(g6
tRp3621
g877
F0.5
sg2102
F0.5
ss(g2133
g2136
tp3622
g1
(g6
tRp3623
S''
F1
ss(S'the'
p3624
g2295
tp3625
g1
(g6
tRp3626
S'in'
p3627
F1
ss(S'hours,'
p3628
tp3629
g1
(g6
tRp3630
S'and'
p3631
F1
ss(g2914
S'of'
p3632
tp3633
g1
(g6
tRp3634
S'a'
F1
ss(S'any'
p3635
S'state'
p3636
tp3637
g1
(g6
tRp3638
S''
F1
ss(g3488
g1952
tp3639
g1
(g6
tRp3640
S'law'
p3641
F0.33333333333333331
sS'problems'
p3642
F0.33333333333333331
sS'fact'
p3643
F0.33333333333333331
ss(g1716
tp3644
g1
(g6
tRp3645
S'but'
p3646
F1
ss(g233
S'for'
p3647
tp3648
g1
(g6
tRp3649
S'the'
p3650
F1
ss(g221
g224
tp3651
g1
(g6
tRp3652
S'will'
p3653
F1
ss(g2212
tp3654
g1
(g6
tRp3655
g2215
F1
ss(S'American'
p3656
S'history'
p3657
tp3658
g1
(g6
tRp3659
S''
F1
ss(g1548
g3341
tp3660
g1
(g6
tRp3661
g1674
F1
ss(g1413
g2838
tp3662
g1
(g6
tRp3663
g3321
F1
ss(g446
g449
tp3664
g1
(g6
tRp3665
g1409
F1
ss(g354
tp3666
g1
(g6
tRp3667
S''
F1
ss(S'we'
p3668
g2974
tp3669
g1
(g6
tRp3670
g2975
F1
ss(g901
g904
tp3671
g1
(g6
tRp3672
g1258
F1
ss(S'morning,'
p3673
tp3674
g1
(g6
tRp3675
S'when'
p3676
F1
ss(S"American's"
p3677
tp3678
g1
(g6
tRp3679
S'sovereign'
p3680
F1
ss(g3537
tp3681
g1
(g6
tRp3682
g3540
F1
ss(S'a'
g383
tp3683
g1
(g6
tRp3684
g384
F1
ss(g1498
tp3685
g1
(g6
tRp3686
g1501
F1
ss(g1943
g2310
tp3687
g1
(g6
tRp3688
g1621
F1
ss(g3195
tp3689
g1
(g6
tRp3690
g2769
F0.5
sg3524
F0.5
ss(S'show'
p3691
tp3692
g1
(g6
tRp3693
g208
F1
ss(S'a'
g3560
tp3694
g1
(g6
tRp3695
g84
F0.5
sS'has'
p3696
F0.5
ss(S'Close'
p3697
tp3698
g1
(g6
tRp3699
S'down'
p3700
F1
ss(g1673
S'the'
p3701
tp3702
g1
(g6
tRp3703
S'people'
p3704
F1
ss(g3108
S'a'
tp3705
g1
(g6
tRp3706
g3169
F1
ss(g3303
g886
tp3707
g1
(g6
tRp3708
g1600
F1
ss(g1175
tp3709
g1
(g6
tRp3710
S''
F0.5
sg1178
F0.5
ss(g2141
S'they'
p3711
tp3712
g1
(g6
tRp3713
S'need'
p3714
F1
ss(g2363
g2366
tp3715
g1
(g6
tRp3716
g1651
F1
ss(g1569
g1925
tp3717
g1
(g6
tRp3718
g1936
F1
ss(g1225
tp3719
g1
(g6
tRp3720
g1226
F1
ss(S'Good'
p3721
tp3722
g1
(g6
tRp3723
S'evening'
p3724
F1
ss(g2831
S'even'
p3725
tp3726
g1
(g6
tRp3727
g711
F1
ss(g1934
g78
tp3728
g1
(g6
tRp3729
g79
F1
ss(g2429
g2432
tp3730
g1
(g6
tRp3731
S'America,'
p3732
F1
ss(g50
tp3733
g1
(g6
tRp3734
g53
F1
ss(g3288
g463
tp3735
g1
(g6
tRp3736
S'I'
F1
ss(g3234
tp3737
g1
(g6
tRp3738
g3235
F1
ss(g3089
g3092
tp3739
g1
(g6
tRp3740
S'is'
p3741
F1
ss(S'New'
p3742
g786
tp3743
g1
(g6
tRp3744
g2226
F0.5
sg2227
F0.5
ss(S'years,'
p3745
S'2015'
p3746
tp3747
g1
(g6
tRp3748
S'in'
p3749
F1
ss(g2603
g2606
tp3750
g1
(g6
tRp3751
S'a'
F1
ss(S'States'
S'raised'
p3752
tp3753
g1
(g6
tRp3754
g2709
F1
ss(g2802
g835
tp3755
g1
(g6
tRp3756
S'clear'
p3757
F1
ss(g1335
g3173
tp3758
g1
(g6
tRp3759
g992
F1
ss(g792
S'a'
tp3760
g1
(g6
tRp3761
g383
F1
ss(S'to'
g1686
tp3762
g1
(g6
tRp3763
g1687
F1
ss(g1028
tp3764
g1
(g6
tRp3765
g2037
F1
ss(g1673
tp3766
g1
(g6
tRp3767
g3701
F1
ss(g189
g3566
tp3768
g1
(g6
tRp3769
g3148
F1
ss(S'None'
p3770
S'of'
p3771
tp3772
g1
(g6
tRp3773
S'that'
p3774
F1
ss(g2113
g1765
tp3775
g1
(g6
tRp3776
g1768
F1
ss(g587
g831
tp3777
g1
(g6
tRp3778
S'can'
p3779
F1
ss(g1009
tp3780
g1
(g6
tRp3781
S'I'
F0.5
sg457
F0.5
ss(g299
tp3782
g1
(g6
tRp3783
g908
F0.5
sS'one'
p3784
F0.5
ss(g1800
g1803
tp3785
g1
(g6
tRp3786
S'to'
p3787
F1
ss(g170
tp3788
g1
(g6
tRp3789
g877
F0.65000000000000002
sg2102
F0.34999999999999998
ss(g2051
tp3790
g1
(g6
tRp3791
S'this'
p3792
F0.25
sS'the'
p3793
F0.25
sg1233
F0.25
sg937
F0.25
ss(S'of'
p3794
S'self-defense'
p3795
tp3796
g1
(g6
tRp3797
S'by'
p3798
F1
ss(g1019
tp3799
g1
(g6
tRp3800
S'percent'
p3801
F0.5
sg3277
F0.5
ss(S'credit'
p3802
S'for'
p3803
tp3804
g1
(g6
tRp3805
g441
F1
ss(S'taxes'
p3806
S'in'
p3807
tp3808
g1
(g6
tRp3809
S'my'
p3810
F1
ss(g1881
g418
tp3811
g1
(g6
tRp3812
g421
F1
ss(g44
tp3813
g1
(g6
tRp3814
g2545
F1
ss(g2282
g2285
tp3815
g1
(g6
tRp3816
S'governor'
p3817
F1
ss(g789
g792
tp3818
g1
(g6
tRp3819
S'a'
F1
ss(g137
g140
tp3820
g1
(g6
tRp3821
S'you'
p3822
F1
ss(g183
g189
tp3823
g1
(g6
tRp3824
g3566
F1
ss(g3233
S'second'
p3825
tp3826
g1
(g6
tRp3827
S'largest'
p3828
F1
ss(S'mansion,'
p3829
S'order'
p3830
tp3831
g1
(g6
tRp3832
S'a'
F1
ss(S'failing,'
p3833
tp3834
g1
(g6
tRp3835
S"it's"
p3836
F1
ss(g1618
g607
tp3837
g1
(g6
tRp3838
g610
F1
ss(S'make'
p3839
S'the'
p3840
tp3841
g1
(g6
tRp3842
S'same'
p3843
F1
ss(g1019
g3277
tp3844
g1
(g6
tRp3845
S'I'
F1
ss(g494
tp3846
g1
(g6
tRp3847
g1140
F0.5
sg3328
F0.5
ss(g1812
tp3848
g1
(g6
tRp3849
S'for'
p3850
F1
ss(g1086
S'his'
p3851
tp3852
g1
(g6
tRp3853
g3163
F1
ss(S'not'
p3854
g1225
tp3855
g1
(g6
tRp3856
g1226
F1
ss(g3566
g3148
tp3857
g1
(g6
tRp3858
g3149
F1
ss(g2666
g3219
tp3859
g1
(g6
tRp3860
g2675
F0.5
sS'have'
p3861
F0.5
ss(g2075
g1864
tp3862
g1
(g6
tRp3863
g1891
F1
ss(S'Not'
p3864
g2066
tp3865
g1
(g6
tRp3866
g2067
F1
ss(S'union'
p3867
tp3868
g1
(g6
tRp3869
S''
F1
ss(g1864
g1891
tp3870
g1
(g6
tRp3871
g1892
F1
ss(g2114
tp3872
g1
(g6
tRp3873
g804
F1
ss(g1814
tp3874
g1
(g6
tRp3875
S'Reagan,'
p3876
F1
ss(g1313
g1316
tp3877
g1
(g6
tRp3878
g2455
F0.5
sg2240
F0.5
ss(g3165
tp3879
g1
(g6
tRp3880
S'about'
p3881
F0.5
sg2384
F0.5
ss(S'had'
p3882
tp3883
g1
(g6
tRp3884
S'a'
F0.12698412698412698
sg107
F0.24603174603174605
sS'been'
p3885
F0.12698412698412698
sg2907
F0.12698412698412698
sg216
F0.24603174603174605
sg862
F0.12698412698412698
ss(g2871
g2874
tp3886
g1
(g6
tRp3887
S'New'
p3888
F1
ss(S'actually'
p3889
S'elected'
p3890
tp3891
g1
(g6
tRp3892
S'me'
p3893
F1
ss(g3825
g3828
tp3894
g1
(g6
tRp3895
S'Muslim-'
p3896
F1
ss(S'our'
p3897
g3264
tp3898
g1
(g6
tRp3899
g2005
F0.5
sg2230
F0.5
ss(g1948
tp3900
g1
(g6
tRp3901
S'predecessor'
p3902
F0.063725490196078427
sg2903
F0.063725490196078427
sg1484
F0.125
sg1820
F0.063725490196078427
sg1067
F0.063725490196078427
sg1458
F0.063725490196078427
sg3211
F0.18627450980392157
sg1591
F0.37009803921568629
ss(S'to'
p3903
S'think'
p3904
tp3905
g1
(g6
tRp3906
g2071
F1
ss(g742
tp3907
g1
(g6
tRp3908
g634
F1
ss(g2296
S'Koreans,'
p3909
tp3910
g1
(g6
tRp3911
S'but'
p3912
F1
ss(g1949
tp3913
g1
(g6
tRp3914
g2592
F1
ss(g2621
tp3915
g1
(g6
tRp3916
g912
F1
ss(S'acceptable'
p3917
tp3918
g1
(g6
tRp3919
g730
F1
ss(g3043
g3046
tp3920
g1
(g6
tRp3921
g116
F1
ss(g1410
g1415
tp3922
g1
(g6
tRp3923
g2663
F1
ss(S'that'
p3924
g1032
tp3925
g1
(g6
tRp3926
g2513
F0.34999999999999998
sg2109
F0.65000000000000002
ss(g1288
S'what'
p3927
tp3928
g1
(g6
tRp3929
S'we'
p3930
F1
ss(S'is'
p3931
S'a'
tp3932
g1
(g6
tRp3933
g1588
F0.25
sg83
F0.25
sg1087
F0.25
sg3561
F0.25
ss(g414
tp3934
g1
(g6
tRp3935
g415
F1
ss(g3215
S'so'
p3936
tp3937
g1
(g6
tRp3938
S'I'
F1
ss(S'the'
p3939
S'floor'
p3940
tp3941
g1
(g6
tRp3942
S'of'
p3943
F1
ss(S'One'
p3944
g2695
tp3945
g1
(g6
tRp3946
g1452
F1
ss(g3876
S'that'
p3947
tp3948
g1
(g6
tRp3949
S'we'
p3950
F1
ss(S'problems'
p3951
g3327
tp3952
g1
(g6
tRp3953
g2637
F0.5
sS'your'
p3954
F0.5
ss(g3493
g1956
tp3955
g1
(g6
tRp3956
g1957
F1
ss(g21
g24
tp3957
g1
(g6
tRp3958
S'that'
p3959
F1
ss(g2823
g1884
tp3960
g1
(g6
tRp3961
g1885
F1
ss(g2027
g1976
tp3962
g1
(g6
tRp3963
g1977
F1
ss(g706
g710
tp3964
g1
(g6
tRp3965
g1135
F1
ss(g3353
g276
tp3966
g1
(g6
tRp3967
g953
F1
ss(S'this'
p3968
g2979
tp3969
g1
(g6
tRp3970
g2982
F1
ss(S'time'
g966
tp3971
g1
(g6
tRp3972
g714
F1
ss(g1944
g460
tp3973
g1
(g6
tRp3974
g3293
F1
ss(g3611
g1804
tp3975
g1
(g6
tRp3976
g1805
F1
ss(g1658
g290
tp3977
g1
(g6
tRp3978
g291
F1
ss(g2226
tp3979
g1
(g6
tRp3980
S''
F1
ss(S'stage'
g1224
tp3981
g1
(g6
tRp3982
g1028
F1
ss(g804
tp3983
g1
(g6
tRp3984
g805
F1
ss(g792
tp3985
g1
(g6
tRp3986
S'a'
F1
ss(g334
tp3987
g1
(g6
tRp3988
g337
F0.34999999999999998
sS'years'
p3989
F0.65000000000000002
ss(g1833
g1370
tp3990
g1
(g6
tRp3991
g550
F1
ss(S'a'
g3555
tp3992
g1
(g6
tRp3993
S'that'
p3994
F1
ss(g1058
tp3995
g1
(g6
tRp3996
g3440
F0.14583333333333334
sg526
F0.28125
sS'there'
p3997
F0.28125
sg1061
F0.14583333333333334
sg2337
F0.14583333333333334
ss(g2862
tp3998
g1
(g6
tRp3999
g2863
F1
ss(S'deal'
p4000
tp4001
g1
(g6
tRp4002
g2291
F1
ss(S'is'
S'the'
p4003
tp4004
g1
(g6
tRp4005
g3825
F0.33333333333333331
sS'difference'
p4006
F0.33333333333333331
sg2216
F0.33333333333333331
ss(S'the'
p4007
S"governor's"
p4008
tp4009
g1
(g6
tRp4010
g3829
F1
ss(S'But'
p4011
g2716
tp4012
g1
(g6
tRp4013
g2717
F1
ss(S'really'
S'clear'
p4014
tp4015
g1
(g6
tRp4016
S'on'
p4017
F1
ss(g263
tp4018
g1
(g6
tRp4019
g264
F1
ss(S'and'
p4020
g200
tp4021
g1
(g6
tRp4022
g201
F1
ss(g1834
g1837
tp4023
g1
(g6
tRp4024
g3200
F1
ss(S'this,'
p4025
g2848
tp4026
g1
(g6
tRp4027
S'I'
F1
ss(g3041
g2437
tp4028
g1
(g6
tRp4029
g2438
F1
ss(S'you'
S'why'
p4030
tp4031
g1
(g6
tRp4032
S''
F1
ss(g2582
tp4033
g1
(g6
tRp4034
g2583
F0.5
sg3527
F0.5
ss(g267
g1149
tp4035
g1
(g6
tRp4036
S'of'
p4037
F1
ss(g2672
g1940
tp4038
g1
(g6
tRp4039
S'because'
p4040
F1
ss(S'North'
p4041
S'Korea,'
p4042
tp4043
g1
(g6
tRp4044
S'where'
p4045
F1
ss(g2190
g1709
tp4046
g1
(g6
tRp4047
g532
F1
ss(S'out'
p4048
g3997
tp4049
g1
(g6
tRp4050
g1535
F0.5
sg1534
F0.5
ss(S'gave'
p4051
S'him'
p4052
tp4053
g1
(g6
tRp4054
S''
F1
ss(S'will'
g156
tp4055
g1
(g6
tRp4056
g157
F1
ss(g49
tp4057
g1
(g6
tRp4058
g50
F1
ss(g348
g351
tp4059
g1
(g6
tRp4060
S'over'
p4061
F1
ss(S'to'
g625
tp4062
g1
(g6
tRp4063
g577
F1
ss(g3997
g1535
tp4064
g1
(g6
tRp4065
S'who'
p4066
F1
ss(S'is,'
p4067
S'a'
tp4068
g1
(g6
tRp4069
g225
F1
ss(g3486
g1067
tp4070
g1
(g6
tRp4071
g1068
F1
ss(g1662
g1930
tp4072
g1
(g6
tRp4073
g3372
F1
ss(g2737
g2740
tp4074
g1
(g6
tRp4075
S'the'
p4076
F1
ss(g1832
g2398
tp4077
g1
(g6
tRp4078
S'the'
p4079
F1
ss(S'Of'
p4080
tp4081
g1
(g6
tRp4082
S'course'
p4083
F1
ss(g3227
g3230
tp4084
g1
(g6
tRp4085
S''
F1
ss(g2307
g1240
tp4086
g1
(g6
tRp4087
S'I'
F0.5
sS'they'
p4088
F0.5
ss(S'that'
p4089
g1035
tp4090
g1
(g6
tRp4091
g771
F1
ss(g678
g681
tp4092
g1
(g6
tRp4093
S'of'
p4094
F1
ss(g2679
g2682
tp4095
g1
(g6
tRp4096
S''
F1
ss(g659
tp4097
g1
(g6
tRp4098
g1788
F1
ss(g1106
g1109
tp4099
g1
(g6
tRp4100
g423
F1
ss(S'Every'
p4101
tp4102
g1
(g6
tRp4103
g3673
F0.5
sS'morning'
p4104
F0.5
ss(g2315
tp4105
g1
(g6
tRp4106
g2318
F1
ss(g1128
g127
tp4107
g1
(g6
tRp4108
g128
F1
ss(g2789
g432
tp4109
g1
(g6
tRp4110
g280
F1
ss(g1285
g1288
tp4111
g1
(g6
tRp4112
g3927
F1
ss(S'I'
g3106
tp4113
g1
(g6
tRp4114
S''
F1
ss(g564
tp4115
g1
(g6
tRp4116
g567
F1
ss(g1580
tp4117
g1
(g6
tRp4118
S'on'
p4119
F1
ss(g3371
S'this'
p4120
tp4121
g1
(g6
tRp4122
S''
F1
ss(g346
g613
tp4123
g1
(g6
tRp4124
S''
F1
ss(g633
g895
tp4125
g1
(g6
tRp4126
S'this'
p4127
F1
ss(g2595
g2598
tp4128
g1
(g6
tRp4129
S'pro-life'
p4130
F1
ss(g2282
tp4131
g1
(g6
tRp4132
S''
F0.33333333333333331
sg2285
F0.33333333333333331
sg3187
F0.33333333333333331
ss(g1098
S'a'
tp4133
g1
(g6
tRp4134
g221
F1
ss(g972
g1304
tp4135
g1
(g6
tRp4136
g1305
F1
ss(g527
g533
tp4137
g1
(g6
tRp4138
S'the'
p4139
F0.65000000000000002
sg471
F0.34999999999999998
ss(S'something,'
p4140
tp4141
g1
(g6
tRp4142
S'I'
F1
ss(g382
g3082
tp4143
g1
(g6
tRp4144
g100
F1
ss(g347
tp4145
g1
(g6
tRp4146
g663
F1
ss(g1237
tp4147
g1
(g6
tRp4148
g3479
F0.33333333333333331
sS'or'
p4149
F0.33333333333333331
sg2963
F0.33333333333333331
ss(g522
g2896
tp4150
g1
(g6
tRp4151
S'Barack'
p4152
F1
ss(g284
S'she'
p4153
tp4154
g1
(g6
tRp4155
S'was'
p4156
F1
ss(g705
tp4157
g1
(g6
tRp4158
S'has'
p4159
F0.5
sg2432
F0.5
ss(S'of'
S'bill'
p4160
tp4161
g1
(g6
tRp4162
S'can'
p4163
F1
ss(g3558
tp4164
g1
(g6
tRp4165
S'commander-in-chief'
p4166
F0.5
sg1825
F0.5
ss(g2974
tp4167
g1
(g6
tRp4168
g2975
F0.5
sg2020
F0.5
ss(g2163
g3129
tp4169
g1
(g6
tRp4170
S'country'
p4171
F1
ss(S'think'
p4172
g1375
tp4173
g1
(g6
tRp4174
S'really'
p4175
F1
ss(S'it,'
p4176
g4149
tp4177
g1
(g6
tRp4178
S'the'
p4179
F1
ss(S'a'
g3199
tp4180
g1
(g6
tRp4181
S'experience,'
p4182
F1
ss(g2314
tp4183
g1
(g6
tRp4184
g2315
F1
ss(g3511
g2914
tp4185
g1
(g6
tRp4186
g3632
F1
ss(g1470
tp4187
g1
(g6
tRp4188
S'to'
p4189
F1
ss(g3211
tp4190
g1
(g6
tRp4191
S''
F0.25714285714285712
sg445
F0.25714285714285712
sg3212
F0.48571428571428577
ss(S'is'
p4192
g793
tp4193
g1
(g6
tRp4194
g2599
F1
ss(S'ran'
p4195
S'for'
p4196
tp4197
g1
(g6
tRp4198
g1237
F1
ss(g436
tp4199
g1
(g6
tRp4200
S''
F0.33333333333333331
sg439
F0.33333333333333331
sg440
F0.33333333333333331
ss(g3940
g3943
tp4201
g1
(g6
tRp4202
S'the'
p4203
F1
ss(g1248
g1990
tp4204
g1
(g6
tRp4205
S'the'
p4206
F1
ss(g2027
tp4207
g1
(g6
tRp4208
g1976
F1
ss(g471
tp4209
g1
(g6
tRp4210
g2537
F0.14423076923076925
sg1144
F0.14423076923076925
sg918
F0.14423076923076925
sg2629
F0.14423076923076925
sg472
F0.14423076923076925
sg945
F0.27884615384615391
ss(S"I've"
g30
tp4211
g1
(g6
tRp4212
g31
F1
ss(g1448
g1451
tp4213
g1
(g6
tRp4214
g4048
F1
ss(g1038
S'sure'
p4215
tp4216
g1
(g6
tRp4217
S'that'
p4218
F1
ss(S'of'
p4219
g3635
tp4220
g1
(g6
tRp4221
g3636
F1
ss(g2216
g2219
tp4222
g1
(g6
tRp4223
S'incest'
p4224
F1
ss(g3829
tp4225
g1
(g6
tRp4226
g3830
F1
ss(g1016
S'experience'
p4227
tp4228
g1
(g6
tRp4229
g935
F1
ss(g220
tp4230
g1
(g6
tRp4231
g3318
F1
ss(S'taught'
p4232
tp4233
g1
(g6
tRp4234
g3897
F1
ss(S'It'
S'happened'
p4235
tp4236
g1
(g6
tRp4237
S'in'
p4238
F1
ss(S'responsible'
p4239
g1192
tp4240
g1
(g6
tRp4241
g1244
F0.5
sg1193
F0.5
ss(g1947
g996
tp4242
g1
(g6
tRp4243
g997
F1
ss(g3315
g1104
tp4244
g1
(g6
tRp4245
S'your'
p4246
F1
ss(g3257
tp4247
g1
(g6
tRp4248
g3258
F1
ss(g2256
g2259
tp4249
g1
(g6
tRp4250
g1530
F1
ss(S'public'
p4251
tp4252
g1
(g6
tRp4253
S'who'
p4254
F1
ss(g3384
S'comes'
p4255
tp4256
g1
(g6
tRp4257
g2915
F1
ss(g749
tp4258
g1
(g6
tRp4259
S''
F1
ss(g1878
g1881
tp4260
g1
(g6
tRp4261
g418
F1
ss(g1651
g1654
tp4262
g1
(g6
tRp4263
S'year'
p4264
F1
ss(S"don't"
p4265
g44
tp4266
g1
(g6
tRp4267
g2545
F1
ss(g2029
g271
tp4268
g1
(g6
tRp4269
S''
F1
ss(S'shame'
S'is,'
p4270
tp4271
g1
(g6
tRp4272
S'Marco'
p4273
F1
ss(S'years,'
p4274
g2151
tp4275
g1
(g6
tRp4276
g2152
F1
ss(S'president'
p4277
g3437
tp4278
g1
(g6
tRp4279
g2211
F1
ss(g2482
g2485
tp4280
g1
(g6
tRp4281
S'the'
p4282
F1
ss(g635
g638
tp4283
g1
(g6
tRp4284
g1863
F1
ss(g1272
tp4285
g1
(g6
tRp4286
g797
F1
ss(g1401
S'you'
p4287
tp4288
g1
(g6
tRp4289
g1679
F1
ss(g523
g526
tp4290
g1
(g6
tRp4291
g592
F0.5
sS'bed'
p4292
F0.5
ss(g543
tp4293
g1
(g6
tRp4294
g1785
F1
ss(g2038
tp4295
g1
(g6
tRp4296
S'I'
F0.43571428571428578
sS'of'
p4297
F0.22142857142857145
sS'the'
p4298
F0.11428571428571428
sg4153
F0.11428571428571428
sg3288
F0.11428571428571428
ss(g3204
S'I'
tp4299
g1
(g6
tRp4300
g3103
F1
ss(g1957
tp4301
g1
(g6
tRp4302
g1960
F1
ss(g4232
g3897
tp4303
g1
(g6
tRp4304
g3264
F1
ss(g3557
S'you'
p4305
tp4306
g1
(g6
tRp4307
S'have'
p4308
F1
ss(g2887
tp4309
g1
(g6
tRp4310
S''
F0.65000000000000002
sg814
F0.34999999999999998
ss(S'It'
g3931
tp4311
g1
(g6
tRp4312
S'a'
F1
ss(g3806
tp4313
g1
(g6
tRp4314
g317
F0.48571428571428577
sg2710
F0.25714285714285712
sg3807
F0.25714285714285712
ss(g450
S'D'
tp4315
g1
(g6
tRp4316
S''
F1
ss(S'the'
p4317
g2595
tp4318
g1
(g6
tRp4319
g2598
F0.5
sg2181
F0.5
ss(g810
g813
tp4320
g1
(g6
tRp4321
g2362
F1
ss(g3677
g3680
tp4322
g1
(g6
tRp4323
g3038
F1
ss(g77
g1393
tp4324
g1
(g6
tRp4325
g2614
F1
ss(g3082
tp4326
g1
(g6
tRp4327
g230
F0.16666666666666666
sS'had'
p4328
F0.16666666666666666
sg30
F0.16666666666666666
sg36
F0.16666666666666666
sg1072
F0.16666666666666666
sg100
F0.16666666666666666
ss(g3284
tp4329
g1
(g6
tRp4330
g3047
F1
ss(S'a'
g2452
tp4331
g1
(g6
tRp4332
g2281
F1
ss(g3293
tp4333
g1
(g6
tRp4334
S'a'
F0.34999999999999998
sg3294
F0.65000000000000002
ss(g3083
S'done'
p4335
tp4336
g1
(g6
tRp4337
g105
F1
ss(S'a'
g1798
tp4338
g1
(g6
tRp4339
g3833
F1
ss(g946
S'a'
tp4340
g1
(g6
tRp4341
g1437
F1
ss(g401
tp4342
g1
(g6
tRp4343
S''
F0.44444444444444448
sg404
F0.092592592592592615
sg405
F0.092592592592592615
sg348
F0.092592592592592615
sg406
F0.092592592592592615
sg407
F0.092592592592592615
sg408
F0.092592592592592615
ss(g1359
tp4344
g1
(g6
tRp4345
S'money'
p4346
F0.015925480769230772
sS'mosques'
p4347
F0.015925480769230772
sg1727
F0.015925480769230772
sg1264
F0.015925480769230772
sS'extremist'
p4348
F0.015925480769230772
sg1851
F0.015925480769230772
sg1475
F0.015925480769230772
sg2637
F0.015925480769230772
sS'activity,'
p4349
F0.015925480769230772
sg435
F0.031700721153846159
sg3635
F0.015925480769230772
sS'what'
p4350
F0.031700721153846159
sg2055
F0.015925480769230772
sg688
F0.015925480769230772
sg3537
F0.015925480769230772
sg2795
F0.015925480769230772
sg3795
F0.015925480769230772
sg1723
F0.015925480769230772
sS'their'
p4351
F0.015925480769230772
sg1718
F0.015925480769230772
sg3147
F0.031700721153846159
sg3774
F0.031700721153846159
sS'self-worth,'
p4352
F0.015925480769230772
sS'job'
p4353
F0.015925480769230772
sg1452
F0.015925480769230772
sg592
F0.015925480769230772
sS'hostage'
p4354
F0.015925480769230772
sg1095
F0.015925480769230772
sg489
F0.17367788461538464
sg750
F0.015925480769230772
sS'a'
F0.04747596153846155
sg471
F0.031700721153846159
sg1082
F0.015925480769230772
sg4160
F0.015925480769230772
sg3605
F0.015925480769230772
sg4224
F0.031700721153846159
sg4292
F0.015925480769230772
sS'eight'
p4355
F0.015925480769230772
sg840
F0.015925480769230772
sg1480
F0.079026442307692318
sg1563
F0.015925480769230772
ss(g1621
g1624
tp4356
g1
(g6
tRp4357
S'believe'
p4358
F1
ss(g3562
g3924
tp4359
g1
(g6
tRp4360
g1032
F1
ss(g2118
tp4361
g1
(g6
tRp4362
g2121
F1
ss(S'work'
p4363
tp4364
g1
(g6
tRp4365
S''
F1
ss(S'And'
S'here'
p4366
tp4367
g1
(g6
tRp4368
S'is'
p4369
F1
ss(g992
g995
tp4370
g1
(g6
tRp4371
S'disaster'
p4372
F1
ss(g151
g1401
tp4373
g1
(g6
tRp4374
g4287
F1
ss(g2403
g3360
tp4375
g1
(g6
tRp4376
g3332
F1
ss(g3138
tp4377
g1
(g6
tRp4378
g3139
F1
ss(g2492
g2495
tp4379
g1
(g6
tRp4380
S'president'
p4381
F1
ss(g3215
tp4382
g1
(g6
tRp4383
g3936
F1
ss(g813
g2362
tp4384
g1
(g6
tRp4385
g2363
F1
ss(g2725
tp4386
g1
(g6
tRp4387
S''
F1
ss(g754
S'an'
p4388
tp4389
g1
(g6
tRp4390
g3917
F0.5
sg3528
F0.5
ss(g3487
tp4391
g1
(g6
tRp4392
g3488
F0.5
sg2721
F0.5
ss(g2028
tp4393
g1
(g6
tRp4394
S''
F0.25
sg1984
F0.25
sg2501
F0.25
sg2029
F0.25
ss(g476
tp4395
g1
(g6
tRp4396
g477
F0.5
sS'Clinton'
p4397
F0.5
ss(g2091
tp4398
g1
(g6
tRp4399
g2094
F1
ss(g1575
g1995
tp4400
g1
(g6
tRp4401
S'which'
p4402
F1
ss(g3350
g1697
tp4403
g1
(g6
tRp4404
g1698
F1
ss(g2110
g2113
tp4405
g1
(g6
tRp4406
g1765
F1
ss(g2002
g1945
tp4407
g1
(g6
tRp4408
g2650
F1
ss(g667
g670
tp4409
g1
(g6
tRp4410
g1037
F1
ss(g873
g876
tp4411
g1
(g6
tRp4412
S'only'
p4413
F1
ss(g1186
tp4414
g1
(g6
tRp4415
g2340
F0.125
sS'a'
F0.125
sg1190
F0.125
sg4273
F0.125
sg1191
F0.125
sS'I'
F0.125
sS'crime'
p4416
F0.125
sg1189
F0.125
ss(S'I'
g800
tp4417
g1
(g6
tRp4418
g1641
F0.25714285714285712
sg2813
F0.48571428571428577
sS'the'
p4419
F0.25714285714285712
ss(g3004
g103
tp4420
g1
(g6
tRp4421
g1937
F0.5
sg255
F0.5
ss(S'to'
p4422
g3839
tp4423
g1
(g6
tRp4424
g3840
F0.25714285714285712
sg1062
F0.48571428571428577
sg1972
F0.25714285714285712
ss(g3182
tp4425
g1
(g6
tRp4426
g2756
F1
ss(g4346
g1833
tp4427
g1
(g6
tRp4428
g1370
F1
ss(g217
tp4429
g1
(g6
tRp4430
g220
F1
ss(g2914
tp4431
g1
(g6
tRp4432
g3632
F1
ss(S'treated'
p4433
S'more'
p4434
tp4435
g1
(g6
tRp4436
S'kindly'
p4437
F1
ss(g2041
tp4438
g1
(g6
tRp4439
S'it'
p4440
F1
ss(S'people'
p4441
g2012
tp4442
g1
(g6
tRp4443
S'you'
p4444
F0.5
sg1038
F0.5
ss(g681
g4094
tp4445
g1
(g6
tRp4446
g4352
F0.33333333333333331
sS'what'
p4447
F0.33333333333333331
sg2795
F0.33333333333333331
ss(g851
g854
tp4448
g1
(g6
tRp4449
S'his'
p4450
F1
ss(g4255
g2915
tp4451
g1
(g6
tRp4452
g2916
F1
ss(g2640
tp4453
g1
(g6
tRp4454
S''
F1
ss(S'test'
p4455
tp4456
g1
(g6
tRp4457
g922
F1
ss(g862
tp4458
g1
(g6
tRp4459
S'best'
p4460
F1
ss(S'you,'
p4461
tp4462
g1
(g6
tRp4463
S'they'
p4464
F1
ss(g14
S'at'
p4465
tp4466
g1
(g6
tRp4467
S'the'
p4468
F1
ss(S'dealing'
p4469
S'with'
p4470
tp4471
g1
(g6
tRp4472
S'types'
p4473
F1
ss(S'senator'
g3244
tp4474
g1
(g6
tRp4475
g3245
F1
ss(g841
S'I'
tp4476
g1
(g6
tRp4477
g1769
F1
ss(g3673
g3676
tp4478
g1
(g6
tRp4479
S'I'
F1
ss(g3909
g3912
tp4480
g1
(g6
tRp4481
S'we'
p4482
F1
ss(g247
g2300
tp4483
g1
(g6
tRp4484
g68
F1
ss(g286
tp4485
g1
(g6
tRp4486
g3004
F1
ss(g4287
g1679
tp4487
g1
(g6
tRp4488
g1680
F1
ss(g4366
g4369
tp4489
g1
(g6
tRp4490
g3226
F1
ss(g2994
g121
tp4491
g1
(g6
tRp4492
g122
F0.5
sg4270
F0.5
ss(S'year'
p4493
tp4494
g1
(g6
tRp4495
S'of'
p4496
F0.5
sg3093
F0.5
ss(g819
tp4497
g1
(g6
tRp4498
g822
F1
ss(g3115
g1617
tp4499
g1
(g6
tRp4500
g1618
F1
ss(S"We've"
p4501
tp4502
g1
(g6
tRp4503
g1917
F0.25
sg1331
F0.25
sg3518
F0.25
sS'heard'
p4504
F0.25
ss(g4051
tp4505
g1
(g6
tRp4506
g4052
F1
ss(g4437
tp4507
g1
(g6
tRp4508
S''
F1
ss(g3114
S'in'
p4509
tp4510
g1
(g6
tRp4511
S''
F1
ss(g1470
g4189
tp4512
g1
(g6
tRp4513
g4000
F1
ss(g656
g659
tp4514
g1
(g6
tRp4515
g1788
F1
ss(g1795
tp4516
g1
(g6
tRp4517
S'I'
F0.5
sg4402
F0.5
ss(g120
g647
tp4518
g1
(g6
tRp4519
g648
F1
ss(S'a'
g3562
tp4520
g1
(g6
tRp4521
g584
F0.5
sg3924
F0.5
ss(g3843
g1251
tp4522
g1
(g6
tRp4523
g2233
F0.5
sg1252
F0.5
ss(g2773
g2776
tp4524
g1
(g6
tRp4525
S'Planned'
p4526
F1
ss(g4088
g468
tp4527
g1
(g6
tRp4528
S'in'
p4529
F0.5
sS'that'
p4530
F0.5
ss(S"can't"
p4531
S'just'
p4532
tp4533
g1
(g6
tRp4534
g3449
F1
ss(g4282
S'criminals'
p4535
tp4536
g1
(g6
tRp4537
S''
F1
ss(S'literally'
p4538
tp4539
g1
(g6
tRp4540
g2341
F1
ss(g729
S'where'
p4541
tp4542
g1
(g6
tRp4543
S'you'
p4544
F1
ss(g3680
g3038
tp4545
g1
(g6
tRp4546
g3041
F1
ss(g2009
tp4547
g1
(g6
tRp4548
S''
F0.072000000000000008
sg2012
F0.14133333333333334
sS'hostage'
p4549
F0.072000000000000008
sg1181
F0.14133333333333334
sg2013
F0.14133333333333334
sg638
F0.072000000000000008
sg1558
F0.072000000000000008
sg2138
F0.072000000000000008
sg2618
F0.072000000000000008
sg2014
F0.072000000000000008
sg4
F0.072000000000000008
ss(S'in'
p4550
S'law'
p4551
tp4552
g1
(g6
tRp4553
g828
F1
ss(g4530
g1013
tp4554
g1
(g6
tRp4555
S'is'
p4556
F1
ss(S'There'
p4557
S'it'
p4558
tp4559
g1
(g6
tRp4560
g281
F0.65000000000000002
sg282
F0.34999999999999998
ss(g3889
tp4561
g1
(g6
tRp4562
g3890
F0.25
sg2118
F0.25
sS'have'
p4563
F0.25
sg1809
F0.25
ss(g2182
g2185
tp4564
g1
(g6
tRp4565
g2460
F1
ss(g530
tp4566
g1
(g6
tRp4567
g2571
F1
ss(g564
g567
tp4568
g1
(g6
tRp4569
g832
F1
ss(g115
g3885
tp4570
g1
(g6
tRp4571
g2062
F1
ss(g155
g1202
tp4572
g1
(g6
tRp4573
g1248
F1
ss(g220
g3318
tp4574
g1
(g6
tRp4575
g111
F1
ss(g1137
tp4576
g1
(g6
tRp4577
S''
F1
ss(g2499
g2206
tp4578
g1
(g6
tRp4579
g1106
F1
ss(g1962
g1078
tp4580
g1
(g6
tRp4581
g1079
F1
ss(S'Americans'
p4582
S'around'
p4583
tp4584
g1
(g6
tRp4585
g94
F1
ss(g2292
g2296
tp4586
g1
(g6
tRp4587
g3909
F1
ss(S'Well,'
p4588
tp4589
g1
(g6
tRp4590
S'he'
p4591
F0.5
sg35
F0.5
ss(g1864
tp4592
g1
(g6
tRp4593
g1891
F1
ss(g388
tp4594
g1
(g6
tRp4595
g614
F0.17142857142857143
sg1120
F0.32857142857142857
sg781
F0.17142857142857143
sg389
F0.32857142857142857
ss(g3204
tp4596
g1
(g6
tRp4597
S'I'
F1
ss(g4182
S"it's"
p4598
tp4599
g1
(g6
tRp4600
S'a'
F1
ss(g445
S'jobs'
p4601
tp4602
g1
(g6
tRp4603
S''
F1
ss(S'I'
g3115
tp4604
g1
(g6
tRp4605
g1617
F1
ss(g282
g2340
tp4606
g1
(g6
tRp4607
S''
F1
ss(g655
g3193
tp4608
g1
(g6
tRp4609
g4067
F1
ss(g676
tp4610
g1
(g6
tRp4611
S''
F1
ss(g407
g862
tp4612
g1
(g6
tRp4613
g4460
F1
ss(g4353
g3187
tp4614
g1
(g6
tRp4615
g3190
F1
ss(S'are'
p4616
g3280
tp4617
g1
(g6
tRp4618
g3281
F1
ss(g1808
tp4619
g1
(g6
tRp4620
g330
F0.5
sS'he'
p4621
F0.5
ss(S"It's"
g199
tp4622
g1
(g6
tRp4623
g1907
F1
ss(g3493
tp4624
g1
(g6
tRp4625
g1956
F0.33333333333333331
sS'they'
p4626
F0.33333333333333331
sS'that'
p4627
F0.33333333333333331
ss(S'believes'
p4628
tp4629
g1
(g6
tRp4630
S'that'
p4631
F1
ss(g3840
g3843
tp4632
g1
(g6
tRp4633
g3412
F0.34999999999999998
sg1251
F0.65000000000000002
ss(S'systematic'
p4634
tp4635
g1
(g6
tRp4636
S'murder'
p4637
F1
ss(S'after'
p4638
S'September'
p4639
tp4640
g1
(g6
tRp4641
S'11th'
p4642
F1
ss(g54
g58
tp4643
g1
(g6
tRp4644
S'when'
p4645
F1
ss(g1690
g2730
tp4646
g1
(g6
tRp4647
g2577
F1
ss(g987
tp4648
g1
(g6
tRp4649
g855
F0.48571428571428577
sg988
F0.25714285714285712
sg3487
F0.25714285714285712
ss(g4631
g1031
tp4650
g1
(g6
tRp4651
g2736
F1
ss(S'manage'
p4652
tp4653
g1
(g6
tRp4654
S'a'
F1
ss(g3572
tp4655
g1
(g6
tRp4656
g3628
F1
ss(S'solve'
p4657
g3792
tp4658
g1
(g6
tRp4659
S'problem'
p4660
F1
ss(g2148
S'broadsides'
p4661
tp4662
g1
(g6
tRp4663
g2410
F1
ss(g2947
g2950
tp4664
g1
(g6
tRp4665
g183
F1
ss(g3106
tp4666
g1
(g6
tRp4667
S''
F1
ss(g4501
g1917
tp4668
g1
(g6
tRp4669
g1920
F1
ss(g1604
tp4670
g1
(g6
tRp4671
g1330
F0.17142857142857143
sg1605
F0.48571428571428571
sg3437
F0.17142857142857143
sg3541
F0.17142857142857143
ss(g1451
tp4672
g1
(g6
tRp4673
g4048
F1
ss(g1363
tp4674
g1
(g6
tRp4675
g1364
F0.38888888888888884
sS'talking'
p4676
F0.20370370370370372
sg2379
F0.20370370370370372
sg905
F0.20370370370370372
ss(S'I'
g3111
tp4677
g1
(g6
tRp4678
g3248
F1
ss(g399
g900
tp4679
g1
(g6
tRp4680
g901
F1
ss(g2663
tp4681
g1
(g6
tRp4682
S''
F0.12916666666666662
sg182
F0.04374999999999999
sg2323
F0.04374999999999999
sg1834
F0.04374999999999999
sg1698
F0.086458333333333318
sg1299
F0.12916666666666662
sg2509
F0.086458333333333318
sg4264
F0.04374999999999999
sg607
F0.04374999999999999
sS'idea'
p4683
F0.04374999999999999
sg3512
F0.04374999999999999
sg1395
F0.04374999999999999
sg4277
F0.04374999999999999
sg4660
F0.04374999999999999
sS'issue'
p4684
F0.04374999999999999
sg2979
F0.04374999999999999
sS'stage'
p4685
F0.04374999999999999
ss(g144
g2802
tp4686
g1
(g6
tRp4687
g835
F1
ss(S"I've"
g230
tp4688
g1
(g6
tRp4689
g233
F1
ss(S'mosques'
p4690
g2260
tp4691
g1
(g6
tRp4692
g2263
F1
ss(S'You'
g3350
tp4693
g1
(g6
tRp4694
g1697
F1
ss(g1056
g1854
tp4695
g1
(g6
tRp4696
g2888
F1
ss(g2904
tp4697
g1
(g6
tRp4698
g2152
F0.19999999999999998
sg549
F0.19999999999999998
sg1206
F0.19999999999999998
sg741
F0.19999999999999998
sS'treatment'
p4699
F0.19999999999999998
ss(g1841
g396
tp4700
g1
(g6
tRp4701
g399
F1
ss(g2776
g4526
tp4702
g1
(g6
tRp4703
g2078
F1
ss(S'daughters'
p4704
g2005
tp4705
g1
(g6
tRp4706
g1955
F1
ss(g190
g193
tp4707
g1
(g6
tRp4708
g1480
F1
ss(g2205
g2536
tp4709
g1
(g6
tRp4710
S'a'
F1
ss(g87
tp4711
g1
(g6
tRp4712
S''
F1
ss(g4468
S'end'
p4713
tp4714
g1
(g6
tRp4715
g1726
F1
ss(g1196
g1199
tp4716
g1
(g6
tRp4717
g2841
F0.14423076923076925
sS''
F0.14423076923076925
sg3752
F0.14423076923076925
sg1507
F0.14423076923076925
sg983
F0.14423076923076925
sS'senator'
p4718
F0.27884615384615391
ss(g1063
g1033
tp4719
g1
(g6
tRp4720
g464
F0.5
sS'want'
p4721
F0.5
ss(g4450
g3165
tp4722
g1
(g6
tRp4723
g2384
F1
ss(g1451
g4048
tp4724
g1
(g6
tRp4725
g3997
F1
ss(g36
g39
tp4726
g1
(g6
tRp4727
S'helpful'
p4728
F1
ss(g1530
g1533
tp4729
g1
(g6
tRp4730
g2028
F1
ss(g1654
g4264
tp4731
g1
(g6
tRp4732
g3093
F1
ss(S'government'
p4733
g2245
tp4734
g1
(g6
tRp4735
g3443
F1
ss(g896
tp4736
g1
(g6
tRp4737
S'I'
F1
ss(g2133
tp4738
g1
(g6
tRp4739
g2136
F1
ss(g1713
tp4740
g1
(g6
tRp4741
g2282
F0.48571428571428577
sg1716
F0.25714285714285712
sg1717
F0.25714285714285712
ss(g2784
tp4742
g1
(g6
tRp4743
S''
F0.25714285714285712
sg2785
F0.48571428571428577
sg1438
F0.25714285714285712
ss(S'gang'
p4744
S'of'
p4745
tp4746
g1
(g6
tRp4747
g4355
F1
ss(g911
g1369
tp4748
g1
(g6
tRp4749
S'we'
p4750
F0.5
sg1363
F0.5
ss(g1259
tp4751
g1
(g6
tRp4752
g1262
F1
ss(S'I'
g2042
tp4753
g1
(g6
tRp4754
g2399
F1
ss(g1213
g2632
tp4755
g1
(g6
tRp4756
g2633
F1
ss(S'you'
p4757
g295
tp4758
g1
(g6
tRp4759
g298
F0.5
sg299
F0.5
ss(g681
tp4760
g1
(g6
tRp4761
g4094
F1
ss(g2037
g3225
tp4762
g1
(g6
tRp4763
S'what'
p4764
F0.5
sS'exactly'
p4765
F0.5
ss(S'It'
g3268
tp4766
g1
(g6
tRp4767
g3269
F0.5
sg1782
F0.5
ss(g2357
tp4768
g1
(g6
tRp4769
g2358
F1
ss(g3885
g2062
tp4770
g1
(g6
tRp4771
g2065
F1
ss(g4066
g4616
tp4772
g1
(g6
tRp4773
g4538
F0.5
sg3280
F0.5
ss(g2825
g4676
tp4774
g1
(g6
tRp4775
g3881
F1
ss(g638
g1863
tp4776
g1
(g6
tRp4777
g1659
F0.5
sg1164
F0.5
ss(g125
g2367
tp4778
g1
(g6
tRp4779
g2368
F1
ss(g577
tp4780
g1
(g6
tRp4781
S'as'
p4782
F0.34999999999999998
sg578
F0.65000000000000002
ss(g1854
tp4783
g1
(g6
tRp4784
g2888
F1
ss(g1026
g3349
tp4785
g1
(g6
tRp4786
g3456
F1
ss(g3263
tp4787
g1
(g6
tRp4788
g2780
F1
ss(g2276
g3371
tp4789
g1
(g6
tRp4790
g4120
F1
ss(S'the'
p4791
g4251
tp4792
g1
(g6
tRp4793
g4254
F1
ss(g3478
tp4794
g1
(g6
tRp4795
S'about'
p4796
F1
ss(g3597
tp4797
g1
(g6
tRp4798
S''
F1
ss(g1220
tp4799
g1
(g6
tRp4800
g1223
F0.65000000000000002
sg1224
F0.34999999999999998
ss(g2823
tp4801
g1
(g6
tRp4802
S'--'
p4803
F0.33333333333333331
sS''
F0.33333333333333331
sg1884
F0.33333333333333331
ss(g493
g2841
tp4804
g1
(g6
tRp4805
g1932
F1
ss(g3258
g2311
tp4806
g1
(g6
tRp4807
g1669
F1
ss(g1957
g1960
tp4808
g1
(g6
tRp4809
g1947
F1
ss(g2955
g2354
tp4810
g1
(g6
tRp4811
S''
F1
ss(g683
g686
tp4812
g1
(g6
tRp4813
g461
F1
ss(g4718
tp4814
g1
(g6
tRp4815
g1006
F0.5
sg3244
F0.5
ss(g2086
g2089
tp4816
g1
(g6
tRp4817
g3089
F1
ss(g1497
tp4818
g1
(g6
tRp4819
g1498
F1
ss(g1441
g1809
tp4820
g1
(g6
tRp4821
g1815
F1
ss(g1764
tp4822
g1
(g6
tRp4823
g3011
F1
ss(g1576
tp4824
g1
(g6
tRp4825
g2329
F1
ss(g3830
tp4826
g1
(g6
tRp4827
S'a'
F0.5
sg2185
F0.5
ss(g1916
g1247
tp4828
g1
(g6
tRp4829
g1734
F1
ss(g581
g3597
tp4830
g1
(g6
tRp4831
S''
F1
ss(g837
g462
tp4832
g1
(g6
tRp4833
S''
F1
ss(g3331
S'a'
tp4834
g1
(g6
tRp4835
g2784
F0.5
sg3557
F0.5
ss(g4349
S'unless'
p4836
tp4837
g1
(g6
tRp4838
S'you'
p4839
F1
ss(g3149
tp4840
g1
(g6
tRp4841
g3152
F1
ss(S'you'
g4140
tp4842
g1
(g6
tRp4843
S'I'
F1
ss(g4006
g1510
tp4844
g1
(g6
tRp4845
g946
F1
ss(g3478
g4796
tp4846
g1
(g6
tRp4847
S'it'
p4848
F1
ss(S'these'
p4849
g1536
tp4850
g1
(g6
tRp4851
S''
F0.65000000000000002
sg1539
F0.34999999999999998
ss(g2903
tp4852
g1
(g6
tRp4853
S''
F0.5
sg1866
F0.5
ss(g68
g3691
tp4854
g1
(g6
tRp4855
g208
F1
ss(S'that'
p4856
g1017
tp4857
g1
(g6
tRp4858
S''
F1
ss(g2205
tp4859
g1
(g6
tRp4860
g2536
F1
ss(S'act'
p4861
g3794
tp4862
g1
(g6
tRp4863
g3795
F1
ss(g2402
g3806
tp4864
g1
(g6
tRp4865
g3807
F1
ss(g4583
tp4866
g1
(g6
tRp4867
g94
F1
ss(g3088
g45
tp4868
g1
(g6
tRp4869
S'a'
F1
ss(g4440
g275
tp4870
g1
(g6
tRp4871
S'say,'
p4872
F0.5
sg1944
F0.5
ss(S'To'
p4873
tp4874
g1
(g6
tRp4875
S'build'
p4876
F1
ss(g4455
g922
tp4877
g1
(g6
tRp4878
g925
F1
ss(S'I'
g2467
tp4879
g1
(g6
tRp4880
S'to'
p4881
F0.5
sg3395
F0.5
ss(g3142
g1291
tp4882
g1
(g6
tRp4883
S''
F1
ss(g1239
g3050
tp4884
g1
(g6
tRp4885
S'are'
p4886
F1
ss(g1587
g164
tp4887
g1
(g6
tRp4888
S'raised'
p4889
F0.5
sg3018
F0.5
ss(g3328
g3331
tp4890
g1
(g6
tRp4891
S'a'
F1
ss(S'have'
p4892
g2201
tp4893
g1
(g6
tRp4894
g2202
F1
ss(g1375
g4175
tp4895
g1
(g6
tRp4896
g171
F1
ss(S'We'
S'did'
p4897
tp4898
g1
(g6
tRp4899
S'it'
p4900
F1
ss(g3170
g1608
tp4901
g1
(g6
tRp4902
S''
F1
ss(g1326
tp4903
g1
(g6
tRp4904
g1327
F0.17460317460317462
sS'is'
p4905
F0.65079365079365081
sS'was'
p4906
F0.17460317460317462
ss(S'market,'
p4907
tp4908
g1
(g6
tRp4909
S'is'
p4910
F1
ss(S'He'
p4911
tp4912
g1
(g6
tRp4913
g2947
F0.34999999999999998
sS'said'
p4914
F0.65000000000000002
ss(g4836
g4839
tp4915
g1
(g6
tRp4916
S'are'
p4917
F1
ss(g3896
g2428
tp4918
g1
(g6
tRp4919
g2429
F1
ss(g1778
g1781
tp4920
g1
(g6
tRp4921
S''
F1
ss(g555
g558
tp4922
g1
(g6
tRp4923
g2032
F1
ss(g4388
g3528
tp4924
g1
(g6
tRp4925
g3529
F1
ss(g4836
tp4926
g1
(g6
tRp4927
g4839
F1
ss(g918
tp4928
g1
(g6
tRp4929
g921
F1
ss(g2467
g3395
tp4930
g1
(g6
tRp4931
g3396
F1
ss(g1184
g408
tp4932
g1
(g6
tRp4933
S'well'
p4934
F1
ss(g2395
g1534
tp4935
g1
(g6
tRp4936
g1394
F1
ss(g1189
g4757
tp4937
g1
(g6
tRp4938
g295
F1
ss(g2536
tp4939
g1
(g6
tRp4940
S''
F0.038480635551141992
sg4469
F0.019364448857994036
sg599
F0.019364448857994036
sg2530
F0.019364448857994036
sg3129
F0.019364448857994036
sg3094
F0.17229394240317769
sg2486
F0.057596822244289941
sg3215
F0.019364448857994036
sg1845
F0.019364448857994036
sg2314
F0.019364448857994036
sg3424
F0.019364448857994036
sg2599
F0.019364448857994036
sg3656
F0.019364448857994036
sg4041
F0.019364448857994036
sg3284
F0.019364448857994036
sg4551
F0.019364448857994036
sg974
F0.019364448857994036
sS'a'
F0.038480635551141992
sg3732
F0.019364448857994036
sg2663
F0.076713008937437904
sg19
F0.019364448857994036
sg2085
F0.21052631578947362
sg3810
F0.076713008937437904
sg2182
F0.019364448857994036
ss(g1603
tp4941
g1
(g6
tRp4942
g2745
F1
ss(g2558
g2047
tp4943
g1
(g6
tRp4944
S'the'
p4945
F1
ss(g1765
g1768
tp4946
g1
(g6
tRp4947
g2324
F1
ss(g225
tp4948
g1
(g6
tRp4949
g226
F1
ss(g2406
g2409
tp4950
g1
(g6
tRp4951
S'we'
p4952
F1
ss(g2024
g2027
tp4953
g1
(g6
tRp4954
g1976
F1
ss(S'and'
p4955
g1929
tp4956
g1
(g6
tRp4957
S'country'
p4958
F0.5
sS'understanding'
p4959
F0.5
ss(g1522
g1525
tp4960
g1
(g6
tRp4961
S'them'
p4962
F1
ss(S'tried'
p4963
S'it'
p4964
tp4965
g1
(g6
tRp4966
g285
F1
ss(S'If'
p4967
S'the'
p4968
tp4969
g1
(g6
tRp4970
S'United'
p4971
F1
ss(g3385
g3388
tp4972
g1
(g6
tRp4973
S'a'
F1
ss(g4958
S'first'
p4974
tp4975
g1
(g6
tRp4976
S''
F1
ss(S'just'
p4977
g2149
tp4978
g1
(g6
tRp4979
g2406
F1
ss(g2464
S'of'
p4980
tp4981
g1
(g6
tRp4982
g4351
F1
ss(g1920
g287
tp4983
g1
(g6
tRp4984
g453
F1
ss(g3771
g3774
tp4985
g1
(g6
tRp4986
g1027
F0.5
sg1036
F0.5
ss(g1683
tp4987
g1
(g6
tRp4988
S''
F0.19999999999999998
sg4582
F0.19999999999999998
sg2970
F0.19999999999999998
sg2682
F0.19999999999999998
sg4437
F0.19999999999999998
ss(g4598
S'a'
tp4989
g1
(g6
tRp4990
g2983
F0.33333333333333331
sS'disease'
p4991
F0.33333333333333331
sg2678
F0.33333333333333331
ss(g2737
tp4992
g1
(g6
tRp4993
g2740
F1
ss(g1243
g1877
tp4994
g1
(g6
tRp4995
S''
F1
ss(g705
g4159
tp4996
g1
(g6
tRp4997
S'gone'
p4998
F1
ss(g3243
g11
tp4999
g1
(g6
tRp5000
g14
F1
ss(S'Never'
p5001
g949
tp5002
g1
(g6
tRp5003
g955
F1
ss(g2110
tp5004
g1
(g6
tRp5005
g2113
F1
ss(g1021
S"hasn't"
p5006
tp5007
g1
(g6
tRp5008
S''
F1
ss(S'of'
g2795
tp5009
g1
(g6
tRp5010
g2796
F1
ss(g3512
g3515
tp5011
g1
(g6
tRp5012
g1950
F1
ss(g1494
tp5013
g1
(g6
tRp5014
S'a'
F0.06352941176470589
sg3331
F0.12470588235294118
sg2615
F0.06352941176470589
sS'I'
F0.12470588235294118
sg1764
F0.06352941176470589
sg686
F0.06352941176470589
sg2660
F0.12470588235294118
sg881
F0.24705882352941178
sg850
F0.12470588235294118
ss(g5006
tp5015
g1
(g6
tRp5016
S''
F1
ss(g2548
g2551
tp5017
g1
(g6
tRp5018
g1566
F1
ss(g3558
g4166
tp5019
g1
(g6
tRp5020
S'who'
p5021
F1
ss(g2646
tp5022
g1
(g6
tRp5023
g2649
F1
ss(g1401
tp5024
g1
(g6
tRp5025
g4287
F0.5
sg1173
F0.5
ss(g1023
g1775
tp5026
g1
(g6
tRp5027
S''
F1
ss(g3076
g1190
tp5028
g1
(g6
tRp5029
S'need'
p5030
F1
ss(S'the'
p5031
g3196
tp5032
g1
(g6
tRp5033
g836
F1
ss(g2436
tp5034
g1
(g6
tRp5035
g2904
F1
ss(S'Everyone'
S'of'
p5036
tp5037
g1
(g6
tRp5038
g750
F1
ss(g1458
S'I'
tp5039
g1
(g6
tRp5040
S'would'
p5041
F1
ss(S'that'
p5042
g1022
tp5043
g1
(g6
tRp5044
S'a'
F1
ss(g4911
g4914
tp5045
g1
(g6
tRp5046
g952
F0.5
sg954
F0.5
ss(g1820
tp5047
g1
(g6
tRp5048
S'and'
p5049
F1
ss(g4061
g424
tp5050
g1
(g6
tRp5051
S''
F1
ss(g2960
tp5052
g1
(g6
tRp5053
g1136
F1
ss(g3055
g1489
tp5054
g1
(g6
tRp5055
g2541
F1
ss(g1655
g1658
tp5056
g1
(g6
tRp5057
g290
F1
ss(g274
tp5058
g1
(g6
tRp5059
g1775
F0.19999999999999998
sg4363
F0.19999999999999998
sS'solve'
p5060
F0.19999999999999998
sg3443
F0.19999999999999998
sg518
F0.19999999999999998
ss(g2495
g4381
tp5061
g1
(g6
tRp5062
g3541
F1
ss(g2516
g1799
tp5063
g1
(g6
tRp5064
g1800
F1
ss(g84
g87
tp5065
g1
(g6
tRp5066
S''
F1
ss(g1792
g1795
tp5067
g1
(g6
tRp5068
S'I'
F1
ss(S'list'
p5069
S'as'
p5070
tp5071
g1
(g6
tRp5072
g527
F1
ss(g3311
g2912
tp5073
g1
(g6
tRp5074
S'for'
p5075
F1
ss(g2464
tp5076
g1
(g6
tRp5077
g4980
F1
ss(S'not'
g2132
tp5078
g1
(g6
tRp5079
g2133
F1
ss(g4416
tp5080
g1
(g6
tRp5081
g3592
F1
ss(g966
g714
tp5082
g1
(g6
tRp5083
g70
F1
ss(g3263
g2780
tp5084
g1
(g6
tRp5085
g2781
F1
ss(S'a'
g2784
tp5086
g1
(g6
tRp5087
g2785
F0.5
sg1438
F0.5
ss(S'criminals'
p5088
tp5089
g1
(g6
tRp5090
S''
F0.65000000000000002
sg1486
F0.34999999999999998
ss(g2085
g846
tp5091
g1
(g6
tRp5092
g849
F1
ss(g2043
tp5093
g1
(g6
tRp5094
g2741
F1
ss(g3280
tp5095
g1
(g6
tRp5096
g3281
F1
ss(g11
g14
tp5097
g1
(g6
tRp5098
g4465
F1
ss(g2541
tp5099
g1
(g6
tRp5100
g2544
F1
ss(g1229
tp5101
g1
(g6
tRp5102
S''
F1
ss(g2422
tp5103
g1
(g6
tRp5104
S'I'
F0.33333333333333331
sg2425
F0.33333333333333331
sg378
F0.33333333333333331
ss(S'See'
p5105
S'Marco'
p5106
tp5107
g1
(g6
tRp5108
g4803
F1
ss(S'said'
g952
tp5109
g1
(g6
tRp5110
g4683
F1
ss(S'because'
p5111
g4297
tp5112
g1
(g6
tRp5113
g5031
F0.5
sg4176
F0.5
ss(g4080
g4083
tp5114
g1
(g6
tRp5115
S'I'
F1
ss(g1929
g4959
tp5116
g1
(g6
tRp5117
S''
F1
ss(g449
g1409
tp5118
g1
(g6
tRp5119
g9
F1
ss(S'remember'
p5120
g20
tp5121
g1
(g6
tRp5122
g21
F1
ss(g726
g729
tp5123
g1
(g6
tRp5124
g4541
F1
ss(g2415
g2314
tp5125
g1
(g6
tRp5126
g2315
F1
ss(S'See,'
p5127
tp5128
g1
(g6
tRp5129
S'when'
p5130
F1
ss(g4076
g4634
tp5131
g1
(g6
tRp5132
g4637
F1
ss(g485
g1742
tp5133
g1
(g6
tRp5134
g1745
F1
ss(g2979
g2982
tp5135
g1
(g6
tRp5136
g2826
F1
ss(g3653
tp5137
g1
(g6
tRp5138
S'do'
p5139
F0.14423076923076925
sg156
F0.14423076923076925
sg1213
F0.14423076923076925
sg2398
F0.14423076923076925
sg3055
F0.14423076923076925
sg3425
F0.27884615384615391
ss(S'a'
g2788
tp5140
g1
(g6
tRp5141
g2789
F1
ss(g1950
S"there's"
p5142
tp5143
g1
(g6
tRp5144
g2186
F1
ss(g1461
tp5145
g1
(g6
tRp5146
g1462
F1
ss(g1264
g1267
tp5147
g1
(g6
tRp5148
S''
F1
ss(g549
tp5149
g1
(g6
tRp5150
S'on'
p5151
F1
ss(S'proud'
g194
tp5152
g1
(g6
tRp5153
S'be'
p5154
F0.5
sS'have'
p5155
F0.5
ss(S'deserves'
p5156
g3802
tp5157
g1
(g6
tRp5158
g3803
F1
ss(g899
g239
tp5159
g1
(g6
tRp5160
g242
F1
ss(g1745
g4347
tp5161
g1
(g6
tRp5162
S''
F1
ss(S"I'm"
p5163
S'pro'
p5164
tp5165
g1
(g6
tRp5166
S'life'
p5167
F1
ss(S'are'
p5168
S'working'
p5169
tp5170
g1
(g6
tRp5171
S'with'
p5172
F1
ss(g537
tp5173
g1
(g6
tRp5174
S''
F0.65000000000000002
sg3828
F0.34999999999999998
ss(g3680
tp5175
g1
(g6
tRp5176
g3038
F1
ss(g3473
g2881
tp5177
g1
(g6
tRp5178
g2882
F1
ss(S'the'
g3143
tp5179
g1
(g6
tRp5180
g3144
F1
ss(S'Martha'
p5181
tp5182
g1
(g6
tRp5183
S''
F1
ss(g2756
tp5184
g1
(g6
tRp5185
g2757
F1
ss(S'them'
p5186
S'as'
p5187
tp5188
g1
(g6
tRp5189
g2871
F1
ss(g1907
g4089
tp5190
g1
(g6
tRp5191
g1035
F1
ss(g2610
g2137
tp5192
g1
(g6
tRp5193
g2138
F1
ss(g4493
g4496
tp5194
g1
(g6
tRp5195
g4353
F1
ss(g4347
tp5196
g1
(g6
tRp5197
S''
F0.5
sg2260
F0.5
ss(g58
tp5198
g1
(g6
tRp5199
S''
F0.25714285714285712
sg4645
F0.48571428571428577
sg4067
F0.25714285714285712
ss(g1960
g1947
tp5200
g1
(g6
tRp5201
g996
F1
ss(S'economy'
p5202
g2936
tp5203
g1
(g6
tRp5204
g1946
F1
ss(g337
tp5205
g1
(g6
tRp5206
g3746
F0.25
sS'the'
p5207
F0.25
sg3060
F0.25
sg2151
F0.25
ss(g424
tp5208
g1
(g6
tRp5209
S''
F1
ss(g1334
g5202
tp5210
g1
(g6
tRp5211
g2936
F1
ss(g546
g549
tp5212
g1
(g6
tRp5213
g5151
F1
ss(g3909
tp5214
g1
(g6
tRp5215
g3912
F1
ss(g93
g3989
tp5216
g1
(g6
tRp5217
S'of'
p5218
F0.5
sS'as'
p5219
F0.5
ss(g4557
tp5220
g1
(g6
tRp5221
g4558
F1
ss(g1825
tp5222
g1
(g6
tRp5223
g1826
F1
ss(g4011
tp5224
g1
(g6
tRp5225
g2716
F0.20370370370370372
sg1043
F0.20370370370370372
sg3668
F0.38888888888888884
sg1663
F0.20370370370370372
ss(g2125
g934
tp5226
g1
(g6
tRp5227
g3399
F1
ss(S'incorrect'
p5228
tp5229
g1
(g6
tRp5230
g2589
F1
ss(S'And'
g2777
tp5231
g1
(g6
tRp5232
g531
F1
ss(S'As'
p5233
S'a'
tp5234
g1
(g6
tRp5235
g3563
F1
ss(g1663
g1242
tp5236
g1
(g6
tRp5237
S'years'
p5238
F1
ss(g2175
g374
tp5239
g1
(g6
tRp5240
g377
F1
ss(g1057
tp5241
g1
(g6
tRp5242
g5036
F0.5
sg1058
F0.5
ss(g387
g2827
tp5243
g1
(g6
tRp5244
g2828
F1
ss(g696
tp5245
g1
(g6
tRp5246
S''
F1
ss(g3395
tp5247
g1
(g6
tRp5248
g3396
F1
ss(g3412
g3415
tp5249
g1
(g6
tRp5250
S'the'
p5251
F1
ss(g1486
g1490
tp5252
g1
(g6
tRp5253
g4549
F1
ss(g2118
g2121
tp5254
g1
(g6
tRp5255
g3017
F1
ss(g1140
g1143
tp5256
g1
(g6
tRp5257
S''
F1
ss(g64
g67
tp5258
g1
(g6
tRp5259
g1938
F1
ss(g1078
tp5260
g1
(g6
tRp5261
g1079
F1
ss(g3225
tp5262
g1
(g6
tRp5263
g1394
F0.33333333333333331
sg4764
F0.33333333333333331
sg4765
F0.33333333333333331
ss(g960
g963
tp5264
g1
(g6
tRp5265
g2482
F1
ss(g1013
g4556
tp5266
g1
(g6
tRp5267
S'now'
p5268
F1
ss(g3572
g3628
tp5269
g1
(g6
tRp5270
g3631
F1
ss(S'When'
g72
tp5271
g1
(g6
tRp5272
g73
F1
ss(S'last'
p5273
g1573
tp5274
g1
(g6
tRp5275
g3745
F1
ss(g3472
tp5276
g1
(g6
tRp5277
S''
F0.48571428571428577
sg2478
F0.25714285714285712
sg1403
F0.25714285714285712
ss(g969
tp5278
g1
(g6
tRp5279
g972
F1
ss(g477
tp5280
g1
(g6
tRp5281
g480
F1
ss(g885
g2106
tp5282
g1
(g6
tRp5283
g1844
F1
ss(S"I'll"
p5284
g2172
tp5285
g1
(g6
tRp5286
S'you'
p5287
F1
ss(g2383
S'--'
p5288
tp5289
g1
(g6
tRp5290
S'can'
p5291
F1
ss(g1448
tp5292
g1
(g6
tRp5293
g1451
F1
ss(g4526
g2078
tp5294
g1
(g6
tRp5295
g2081
F1
ss(g2061
S'and'
p5296
tp5297
g1
(g6
tRp5298
S'a'
F1
ss(g3529
tp5299
g1
(g6
tRp5300
g2724
F1
ss(g1036
S'happens'
p5301
tp5302
g1
(g6
tRp5303
S'on'
p5304
F1
ss(g2013
g3889
tp5305
g1
(g6
tRp5306
g3890
F0.5
sg1809
F0.5
ss(g321
g687
tp5307
g1
(g6
tRp5308
g688
F1
ss(g1489
tp5309
g1
(g6
tRp5310
g2541
F1
ss(S'Here'
p5311
g1908
tp5312
g1
(g6
tRp5313
g1909
F1
ss(g1885
g1888
tp5314
g1
(g6
tRp5315
S'a'
F1
ss(g4588
g4591
tp5316
g1
(g6
tRp5317
g5156
F1
ss(g3839
tp5318
g1
(g6
tRp5319
g2731
F0.32857142857142857
sg3840
F0.22142857142857145
sg1062
F0.22142857142857145
sg1972
F0.11428571428571428
sg2802
F0.11428571428571428
ss(g814
g817
tp5320
g1
(g6
tRp5321
S'I'
F1
ss(g4160
tp5322
g1
(g6
tRp5323
S''
F0.58333333333333337
sg4163
F0.20833333333333334
sg2555
F0.20833333333333334
ss(g3611
tp5324
g1
(g6
tRp5325
g1804
F1
ss(g3456
S'a'
tp5326
g1
(g6
tRp5327
g2862
F1
ss(g3656
tp5328
g1
(g6
tRp5329
g2636
F0.33333333333333331
sg3657
F0.33333333333333331
sg2429
F0.33333333333333331
ss(S'It'
S'left'
p5330
tp5331
g1
(g6
tRp5332
S'our'
p5333
F1
ss(g2023
S'the'
p5334
tp5335
g1
(g6
tRp5336
g2582
F1
ss(g4482
g365
tp5337
g1
(g6
tRp5338
g366
F1
ss(S'raped,'
p5339
tp5340
g1
(g6
tRp5341
S'that'
p5342
F1
ss(g2650
tp5343
g1
(g6
tRp5344
g2653
F1
ss(g2121
g3017
tp5345
g1
(g6
tRp5346
g987
F1
ss(S'to'
g2834
tp5347
g1
(g6
tRp5348
g2837
F1
ss(g3890
g3893
tp5349
g1
(g6
tRp5350
S''
F1
ss(g1550
g1553
tp5351
g1
(g6
tRp5352
S'wants'
p5353
F1
ss(g1516
g5228
tp5354
g1
(g6
tRp5355
g2589
F1
ss(g736
tp5356
g1
(g6
tRp5357
g1647
F1
ss(g3403
S'a'
tp5358
g1
(g6
tRp5359
g3559
F1
ss(g978
tp5360
g1
(g6
tRp5361
g979
F1
ss(g639
tp5362
g1
(g6
tRp5363
g640
F1
ss(g3196
tp5364
g1
(g6
tRp5365
g836
F1
ss(g2973
g4621
tp5366
g1
(g6
tRp5367
S'had'
p5368
F1
ss(g823
S'I'
tp5369
g1
(g6
tRp5370
S'would'
p5371
F1
ss(g201
tp5372
g1
(g6
tRp5373
S'a'
F1
ss(g1566
g1569
tp5374
g1
(g6
tRp5375
g1925
F1
ss(S'Listen,'
p5376
g322
tp5377
g1
(g6
tRp5378
g325
F1
ss(g1581
tp5379
g1
(g6
tRp5380
S'this'
p5381
F1
ss(g3017
g987
tp5382
g1
(g6
tRp5383
g988
F1
ss(g3067
g76
tp5384
g1
(g6
tRp5385
S''
F1
ss(S'just'
p5386
g3068
tp5387
g1
(g6
tRp5388
g3071
F1
ss(g3225
g4765
tp5389
g1
(g6
tRp5390
g1115
F1
ss(g2473
tp5391
g1
(g6
tRp5392
g1170
F0.10047846889952156
sg1355
F0.19617224880382783
sg2072
F0.10047846889952156
sg4848
F0.10047846889952156
sg3239
F0.10047846889952156
sg3257
F0.10047846889952156
sS'in'
p5393
F0.10047846889952156
sg3134
F0.10047846889952156
sg1669
F0.10047846889952156
ss(g4621
g5368
tp5394
g1
(g6
tRp5395
S'when'
p5396
F1
ss(g1861
tp5397
g1
(g6
tRp5398
g3027
F0.5
sg3677
F0.5
ss(g550
g553
tp5399
g1
(g6
tRp5400
g3406
F1
ss(g4782
g2253
tp5401
g1
(g6
tRp5402
S''
F1
ss(g1467
g1470
tp5403
g1
(g6
tRp5404
g4189
F1
ss(g2260
g2263
tp5405
g1
(g6
tRp5406
S'state'
p5407
F1
ss(g1713
g1716
tp5408
g1
(g6
tRp5409
g3646
F1
ss(g1258
tp5410
g1
(g6
tRp5411
g1259
F1
ss(S'You'
g4531
tp5412
g1
(g6
tRp5413
g4532
F1
ss(g4796
g4848
tp5414
g1
(g6
tRp5415
g278
F1
ss(S'open'
p5416
g4907
tp5417
g1
(g6
tRp5418
g4910
F1
ss(g2273
g2276
tp5419
g1
(g6
tRp5420
g3371
F1
ss(g1169
g1953
tp5421
g1
(g6
tRp5422
S''
F1
ss(g326
tp5423
g1
(g6
tRp5424
g329
F1
ss(g2834
g2837
tp5425
g1
(g6
tRp5426
g393
F1
ss(g1038
tp5427
g1
(g6
tRp5428
g4215
F1
ss(g823
tp5429
g1
(g6
tRp5430
S'I'
F1
ss(S'bill'
p5431
g2555
tp5432
g1
(g6
tRp5433
g2558
F1
ss(g289
tp5434
g1
(g6
tRp5435
g523
F0.25
sS'is,'
p5436
F0.25
sg24
F0.25
sg4238
F0.25
ss(g2824
g248
tp5437
g1
(g6
tRp5438
g249
F1
ss(g1199
tp5439
g1
(g6
tRp5440
g2841
F0.14423076923076925
sS''
F0.14423076923076925
sg3752
F0.14423076923076925
sg1507
F0.14423076923076925
sg983
F0.14423076923076925
sg4718
F0.27884615384615391
ss(g4182
tp5441
g1
(g6
tRp5442
g4598
F1
ss(S'serve'
p5443
tp5444
g1
(g6
tRp5445
S''
F0.5
sS'them'
p5446
F0.5
ss(g4460
g4493
tp5447
g1
(g6
tRp5448
g4496
F1
ss(g4582
tp5449
g1
(g6
tRp5450
g4583
F1
ss(S"I've"
p5451
g1072
tp5452
g1
(g6
tRp5453
g1073
F1
ss(g3902
tp5454
g1
(g6
tRp5455
S''
F1
ss(g1456
g2050
tp5456
g1
(g6
tRp5457
S''
F1
ss(g2362
tp5458
g1
(g6
tRp5459
g2363
F1
ss(g2155
g2158
tp5460
g1
(g6
tRp5461
S'a'
F1
ss(g295
g298
tp5462
g1
(g6
tRp5463
g2548
F1
ss(S'a'
g1588
tp5464
g1
(g6
tRp5465
g1339
F0.5
sg1429
F0.5
ss(g2473
g1355
tp5466
g1
(g6
tRp5467
g1356
F1
ss(g1813
g5339
tp5468
g1
(g6
tRp5469
g5342
F1
ss(g1309
tp5470
g1
(g6
tRp5471
g1310
F1
ss(g695
tp5472
g1
(g6
tRp5473
g696
F1
ss(S'of'
p5474
g1095
tp5475
g1
(g6
tRp5476
S''
F1
ss(S'think'
g1376
tp5477
g1
(g6
tRp5478
g3473
F1
ss(g1382
g2099
tp5479
g1
(g6
tRp5480
S'not'
p5481
F1
ss(g1105
tp5482
g1
(g6
tRp5483
g3503
F0.25
sg2951
F0.25
sg4179
F0.25
sg1541
F0.25
ss(g1857
g2533
tp5484
g1
(g6
tRp5485
S'my'
p5486
F1
ss(g629
tp5487
g1
(g6
tRp5488
S'in'
p5489
F1
ss(g1275
tp5490
g1
(g6
tRp5491
g1276
F1
ss(g3182
g2756
tp5492
g1
(g6
tRp5493
g2757
F1
ss(g2816
S'to,'
p5494
tp5495
g1
(g6
tRp5496
S'they'
p5497
F1
ss(S'I'
g3113
tp5498
g1
(g6
tRp5499
g5139
F1
ss(g3119
g1442
tp5500
g1
(g6
tRp5501
g1443
F1
ss(S'the'
p5502
S'beginning,'
p5503
tp5504
g1
(g6
tRp5505
g677
F1
ss(g8
tp5506
g1
(g6
tRp5507
g3903
F0.33333333333333331
sg1559
F0.33333333333333331
sg3469
F0.33333333333333331
ss(g1121
g1124
tp5508
g1
(g6
tRp5509
g3493
F1
ss(g2606
S'a'
tp5510
g1
(g6
tRp5511
g583
F1
ss(g1205
g2960
tp5512
g1
(g6
tRp5513
g1136
F1
ss(S'governor,'
p5514
g1981
tp5515
g1
(g6
tRp5516
g767
F1
ss(g1539
g2085
tp5517
g1
(g6
tRp5518
g846
F0.091666666666666674
sg809
F0.091666666666666674
sg3867
F0.091666666666666674
sg1497
F0.091666666666666674
sg2955
F0.091666666666666674
sg4634
F0.091666666666666674
sg2595
F0.17916666666666667
sg1417
F0.17916666666666667
sg4251
F0.091666666666666674
ss(g3770
tp5519
g1
(g6
tRp5520
g3771
F1
ss(S'she'
p5521
S'is'
p5522
tp5523
g1
(g6
tRp5524
S'the'
p5525
F1
ss(g3843
tp5526
g1
(g6
tRp5527
g3412
F0.34999999999999998
sg1251
F0.65000000000000002
ss(S'Hold'
p5528
tp5529
g1
(g6
tRp5530
S'on'
p5531
F1
ss(g1727
g274
tp5532
g1
(g6
tRp5533
g5060
F1
ss(g361
g364
tp5534
g1
(g6
tRp5535
g4346
F1
ss(g4473
g3536
tp5536
g1
(g6
tRp5537
g3537
F1
ss(g3940
tp5538
g1
(g6
tRp5539
g3943
F1
ss(S'Every'
g3673
tp5540
g1
(g6
tRp5541
g3676
F1
ss(g624
tp5542
g1
(g6
tRp5543
g2565
F1
ss(g161
g165
tp5544
g1
(g6
tRp5545
g4849
F1
ss(g648
g651
tp5546
g1
(g6
tRp5547
S'out'
p5548
F1
ss(g512
tp5549
g1
(g6
tRp5550
g4482
F0.11111111111111113
sg1957
F0.11111111111111113
sg1755
F0.11111111111111113
sg2966
F0.11111111111111113
sg2175
F0.11111111111111113
sg1673
F0.11111111111111113
sg2720
F0.11111111111111113
sg1548
F0.11111111111111113
sg1317
F0.11111111111111113
ss(g3014
g4239
tp5551
g1
(g6
tRp5552
g1192
F1
ss(g4042
tp5553
g1
(g6
tRp5554
g4045
F1
ss(g1317
tp5555
g1
(g6
tRp5556
g5368
F0.10047846889952156
sg771
F0.19617224880382783
sg1351
F0.10047846889952156
sg1650
F0.10047846889952156
sg5156
F0.10047846889952156
sg1318
F0.10047846889952156
sg3473
F0.10047846889952156
sg851
F0.10047846889952156
sg3566
F0.10047846889952156
ss(g3828
tp5557
g1
(g6
tRp5558
g3896
F1
ss(g1476
tp5559
g1
(g6
tRp5560
g1477
F0.33333333333333331
sS'terminating'
p5561
F0.33333333333333331
sS'my'
p5562
F0.33333333333333331
ss(g2731
tp5563
g1
(g6
tRp5564
g1536
F0.36752136752136749
sg3597
F0.12820512820512819
sg2734
F0.12820512820512819
sS'men'
p5565
F0.12820512820512819
sg2735
F0.24786324786324787
ss(g3792
g4660
tp5566
g1
(g6
tRp5567
g1005
F1
ss(g3239
g3243
tp5568
g1
(g6
tRp5569
g11
F1
ss(g884
tp5570
g1
(g6
tRp5571
g3085
F1
ss(g5436
g4416
tp5572
g1
(g6
tRp5573
g3592
F1
ss(g1646
S'she'
p5574
tp5575
g1
(g6
tRp5576
S'should'
p5577
F1
ss(g4140
S'I'
tp5578
g1
(g6
tRp5579
g4265
F1
ss(g1264
tp5580
g1
(g6
tRp5581
g1267
F1
ss(g4907
g4910
tp5582
g1
(g6
tRp5583
S'an'
p5584
F1
ss(g2379
g2926
tp5585
g1
(g6
tRp5586
g4657
F1
ss(S'The'
S'68'
p5587
tp5588
g1
(g6
tRp5589
g3801
F1
ss(g3162
g4051
tp5590
g1
(g6
tRp5591
g4052
F1
ss(g2285
g3817
tp5592
g1
(g6
tRp5593
g5474
F1
ss(g967
g2530
tp5594
g1
(g6
tRp5595
g4274
F1
ss(g71
g4861
tp5596
g1
(g6
tRp5597
g3794
F1
ss(S'can'
p5598
g1862
tp5599
g1
(g6
tRp5600
S''
F1
ss(S'life'
g1580
tp5601
g1
(g6
tRp5602
g4119
F1
ss(g5139
S'just'
p5603
tp5604
g1
(g6
tRp5605
g3616
F1
ss(g2852
g2855
tp5606
g1
(g6
tRp5607
g5446
F1
ss(g4224
tp5608
g1
(g6
tRp5609
g2286
F0.5
sg3153
F0.5
ss(g1690
tp5610
g1
(g6
tRp5611
g2730
F0.5
sS'one'
p5612
F0.5
ss(g2230
g3267
tp5613
g1
(g6
tRp5614
g5502
F1
ss(g356
g359
tp5615
g1
(g6
tRp5616
g2939
F1
ss(S'the'
p5617
g3297
tp5618
g1
(g6
tRp5619
g1596
F0.5
sg1599
F0.5
ss(g614
g304
tp5620
g1
(g6
tRp5621
S'mandatory,'
p5622
F1
ss(S'Hey,'
p5623
tp5624
g1
(g6
tRp5625
S'David'
p5626
F1
ss(g694
g1587
tp5627
g1
(g6
tRp5628
g164
F1
ss(g1484
g1581
tp5629
g1
(g6
tRp5630
g5381
F1
ss(g1694
tp5631
g1
(g6
tRp5632
g3306
F1
ss(g905
g778
tp5633
g1
(g6
tRp5634
g288
F1
ss(g1917
g1920
tp5635
g1
(g6
tRp5636
g287
F1
ss(S'community'
p5637
tp5638
g1
(g6
tRp5639
g4550
F1
ss(g1946
g1335
tp5640
g1
(g6
tRp5641
g3173
F1
ss(g2061
tp5642
g1
(g6
tRp5643
g5296
F0.5
sS'is'
p5644
F0.5
ss(g886
tp5645
g1
(g6
tRp5646
g1600
F1
ss(g1985
S'I'
tp5647
g1
(g6
tRp5648
g3113
F1
ss(g3557
tp5649
g1
(g6
tRp5650
g4305
F0.5
sg1981
F0.5
ss(S'We'
g5168
tp5651
g1
(g6
tRp5652
g5169
F1
ss(S'a'
g1471
tp5653
g1
(g6
tRp5654
g1472
F1
ss(g3917
g730
tp5655
g1
(g6
tRp5656
S''
F1
ss(g3113
g5139
tp5657
g1
(g6
tRp5658
g5603
F1
ss(g3774
g1036
tp5659
g1
(g6
tRp5660
g5301
F1
ss(g2479
g600
tp5661
g1
(g6
tRp5662
S''
F1
ss(g469
g2473
tp5663
g1
(g6
tRp5664
g2072
F0.34999999999999998
sg1355
F0.65000000000000002
ss(g2650
g2653
tp5665
g1
(g6
tRp5666
S'to'
p5667
F1
ss(g3245
tp5668
g1
(g6
tRp5669
S''
F0.33333333333333331
sg366
F0.33333333333333331
sg3037
F0.33333333333333331
ss(g5105
tp5670
g1
(g6
tRp5671
g5106
F1
ss(S'and'
S'I'
tp5672
g1
(g6
tRp5673
g3106
F0.5
sg3104
F0.5
ss(g1554
g1557
tp5674
g1
(g6
tRp5675
g1029
F1
ss(g4350
g3084
tp5676
g1
(g6
tRp5677
g2500
F1
ss(g2380
g2383
tp5678
g1
(g6
tRp5679
g5288
F0.5
sg4014
F0.5
ss(g59
tp5680
g1
(g6
tRp5681
g60
F0.16883116883116883
sS''
F0.16883116883116883
sg3924
F0.16883116883116883
sg2868
F0.16883116883116883
sg584
F0.32467532467532462
ss(g2887
g814
tp5682
g1
(g6
tRp5683
g817
F1
ss(S'of'
p5684
g4354
tp5685
g1
(g6
tRp5686
S'taking'
p5687
F1
ss(g2221
g306
tp5688
g1
(g6
tRp5689
S''
F1
ss(g1650
g671
tp5690
g1
(g6
tRp5691
S'the'
p5692
F0.25714285714285712
sg672
F0.25714285714285712
sg1240
F0.48571428571428577
ss(g2300
g68
tp5693
g1
(g6
tRp5694
g3691
F1
ss(g759
g762
tp5695
g1
(g6
tRp5696
g4461
F1
ss(S'need'
p5697
g666
tp5698
g1
(g6
tRp5699
g2277
F1
ss(g1308
S'State'
p5700
tp5701
g1
(g6
tRp5702
S'of'
p5703
F1
ss(g3529
g2724
tp5704
g1
(g6
tRp5705
g2725
F1
ss(g4083
S'I'
tp5706
g1
(g6
tRp5707
S'would'
p5708
F1
ss(g2169
tp5709
g1
(g6
tRp5710
g2347
F1
ss(g2233
tp5711
g1
(g6
tRp5712
S''
F1
ss(g3563
g709
tp5713
g1
(g6
tRp5714
S'States'
p5715
F1
ss(g2310
tp5716
g1
(g6
tRp5717
g1621
F1
ss(g3137
tp5718
g1
(g6
tRp5719
S'Sanctions'
p5720
F1
ss(g2020
g2023
tp5721
g1
(g6
tRp5722
g5334
F1
ss(g5156
tp5723
g1
(g6
tRp5724
g3802
F1
ss(g3169
tp5725
g1
(g6
tRp5726
g3170
F1
ss(g10
tp5727
g1
(g6
tRp5728
g243
F1
ss(g248
tp5729
g1
(g6
tRp5730
g249
F1
ss(g2744
g1263
tp5731
g1
(g6
tRp5732
g1264
F1
ss(g4358
S'they'
p5733
tp5734
g1
(g6
tRp5735
g465
F1
ss(S'has'
p5736
g1816
tp5737
g1
(g6
tRp5738
g5436
F1
ss(g626
g629
tp5739
g1
(g6
tRp5740
g5489
F1
ss(g3137
g5720
tp5741
g1
(g6
tRp5742
g1554
F1
ss(g2983
g2986
tp5743
g1
(g6
tRp5744
g931
F0.5
sg161
F0.5
ss(g4532
g3449
tp5745
g1
(g6
tRp5746
g3450
F1
ss(S'I'
g3003
tp5747
g1
(g6
tRp5748
g5042
F1
ss(g2055
g2038
tp5749
g1
(g6
tRp5750
S'I'
F1
ss(g2499
tp5751
g1
(g6
tRp5752
g2206
F1
ss(g5187
g2871
tp5753
g1
(g6
tRp5754
g2874
F1
ss(g3721
g3724
tp5755
g1
(g6
tRp5756
S''
F1
ss(g303
g1934
tp5757
g1
(g6
tRp5758
g78
F1
ss(S'You'
S'need'
p5759
tp5760
g1
(g6
tRp5761
S'a'
F1
ss(S'I'
g2041
tp5762
g1
(g6
tRp5763
g4440
F1
ss(S'doing'
g1321
tp5764
g1
(g6
tRp5765
g1322
F1
ss(g1185
tp5766
g1
(g6
tRp5767
g652
F0.086538461538461536
sg568
F0.49519230769230771
sg2657
F0.086538461538461536
sg1186
F0.33173076923076922
ss(g53
g518
tp5768
g1
(g6
tRp5769
g519
F1
ss(g3881
g5393
tp5770
g1
(g6
tRp5771
g4041
F1
ss(g2559
tp5772
g1
(g6
tRp5773
g2562
F1
ss(g1001
g3055
tp5774
g1
(g6
tRp5775
g1489
F1
ss(g1124
g3493
tp5776
g1
(g6
tRp5777
g1956
F0.5
sg4626
F0.5
ss(g1114
S'need'
p5778
tp5779
g1
(g6
tRp5780
g1284
F1
ss(g4683
tp5781
g1
(g6
tRp5782
S''
F0.33333333333333331
sS"doesn't"
p5783
F0.33333333333333331
sg1430
F0.33333333333333331
ss(g2455
S'I'
tp5784
g1
(g6
tRp5785
g495
F1
ss(g5561
tp5786
g1
(g6
tRp5787
g4856
F1
ss(S'that'
p5788
g1014
tp5789
g1
(g6
tRp5790
g1832
F1
ss(S"You're"
p5791
g1039
tp5792
g1
(g6
tRp5793
S''
F1
ss(g4699
tp5794
g1
(g6
tRp5795
S''
F0.5
sg3711
F0.5
ss(S'Let'
p5796
S'New'
p5797
tp5798
g1
(g6
tRp5799
S'Jersey'
p5800
F1
ss(g3576
g3867
tp5801
g1
(g6
tRp5802
S''
F1
ss(g1068
tp5803
g1
(g6
tRp5804
g1071
F1
ss(g571
tp5805
g1
(g6
tRp5806
g3927
F0.058922558922558918
sg5120
F0.058922558922558918
sg2287
F0.058922558922558918
sg2409
F0.058922558922558918
sg2614
F0.058922558922558918
sg432
F0.058922558922558918
sg2717
F0.058922558922558918
sg1712
F0.058922558922558918
sg3200
F0.058922558922558918
sg3403
F0.058922558922558918
sg2367
F0.058922558922558918
sg2272
F0.058922558922558918
sS"I'm"
p5807
F0.058922558922558918
sg2032
F0.058922558922558918
sg2967
F0.058922558922558918
sS'can'
p5808
F0.11616161616161616
ss(g334
g337
tp5809
g1
(g6
tRp5810
g5207
F1
ss(g751
tp5811
g1
(g6
tRp5812
g754
F1
ss(g4235
g4238
tp5813
g1
(g6
tRp5814
S'my'
p5815
F1
ss(g5644
S'on'
p5816
tp5817
g1
(g6
tRp5818
S'this'
p5819
F1
ss(g3936
S'I'
tp5820
g1
(g6
tRp5821
S'think'
p5822
F1
ss(g2102
tp5823
g1
(g6
tRp5824
g2103
F1
ss(g3112
tp5825
g1
(g6
tRp5826
S'in'
p5827
F1
ss(g4335
g105
tp5828
g1
(g6
tRp5829
g3742
F1
ss(S'a'
g2061
tp5830
g1
(g6
tRp5831
g5296
F1
ss(g4351
g152
tp5832
g1
(g6
tRp5833
g155
F1
ss(g1635
tp5834
g1
(g6
tRp5835
S''
F0.5
sg755
F0.5
ss(g810
tp5836
g1
(g6
tRp5837
g813
F1
ss(g2403
tp5838
g1
(g6
tRp5839
g3360
F1
ss(g4504
g3353
tp5840
g1
(g6
tRp5841
g276
F1
ss(g4661
g2410
tp5842
g1
(g6
tRp5843
g2413
F1
ss(g3143
tp5844
g1
(g6
tRp5845
g3144
F1
ss(g1178
g1824
tp5846
g1
(g6
tRp5847
g5637
F1
ss(g1781
tp5848
g1
(g6
tRp5849
S''
F1
ss(S"I'll"
g2169
tp5850
g1
(g6
tRp5851
g2347
F1
ss(g656
tp5852
g1
(g6
tRp5853
g659
F1
ss(g1101
g1105
tp5854
g1
(g6
tRp5855
g2951
F1
ss(g39
tp5856
g1
(g6
tRp5857
g4728
F1
ss(g5622
tp5858
g1
(g6
tRp5859
g1746
F1
ss(g5703
g1563
tp5860
g1
(g6
tRp5861
S''
F1
ss(g1760
tp5862
g1
(g6
tRp5863
g966
F0.33333333333333331
sg1761
F0.33333333333333331
sg967
F0.33333333333333331
ss(g1490
g4549
tp5864
g1
(g6
tRp5865
S''
F1
ss(g3605
tp5866
g1
(g6
tRp5867
g3608
F1
ss(g4298
g49
tp5868
g1
(g6
tRp5869
g50
F1
ss(g5577
S'be'
p5870
tp5871
g1
(g6
tRp5872
g3119
F0.33333333333333331
sg1420
F0.33333333333333331
sg3138
F0.33333333333333331
ss(g1214
tp5873
g1
(g6
tRp5874
g5288
F0.20370370370370372
sg1215
F0.38888888888888884
sg4014
F0.20370370370370372
sg171
F0.20370370370370372
ss(g1241
S'life'
p5875
tp5876
g1
(g6
tRp5877
S''
F1
ss(g2818
g481
tp5878
g1
(g6
tRp5879
g482
F1
ss(g3810
g1591
tp5880
g1
(g6
tRp5881
S''
F0.32467532467532467
sS'to'
p5882
F0.16883116883116886
sg1594
F0.16883116883116886
sg1595
F0.16883116883116886
sg1598
F0.16883116883116886
ss(g4227
g935
tp5883
g1
(g6
tRp5884
S'matters'
p5885
F1
ss(g5494
g5497
tp5886
g1
(g6
tRp5887
g5598
F1
ss(g1942
tp5888
g1
(g6
tRp5889
g3222
F1
ss(S'prison'
p5890
S'in'
p5891
tp5892
g1
(g6
tRp5893
S'New'
p5894
F1
ss(g4713
tp5895
g1
(g6
tRp5896
g1726
F1
ss(g4444
g5443
tp5897
g1
(g6
tRp5898
S''
F1
ss(g1340
g1343
tp5899
g1
(g6
tRp5900
g2164
F1
ss(g1316
g2455
tp5901
g1
(g6
tRp5902
S'I'
F1
ss(S'failed'
p5903
g1339
tp5904
g1
(g6
tRp5905
g1340
F1
ss(g304
g5622
tp5906
g1
(g6
tRp5907
g1746
F1
ss(g5882
g1174
tp5908
g1
(g6
tRp5909
g1175
F1
ss(S'I'
g3105
tp5910
g1
(g6
tRp5911
g4563
F1
ss(g3243
tp5912
g1
(g6
tRp5913
g11
F1
ss(g3115
tp5914
g1
(g6
tRp5915
g1617
F0.33333333333333331
sg4532
F0.33333333333333331
sg651
F0.33333333333333331
ss(g881
g884
tp5916
g1
(g6
tRp5917
g3085
F1
ss(g718
g721
tp5918
g1
(g6
tRp5919
g188
F1
ss(g2828
g2831
tp5920
g1
(g6
tRp5921
g3725
F0.5
sg4433
F0.5
ss(g1599
g3402
tp5922
g1
(g6
tRp5923
g3403
F1
ss(g4045
g5088
tp5924
g1
(g6
tRp5925
g1486
F1
ss(g5565
tp5926
g1
(g6
tRp5927
S'asking'
p5928
F1
ss(S'You'
S'make'
p5929
tp5930
g1
(g6
tRp5931
S'these'
p5932
F1
ss(S'3'
tp5933
g1
(g6
tRp5934
g2372
F1
ss(g2044
tp5935
g1
(g6
tRp5936
S'strong'
p5937
F1
ss(g5155
g1413
tp5938
g1
(g6
tRp5939
g2838
F1
ss(g1036
tp5940
g1
(g6
tRp5941
g5301
F1
ss(g876
g4413
tp5942
g1
(g6
tRp5943
g5612
F1
ss(g337
g5207
tp5944
g1
(g6
tRp5945
g2474
F1
ss(g5287
S'something'
p5946
tp5947
g1
(g6
tRp5948
S''
F1
ss(g4897
g4900
tp5949
g1
(g6
tRp5950
g284
F1
ss(g841
tp5951
g1
(g6
tRp5952
g1401
F0.059027777777777776
sS''
F0.11631944444444445
sg5603
F0.059027777777777776
sS'that'
p5953
F0.059027777777777776
sS'I'
F0.059027777777777776
sg1289
F0.059027777777777776
sg1290
F0.059027777777777776
sg2978
F0.059027777777777776
sg1288
F0.059027777777777776
sg1291
F0.059027777777777776
sg16
F0.059027777777777776
sg1121
F0.11631944444444445
sg522
F0.059027777777777776
sg1292
F0.059027777777777776
sg1293
F0.059027777777777776
ss(g746
tp5954
g1
(g6
tRp5955
g749
F1
ss(g2545
g186
tp5956
g1
(g6
tRp5957
S'are'
p5958
F1
ss(g3341
g1674
tp5959
g1
(g6
tRp5960
S''
F1
ss(g3466
g3161
tp5961
g1
(g6
tRp5962
S'--'
p5963
F1
ss(g1824
g5637
tp5964
g1
(g6
tRp5965
g4550
F1
ss(g5963
g5807
tp5966
g1
(g6
tRp5967
S'pro-life'
p5968
F1
ss(g4683
g5783
tp5969
g1
(g6
tRp5970
g4363
F1
ss(S'She'
g4628
tp5971
g1
(g6
tRp5972
g4631
F1
ss(g3959
g1034
tp5973
g1
(g6
tRp5974
S''
F1
ss(g4541
tp5975
g1
(g6
tRp5976
g4544
F0.48571428571428577
sg5088
F0.25714285714285712
sS'it'
p5977
F0.25714285714285712
ss(g1215
g1218
tp5978
g1
(g6
tRp5979
g1701
F1
ss(g442
g445
tp5980
g1
(g6
tRp5981
g4601
F1
ss(g4041
tp5982
g1
(g6
tRp5983
g4042
F0.5
sg3909
F0.5
ss(g1772
tp5984
g1
(g6
tRp5985
g1608
F0.013742556115437473
sg2460
F0.013742556115437473
sg4000
F0.013742556115437473
sg3691
F0.013742556115437473
sg4690
F0.013742556115437473
sg4652
F0.013742556115437473
sg1336
F0.013742556115437473
sg300
F0.02737059092991297
sg2495
F0.013742556115437473
sg1410
F0.040998625744388464
sg2028
F0.02737059092991297
sg1465
F0.013742556115437473
sg1526
F0.013742556115437473
sg625
F0.02737059092991297
sg819
F0.013742556115437473
sg1841
F0.013742556115437473
sg2402
F0.013742556115437473
sg2403
F0.013742556115437473
sg3839
F0.054626660558863963
sg2818
F0.013742556115437473
sg1174
F0.013742556115437473
sg5890
F0.013742556115437473
sg4455
F0.013742556115437473
sg2819
F0.013742556115437473
sg1566
F0.013742556115437473
sg429
F0.013742556115437473
sg1285
F0.081882730187814959
sg342
F0.040998625744388464
sg624
F0.013742556115437473
sg374
F0.013742556115437473
sg2855
F0.013742556115437473
sg2899
F0.013742556115437473
sg248
F0.013742556115437473
sg476
F0.013742556115437473
sg2908
F0.095510765002290443
sg2834
F0.013742556115437473
sg4282
F0.081882730187814959
sg2155
F0.02737059092991297
sg5622
F0.013742556115437473
sg3904
F0.013742556115437473
sg2051
F0.02737059092991297
sg2816
F0.013742556115437473
sg1686
F0.013742556115437473
sg79
F0.013742556115437473
sg2437
F0.013742556115437473
ss(g3912
g4482
tp5986
g1
(g6
tRp5987
g365
F1
ss(g1289
g1426
tp5988
g1
(g6
tRp5989
g2155
F0.5
sg1526
F0.5
ss(g3515
g1950
tp5990
g1
(g6
tRp5991
g5142
F1
ss(g927
g930
tp5992
g1
(g6
tRp5993
S'a'
F1
ss(g3162
tp5994
g1
(g6
tRp5995
g4051
F1
ss(g4601
tp5996
g1
(g6
tRp5997
S''
F1
ss(g534
g606
tp5998
g1
(g6
tRp5999
S'that'
p6000
F1
ss(g5759
S'a'
tp6001
g1
(g6
tRp6002
g3558
F1
ss(g4803
g2272
tp6003
g1
(g6
tRp6004
g2273
F1
ss(g2963
g2966
tp6005
g1
(g6
tRp6006
S'does'
p6007
F1
ss(g2950
g183
tp6008
g1
(g6
tRp6009
g187
F0.5
sg189
F0.5
ss(g2717
g2720
tp6010
g1
(g6
tRp6011
g3263
F1
ss(g462
tp6012
g1
(g6
tRp6013
S''
F1
ss(S'The'
S'question'
p6014
tp6015
g1
(g6
tRp6016
g733
F1
ss(g1716
g3646
tp6017
g1
(g6
tRp6018
g1317
F1
ss(g2827
tp6019
g1
(g6
tRp6020
g2828
F1
ss(g4003
g4006
tp6021
g1
(g6
tRp6022
g1510
F1
ss(S'to'
g342
tp6023
g1
(g6
tRp6024
g2578
F0.33333333333333331
sg343
F0.33333333333333331
sg2137
F0.33333333333333331
ss(g5169
g5172
tp6025
g1
(g6
tRp6026
g3624
F0.5
sg5186
F0.5
ss(g633
tp6027
g1
(g6
tRp6028
g84
F0.25
sg3696
F0.25
sg895
F0.25
sg2099
F0.25
ss(g5531
S'one'
p6029
tp6030
g1
(g6
tRp6031
g530
F0.5
sg537
F0.5
ss(g1009
g457
tp6032
g1
(g6
tRp6033
g469
F1
ss(g4292
S'and'
p6034
tp6035
g1
(g6
tRp6036
g1954
F1
ss(g58
g4645
tp6037
g1
(g6
tRp6038
g25
F0.5
sg881
F0.5
ss(g1199
g4718
tp6039
g1
(g6
tRp6040
g1006
F0.5
sg3244
F0.5
ss(g2769
g2772
tp6041
g1
(g6
tRp6042
g3573
F1
ss(g1193
g1018
tp6043
g1
(g6
tRp6044
S'your'
p6045
F1
ss(g900
tp6046
g1
(g6
tRp6047
g901
F1
ss(g4352
tp6048
g1
(g6
tRp6049
S'their'
p6050
F1
ss(S'Attorney'
p6051
g4638
tp6052
g1
(g6
tRp6053
g4639
F1
ss(S'streets'
p6054
tp6055
g1
(g6
tRp6056
S'of'
p6057
F1
ss(g2398
g4079
tp6058
g1
(g6
tRp6059
S'United'
p6060
F1
ss(g425
tp6061
g1
(g6
tRp6062
g426
F1
ss(g532
g1712
tp6063
g1
(g6
tRp6064
g2708
F1
ss(g127
tp6065
g1
(g6
tRp6066
g128
F1
ss(g2991
g2994
tp6067
g1
(g6
tRp6068
g121
F1
ss(S'Part'
p6069
tp6070
g1
(g6
tRp6071
S'of'
p6072
F1
ss(S"I'll"
g2170
tp6073
g1
(g6
tRp6074
g3784
F1
ss(g3807
g3810
tp6075
g1
(g6
tRp6076
g1591
F0.73333333333333328
sg1067
F0.26666666666666666
ss(S'on'
p6077
g3968
tp6078
g1
(g6
tRp6079
g2979
F0.33333333333333331
sg4684
F0.33333333333333331
sg4685
F0.33333333333333331
ss(S"He's"
p6080
tp6081
g1
(g6
tRp6082
S'a'
F0.34999999999999998
sS'done'
p6083
F0.65000000000000002
ss(g1553
g5353
tp6084
g1
(g6
tRp6085
S'to'
p6086
F1
ss(g2669
tp6087
g1
(g6
tRp6088
g2672
F1
ss(g4416
g3592
tp6089
g1
(g6
tRp6090
g888
F1
ss(g2781
g1878
tp6091
g1
(g6
tRp6092
g1881
F1
ss(g5622
g1746
tp6093
g1
(g6
tRp6094
g1749
F1
ss(S'womb,'
g2181
tp6095
g1
(g6
tRp6096
g2182
F1
ss(g835
g3757
tp6097
g1
(g6
tRp6098
S''
F1
ss(g2240
tp6099
g1
(g6
tRp6100
S''
F0.16666666666666666
sg2245
F0.16666666666666666
sg2244
F0.16666666666666666
sg2243
F0.16666666666666666
sg2857
F0.16666666666666666
sg64
F0.16666666666666666
ss(g1769
tp6101
g1
(g6
tRp6102
S'a'
F0.068750000000000006
sg1772
F0.65937500000000004
sg666
F0.068750000000000006
sg4661
F0.068750000000000006
sS''
F0.13437499999999999
ss(g740
g64
tp6103
g1
(g6
tRp6104
g67
F1
ss(g4160
g4163
tp6105
g1
(g6
tRp6106
S'I'
F1
ss(g422
g360
tp6107
g1
(g6
tRp6108
g361
F1
ss(g1737
g3572
tp6109
g1
(g6
tRp6110
g3628
F1
ss(g4959
tp6111
g1
(g6
tRp6112
S''
F1
ss(g2960
g1136
tp6113
g1
(g6
tRp6114
g1137
F1
ss(g3896
tp6115
g1
(g6
tRp6116
g2428
F1
ss(g351
tp6117
g1
(g6
tRp6118
g4061
F1
ss(g723
g476
tp6119
g1
(g6
tRp6120
g477
F1
ss(g3338
g5890
tp6121
g1
(g6
tRp6122
g5891
F1
ss(g2219
g4224
tp6123
g1
(g6
tRp6124
g2286
F0.5
sg3153
F0.5
ss(g1087
tp6125
g1
(g6
tRp6126
S''
F1
ss(S'is,'
g1191
tp6127
g1
(g6
tRp6128
S'I'
F1
ss(S'a'
g221
tp6129
g1
(g6
tRp6130
g224
F1
ss(g2409
g4952
tp6131
g1
(g6
tRp6132
g589
F1
ss(S'to'
p6133
g2402
tp6134
g1
(g6
tRp6135
g3806
F1
ss(S"didn't"
g774
tp6136
g1
(g6
tRp6137
S'for'
p6138
F1
ss(S'a'
g726
tp6139
g1
(g6
tRp6140
g729
F1
ss(g1292
S'their'
p6141
tp6142
g1
(g6
tRp6143
g3384
F1
ss(g588
tp6144
g1
(g6
tRp6145
g796
F1
ss(g1557
g1029
tp6146
g1
(g6
tRp6147
g5069
F0.33333333333333331
sg5443
F0.33333333333333331
sg2446
F0.33333333333333331
ss(g4433
tp6148
g1
(g6
tRp6149
g4434
F1
ss(g355
tp6150
g1
(g6
tRp6151
g356
F1
ss(g2931
g2955
tp6152
g1
(g6
tRp6153
g2354
F1
ss(g5339
g5342
tp6154
g1
(g6
tRp6155
S'is'
p6156
F1
ss(g5036
g750
tp6157
g1
(g6
tRp6158
g751
F1
ss(g912
tp6159
g1
(g6
tRp6160
g913
F1
ss(S'The'
S'memorized'
p6161
tp6162
g1
(g6
tRp6163
S'25-second'
p6164
F1
ss(g2089
g3089
tp6165
g1
(g6
tRp6166
g3092
F1
ss(g1116
g1119
tp6167
g1
(g6
tRp6168
S''
F0.65000000000000002
sg1321
F0.34999999999999998
ss(g819
g822
tp6169
g1
(g6
tRp6170
S'snow'
p6171
F1
ss(g5142
g2186
tp6172
g1
(g6
tRp6173
g2187
F1
ss(g1369
g1363
tp6174
g1
(g6
tRp6175
g1364
F1
ss(g4598
tp6176
g1
(g6
tRp6177
S'a'
F0.73333333333333328
sg1343
F0.26666666666666666
ss(S'to'
g2816
tp6178
g1
(g6
tRp6179
g5494
F1
ss(g588
g796
tp6180
g1
(g6
tRp6181
S'a'
F1
ss(g5001
tp6182
g1
(g6
tRp6183
g949
F1
ss(g2896
g4152
tp6184
g1
(g6
tRp6185
S'Obama'
p6186
F1
ss(S"won't"
p6187
tp6188
g1
(g6
tRp6189
g2572
F1
ss(g2138
g2141
tp6190
g1
(g6
tRp6191
g3711
F1
ss(S'of'
p6192
g4292
tp6193
g1
(g6
tRp6194
g6034
F1
ss(g1020
g3124
tp6195
g1
(g6
tRp6196
g3125
F1
ss(g741
tp6197
g1
(g6
tRp6198
g742
F1
ss(g2713
tp6199
g1
(g6
tRp6200
g5788
F1
ss(S'I'
g3108
tp6201
g1
(g6
tRp6202
S'a'
F1
ss(g3134
g3137
tp6203
g1
(g6
tRp6204
g5720
F1
ss(g480
g1086
tp6205
g1
(g6
tRp6206
g3851
F1
ss(S'I'
g3110
tp6207
g1
(g6
tRp6208
S''
F1
ss(g2851
tp6209
g1
(g6
tRp6210
g2852
F1
ss(g1778
tp6211
g1
(g6
tRp6212
g1781
F1
ss(g5720
tp6213
g1
(g6
tRp6214
g1554
F1
ss(g1596
tp6215
g1
(g6
tRp6216
g1491
F1
ss(S'You'
g2990
tp6217
g1
(g6
tRp6218
g2991
F1
ss(S'And'
g5284
tp6219
g1
(g6
tRp6220
g2172
F1
ss(g217
g220
tp6221
g1
(g6
tRp6222
g3318
F1
ss(g3416
g3419
tp6223
g1
(g6
tRp6224
g4277
F1
ss(g5503
g677
tp6225
g1
(g6
tRp6226
g678
F1
ss(g1805
g1808
tp6227
g1
(g6
tRp6228
g330
F0.5
sg4621
F0.5
ss(g187
g289
tp6229
g1
(g6
tRp6230
g523
F1
ss(g5154
g2911
tp6231
g1
(g6
tRp6232
S'this'
p6233
F1
ss(g146
g149
tp6234
g1
(g6
tRp6235
g2015
F1
ss(g4900
g284
tp6236
g1
(g6
tRp6237
g4153
F1
ss(S'of'
p6238
g4350
tp6239
g1
(g6
tRp6240
g3084
F0.5
sS'they'
p6241
F0.5
ss(g2103
g1721
tp6242
g1
(g6
tRp6243
S'you'
p6244
F1
ss(g2795
tp6245
g1
(g6
tRp6246
g2796
F1
ss(S'I'
g2820
tp6247
g1
(g6
tRp6248
g2823
F0.5
sg239
F0.5
ss(g4292
tp6249
g1
(g6
tRp6250
g6034
F1
ss(S'in'
g3656
tp6251
g1
(g6
tRp6252
g3657
F1
ss(g2882
g1948
tp6253
g1
(g6
tRp6254
g3211
F1
ss(g988
g991
tp6255
g1
(g6
tRp6256
g1841
F1
ss(g3109
g5808
tp6257
g1
(g6
tRp6258
S'I'
F1
ss(S'This'
g4906
tp6259
g1
(g6
tRp6260
g3569
F1
ss(g3830
S'a'
tp6261
g1
(g6
tRp6262
g3554
F1
ss(S'the'
p6263
S'bill'
p6264
tp6265
g1
(g6
tRp6266
S''
F1
ss(g610
g2171
tp6267
g1
(g6
tRp6268
S''
F1
ss(S'a'
g1635
tp6269
g1
(g6
tRp6270
g755
F1
ss(S'They'
g1120
tp6271
g1
(g6
tRp6272
g1121
F1
ss(g787
tp6273
g1
(g6
tRp6274
S'I'
F1
ss(g864
g867
tp6275
g1
(g6
tRp6276
S'the'
p6277
F1
ss(g378
tp6278
g1
(g6
tRp6279
S'I'
F0.25
sg379
F0.25
sg2252
F0.25
sg2737
F0.25
ss(g1513
g1516
tp6280
g1
(g6
tRp6281
g5228
F1
ss(g313
tp6282
g1
(g6
tRp6283
g314
F1
ss(g2091
g2094
tp6284
g1
(g6
tRp6285
S'in'
p6286
F1
ss(S'we'
g4889
tp6287
g1
(g6
tRp6288
g1615
F1
ss(g942
g945
tp6289
g1
(g6
tRp6290
S''
F0.5
sg1984
F0.5
ss(g1939
g706
tp6291
g1
(g6
tRp6292
g710
F1
ss(g3085
g3088
tp6293
g1
(g6
tRp6294
g45
F1
ss(S'Because'
g3354
tp6295
g1
(g6
tRp6296
g3355
F1
ss(g2172
g5287
tp6297
g1
(g6
tRp6298
S'what'
p6299
F0.19999999999999998
sg2221
F0.19999999999999998
sg4140
F0.19999999999999998
sg4030
F0.19999999999999998
sg5946
F0.19999999999999998
ss(g5565
g5928
tp6300
g1
(g6
tRp6301
g941
F1
ss(g2682
tp6302
g1
(g6
tRp6303
S''
F1
ss(S'I'
g2044
tp6304
g1
(g6
tRp6305
g5937
F1
ss(g2170
g3784
tp6306
g1
(g6
tRp6307
g538
F1
ss(g3092
g3741
tp6308
g1
(g6
tRp6309
g1268
F1
ss(g512
g1755
tp6310
g1
(g6
tRp6311
g3324
F1
ss(g1940
g4040
tp6312
g1
(g6
tRp6313
S'of'
p6314
F1
ss(g1572
g2700
tp6315
g1
(g6
tRp6316
g2773
F0.5
sS'as'
p6317
F0.5
ss(g1817
g1820
tp6318
g1
(g6
tRp6319
g5049
F1
ss(g3388
S'a'
tp6320
g1
(g6
tRp6321
g626
F0.33333333333333331
sS'United'
p6322
F0.33333333333333331
sS'U'
F0.33333333333333331
ss(g613
tp6323
g1
(g6
tRp6324
S''
F0.33333333333333331
sS'a'
F0.33333333333333331
sg4907
F0.33333333333333331
ss(S'Jersey'
g348
tp6325
g1
(g6
tRp6326
g351
F1
ss(g2552
S'I'
tp6327
g1
(g6
tRp6328
g3109
F1
ss(g4591
g5156
tp6329
g1
(g6
tRp6330
g3802
F1
ss(S"That's"
p6331
tp6332
g1
(g6
tRp6333
g3854
F0.32857142857142857
sg486
F0.32857142857142857
sg2178
F0.17142857142857143
sg1625
F0.17142857142857143
ss(g3757
tp6334
g1
(g6
tRp6335
S''
F0.25714285714285712
sg4017
F0.25714285714285712
sg4089
F0.48571428571428577
ss(g213
S'I'
tp6336
g1
(g6
tRp6337
S'want'
p6338
F1
ss(g3200
tp6339
g1
(g6
tRp6340
g3745
F0.5
sg3201
F0.5
ss(g1186
g1189
tp6341
g1
(g6
tRp6342
g4757
F1
ss(g1798
tp6343
g1
(g6
tRp6344
g3833
F1
ss(g10
g243
tp6345
g1
(g6
tRp6346
g246
F1
ss(g1213
tp6347
g1
(g6
tRp6348
g2632
F1
ss(g3554
g1344
tp6349
g1
(g6
tRp6350
S'a'
F1
ss(g5822
S'I'
tp6351
g1
(g6
tRp6352
g3108
F1
ss(g440
g3424
tp6353
g1
(g6
tRp6354
g2297
F1
ss(g2583
g1629
tp6355
g1
(g6
tRp6356
g745
F1
ss(g831
g3779
tp6357
g1
(g6
tRp6358
S'get'
p6359
F1
ss(g4872
g2887
tp6360
g1
(g6
tRp6361
g814
F1
ss(g2908
g2913
tp6362
g1
(g6
tRp6363
g2351
F1
ss(S''
tp6364
g1
(g6
tRp6365
S''
F0
sg5791
F0.0049124012366884278
sS'What'
p6366
F0.019598076262452784
sg513
F0.0049124012366884278
sg2920
F0.0049124012366884278
sg643
F0.0049124012366884278
sg2703
F0.0049124012366884278
sg195
F0.024493301271040904
sg4557
F0.014702851253864665
sg146
F0.019598076262452784
sS'C'
F0.0098076262452765454
sS'Denver'
p6367
F0.0049124012366884278
sS'It'
p6368
F0.044074201305393378
sg4873
F0.0049124012366884278
sg2264
F0.0049124012366884278
sg5311
F0.0049124012366884278
sg400
F0.019598076262452784
sS'You'
p6369
F0.058759876331157736
sg1738
F0.0049124012366884278
sg1969
F0.0049124012366884278
sg3072
F0.053864651322569616
sg554
F0.0049124012366884278
sg863
F0.0049124012366884278
sg2194
F0.034283751288217139
sg3721
F0.0049124012366884278
sg563
F0.0049124012366884278
sg5623
F0.0098076262452765454
sg5451
F0.019598076262452784
sg5001
F0.0049124012366884278
sg5105
F0.0049124012366884278
sg4011
F0.024493301271040904
sg1057
F0.0098076262452765454
sg141
F0.0098076262452765454
sg425
F0.0049124012366884278
sS'3'
F0.0049124012366884278
sg6069
F0.0049124012366884278
sg6080
F0.014702851253864665
sg1691
F0.0049124012366884278
sg388
F0.029388526279629023
sg4501
F0.019598076262452784
sg3864
F0.014702851253864665
sg4101
F0.0098076262452765454
sS'"'
F0.0049124012366884278
sg5127
F0.0049124012366884278
sg2389
F0.0049124012366884278
sg4911
F0.014702851253864665
sS'And'
p6370
F0.10281690140845079
sg3770
F0.0049124012366884278
sg2496
F0.0098076262452765454
sg4080
F0.0049124012366884278
sg1326
F0.029388526279629023
sg2086
F0.0049124012366884278
sg5796
F0.0098076262452765454
sS'S'
F0.0049124012366884278
sS'Sure'
p6371
F0.0049124012366884278
sg2552
F0.0049124012366884278
sg1666
F0.0098076262452765454
sS"I'm"
p6372
F0.0098076262452765454
sS'David'
p6373
F0.0098076262452765454
sg1902
F0.0049124012366884278
sg6331
F0.029388526279629023
sg1294
F0.014702851253864665
sS'and'
p6374
F0.0049124012366884278
sg5528
F0.0049124012366884278
sS'I'
F0.039178976296805258
sg5376
F0.0049124012366884278
sg5181
F0.0049124012366884278
sg213
F0.0049124012366884278
sg2191
F0.0049124012366884278
sg1896
F0.0049124012366884278
sg872
F0.0049124012366884278
sg1792
F0.0049124012366884278
sg3944
F0.0049124012366884278
sg4588
F0.0098076262452765454
sg5233
F0.0049124012366884278
sg617
F0.0049124012366884278
sg6051
F0.0049124012366884278
sg3697
F0.0049124012366884278
sg4967
F0.014702851253864665
sg1379
F0.0049124012366884278
sg3342
F0.0098076262452765454
ss(g1670
g1673
tp6375
g1
(g6
tRp6376
g3701
F1
ss(g2581
g1558
tp6377
g1
(g6
tRp6378
g1559
F1
ss(g2586
S'a'
tp6379
g1
(g6
tRp6380
g3560
F0.5
sg630
F0.5
ss(S'about'
g3239
tp6381
g1
(g6
tRp6382
g3243
F1
ss(g2277
g2280
tp6383
g1
(g6
tRp6384
g4955
F1
ss(g1032
g2513
tp6385
g1
(g6
tRp6386
g763
F1
ss(S'should'
p6387
g2491
tp6388
g1
(g6
tRp6389
g2492
F1
ss(g3149
g3152
tp6390
g1
(g6
tRp6391
g6263
F1
ss(g1940
tp6392
g1
(g6
tRp6393
g4040
F0.5
sS'for'
p6394
F0.5
ss(g2398
tp6395
g1
(g6
tRp6396
g4079
F1
ss(g4008
tp6397
g1
(g6
tRp6398
g3829
F1
ss(g2913
tp6399
g1
(g6
tRp6400
g2351
F1
ss(g2020
tp6401
g1
(g6
tRp6402
g2023
F1
ss(g3528
tp6403
g1
(g6
tRp6404
g3529
F1
ss(g1896
g545
tp6405
g1
(g6
tRp6406
g546
F1
ss(S'party'
p6407
g5644
tp6408
g1
(g6
tRp6409
g5816
F1
ss(g1686
tp6410
g1
(g6
tRp6411
g1687
F1
ss(g3144
g3147
tp6412
g1
(g6
tRp6413
g3479
F0.5
sg4149
F0.5
ss(g2194
tp6414
g1
(g6
tRp6415
g4963
F0.14285714285714288
sg4897
F0.14285714285714288
sg3234
F0.14285714285714288
sg2019
F0.14285714285714288
sg6187
F0.14285714285714288
sg5168
F0.14285714285714288
sg2195
F0.14285714285714288
ss(S'This'
g4905
tp6416
g1
(g6
tRp6417
S'a'
F0.48571428571428577
sg4003
F0.25714285714285712
sS'unacceptable'
p6418
F0.25714285714285712
ss(g4728
tp6419
g1
(g6
tRp6420
S'to'
p6421
F1
ss(g2807
g1249
tp6422
g1
(g6
tRp6423
g1834
F1
ss(g2446
tp6424
g1
(g6
tRp6425
S''
F0.2460317460317461
sg2831
F0.2460317460317461
sg1799
F0.126984126984127
sg2519
F0.126984126984127
sg2117
F0.126984126984127
sg2304
F0.126984126984127
ss(g854
g4450
tp6426
g1
(g6
tRp6427
g3165
F1
ss(S'If'
g5521
tp6428
g1
(g6
tRp6429
g5522
F1
ss(g858
g5120
tp6430
g1
(g6
tRp6431
g20
F1
ss(g1322
g1325
tp6432
g1
(g6
tRp6433
g4733
F1
ss(g3936
tp6434
g1
(g6
tRp6435
S''
F0.125
sg831
F0.125
sg1878
F0.125
sg635
F0.125
sS'I'
F0.125
sg2212
F0.125
sg558
F0.125
sg5142
F0.125
ss(g4388
tp6436
g1
(g6
tRp6437
g3917
F0.33333333333333331
sg3528
F0.33333333333333331
sg4861
F0.33333333333333331
ss(S'solve'
p6438
g3793
tp6439
g1
(g6
tRp6440
g3951
F1
ss(g5791
tp6441
g1
(g6
tRp6442
g1039
F1
ss(g1104
g4246
tp6443
g1
(g6
tRp6444
S'vote'
p6445
F1
ss(g4052
tp6446
g1
(g6
tRp6447
S''
F0.5
sg3741
F0.5
ss(g6054
g6057
tp6448
g1
(g6
tRp6449
g1457
F1
ss(g421
g1205
tp6450
g1
(g6
tRp6451
g2960
F1
ss(g3725
g711
tp6452
g1
(g6
tRp6453
S''
F1
ss(g3828
g3896
tp6454
g1
(g6
tRp6455
g2428
F1
ss(g5637
g4550
tp6456
g1
(g6
tRp6457
g4551
F1
ss(g5692
S'legislation'
p6458
tp6459
g1
(g6
tRp6460
S''
F1
ss(g43
g3168
tp6461
g1
(g6
tRp6462
S'is'
p6463
F1
ss(g1246
g3459
tp6464
g1
(g6
tRp6465
g3460
F1
ss(g3342
tp6466
g1
(g6
tRp6467
g3343
F0.5
sg4628
F0.5
ss(g2461
g2464
tp6468
g1
(g6
tRp6469
g4980
F1
ss(g2460
tp6470
g1
(g6
tRp6471
g2461
F1
ss(S'for'
g1241
tp6472
g1
(g6
tRp6473
g5875
F1
ss(g5268
g71
tp6474
g1
(g6
tRp6475
g4861
F1
ss(g1840
g2525
tp6476
g1
(g6
tRp6477
g2234
F1
ss(g3193
g4067
tp6478
g1
(g6
tRp6479
S'a'
F1
ss(g1533
g2028
tp6480
g1
(g6
tRp6481
g2501
F0.5
sg2029
F0.5
ss(S'What'
S'they'
p6482
tp6483
g1
(g6
tRp6484
g5697
F1
ss(g1335
tp6485
g1
(g6
tRp6486
g4639
F0.25
sg3173
F0.25
sg1998
F0.25
sg3572
F0.25
ss(g3281
g3284
tp6487
g1
(g6
tRp6488
g3047
F1
ss(g57
g544
tp6489
g1
(g6
tRp6490
S'to'
p6491
F0.5
sg2122
F0.5
ss(g742
g634
tp6492
g1
(g6
tRp6493
g635
F1
ss(g940
g1238
tp6494
g1
(g6
tRp6495
g536
F1
ss(g503
S'when'
p6496
tp6497
g1
(g6
tRp6498
g850
F1
ss(g625
g577
tp6499
g1
(g6
tRp6500
g4782
F0.34999999999999998
sg578
F0.65000000000000002
ss(g670
g1037
tp6501
g1
(g6
tRp6502
S'should'
p6503
F1
ss(g2599
g1019
tp6504
g1
(g6
tRp6505
g3277
F1
ss(S'D'
tp6506
g1
(g6
tRp6507
S''
F1
ss(g4196
g1237
tp6508
g1
(g6
tRp6509
g2963
F1
ss(g4556
g5268
tp6510
g1
(g6
tRp6511
g71
F1
ss(g3038
g3041
tp6512
g1
(g6
tRp6513
g2437
F1
ss(g3011
tp6514
g1
(g6
tRp6515
g963
F0.48571428571428577
sg3014
F0.25714285714285712
sg3293
F0.25714285714285712
ss(g2442
g15
tp6516
g1
(g6
tRp6517
g16
F1
ss(g3416
tp6518
g1
(g6
tRp6519
g3419
F0.19999999999999998
sg3227
F0.19999999999999998
sg3253
F0.19999999999999998
sS''
F0.19999999999999998
sg1709
F0.19999999999999998
ss(S'He'
g2947
tp6520
g1
(g6
tRp6521
g2950
F1
ss(g568
g571
tp6522
g1
(g6
tRp6523
g2967
F0.5
sg2367
F0.5
ss(g499
tp6524
g1
(g6
tRp6525
g500
F0.5
sg854
F0.5
ss(g836
tp6526
g1
(g6
tRp6527
g837
F1
ss(g5587
g3801
tp6528
g1
(g6
tRp6529
S'of'
p6530
F1
ss(g2152
g1383
tp6531
g1
(g6
tRp6532
g1384
F1
ss(g201
S'a'
tp6533
g1
(g6
tRp6534
g2942
F1
ss(g2409
tp6535
g1
(g6
tRp6536
g4952
F1
ss(g885
tp6537
g1
(g6
tRp6538
g4020
F0.25714285714285712
sg3327
F0.48571428571428577
sg2106
F0.25714285714285712
ss(g288
S'a'
tp6539
g1
(g6
tRp6540
g2875
F1
ss(g3148
tp6541
g1
(g6
tRp6542
g3149
F1
ss(g274
g5060
tp6543
g1
(g6
tRp6544
g937
F1
ss(g868
g871
tp6545
g1
(g6
tRp6546
g1130
F1
ss(g1575
tp6547
g1
(g6
tRp6548
g1995
F1
ss(g1985
tp6549
g1
(g6
tRp6550
S'I'
F1
ss(g3732
g4219
tp6551
g1
(g6
tRp6552
g3635
F1
ss(g691
g5186
tp6553
g1
(g6
tRp6554
g5187
F1
ss(g6370
tp6555
g1
(g6
tRp6556
g5284
F0.048051948051948054
sg3617
F0.048051948051948054
sg2506
F0.048051948051948054
sg3300
F0.048051948051948054
sg1655
F0.048051948051948054
sg4366
F0.048051948051948054
sg2777
F0.048051948051948054
sg1476
F0.048051948051948054
sS'I'
F0.048051948051948054
sg1517
F0.048051948051948054
sg136
F0.094805194805194795
sg5163
F0.048051948051948054
sg3379
F0.32857142857142857
sg2586
F0.048051948051948054
ss(g1573
g3745
tp6557
g1
(g6
tRp6558
g3746
F1
ss(g921
g603
tp6559
g1
(g6
tRp6560
g534
F1
ss(g2009
g2013
tp6561
g1
(g6
tRp6562
S'have'
p6563
F0.5
sg3889
F0.5
ss(g1331
g1334
tp6564
g1
(g6
tRp6565
g5202
F1
ss(g762
tp6566
g1
(g6
tRp6567
g4461
F1
ss(g3524
g3527
tp6568
g1
(g6
tRp6569
S'of'
p6570
F1
ss(g3822
g6299
tp6571
g1
(g6
tRp6572
g3083
F1
ss(g4676
g3881
tp6573
g1
(g6
tRp6574
g5393
F1
ss(g5164
tp6575
g1
(g6
tRp6576
g5167
F1
ss(g1909
tp6577
g1
(g6
tRp6578
g1912
F1
ss(g4563
g3453
tp6579
g1
(g6
tRp6580
g936
F1
ss(g3195
g2769
tp6581
g1
(g6
tRp6582
g2772
F1
ss(g5301
g5304
tp6583
g1
(g6
tRp6584
g3939
F1
ss(g503
tp6585
g1
(g6
tRp6586
g6496
F1
ss(g2657
g2660
tp6587
g1
(g6
tRp6588
g2763
F0.5
sg26
F0.5
ss(g5106
g4803
tp6589
g1
(g6
tRp6590
g2272
F1
ss(g6496
g850
tp6591
g1
(g6
tRp6592
g851
F0.5
sg1351
F0.5
ss(g3011
g3014
tp6593
g1
(g6
tRp6594
g4239
F1
ss(g3801
tp6595
g1
(g6
tRp6596
S''
F0.33333333333333331
sg6530
F0.33333333333333331
sg973
F0.33333333333333331
ss(g1135
g1851
tp6597
g1
(g6
tRp6598
g1913
F1
ss(S'I'
g3103
tp6599
g1
(g6
tRp6600
S'a'
F1
ss(g530
g2571
tp6601
g1
(g6
tRp6602
g2692
F1
ss(g224
g3653
tp6603
g1
(g6
tRp6604
g3425
F0.5
sg156
F0.5
ss(g1406
g5565
tp6605
g1
(g6
tRp6606
g5928
F1
ss(g1641
g456
tp6607
g1
(g6
tRp6608
g4791
F1
ss(g646
g333
tp6609
g1
(g6
tRp6610
g334
F0.16666666666666666
sg810
F0.16666666666666666
sg1572
F0.16666666666666666
sg1573
F0.16666666666666666
sg1574
F0.16666666666666666
sg1576
F0.16666666666666666
ss(g3111
g3248
tp6611
g1
(g6
tRp6612
g3249
F1
ss(g535
g2602
tp6613
g1
(g6
tRp6614
g2603
F1
ss(g3617
tp6615
g1
(g6
tRp6616
g3063
F1
ss(g4549
tp6617
g1
(g6
tRp6618
S''
F0.65000000000000002
sg5687
F0.34999999999999998
ss(g4270
g4273
tp6619
g1
(g6
tRp6620
S''
F1
ss(g379
g382
tp6621
g1
(g6
tRp6622
g3082
F1
ss(g1268
g1271
tp6623
g1
(g6
tRp6624
S"he's"
p6625
F1
ss(g343
g346
tp6626
g1
(g6
tRp6627
g613
F1
ss(g2541
g2544
tp6628
g1
(g6
tRp6629
S'need'
p6630
F1
ss(g2919
g1544
tp6631
g1
(g6
tRp6632
g1545
F1
ss(g1114
tp6633
g1
(g6
tRp6634
g4889
F0.042105263157894743
sg355
F0.042105263157894743
sg1002
F0.12421052631578949
sg365
F0.042105263157894743
sg106
F0.042105263157894743
sg2513
F0.042105263157894743
sg1854
F0.042105263157894743
sg262
F0.083157894736842111
sg969
F0.042105263157894743
sg2974
F0.042105263157894743
sg3779
F0.042105263157894743
sg589
F0.042105263157894743
sg5778
F0.28842105263157897
sg3018
F0.083157894736842111
ss(g2323
g5684
tp6635
g1
(g6
tRp6636
g4354
F0.33333333333333331
sg4349
F0.33333333333333331
sg4348
F0.33333333333333331
ss(g1559
tp6637
g1
(g6
tRp6638
g1562
F1
ss(S'a'
g1275
tp6639
g1
(g6
tRp6640
g1276
F1
ss(S'symptoms'
g859
tp6641
g1
(g6
tRp6642
g926
F1
ss(g3882
g2907
tp6643
g1
(g6
tRp6644
g2908
F1
ss(g4000
g2291
tp6645
g1
(g6
tRp6646
g2292
F1
ss(g3864
tp6647
g1
(g6
tRp6648
g2066
F0.33333333333333331
sS'about'
p6649
F0.33333333333333331
sg2806
F0.33333333333333331
ss(g1581
g5381
tp6650
g1
(g6
tRp6651
S'on'
p6652
F1
ss(g4634
g4637
tp6653
g1
(g6
tRp6654
g3604
F1
ss(g5393
g4041
tp6655
g1
(g6
tRp6656
g4042
F1
ss(g2939
tp6657
g1
(g6
tRp6658
S''
F1
ss(g1820
g5049
tp6659
g1
(g6
tRp6660
S'I'
F1
ss(g1535
tp6661
g1
(g6
tRp6662
g4066
F1
ss(g3248
tp6663
g1
(g6
tRp6664
g3249
F1
ss(g3396
g286
tp6665
g1
(g6
tRp6666
g3004
F1
ss(g2501
g1540
tp6667
g1
(g6
tRp6668
g1541
F1
ss(g1816
g5436
tp6669
g1
(g6
tRp6670
g4416
F1
ss(g4014
g4017
tp6671
g1
(g6
tRp6672
g4025
F1
ss(g1498
g1501
tp6673
g1
(g6
tRp6674
g3060
F0.5
sg2151
F0.5
ss(g3318
g111
tp6675
g1
(g6
tRp6676
g112
F1
ss(S'a'
g3561
tp6677
g1
(g6
tRp6678
S'and'
p6679
F1
ss(g3165
g2384
tp6680
g1
(g6
tRp6681
S''
F1
ss(g589
g234
tp6682
g1
(g6
tRp6683
g235
F1
ss(g6369
g4892
tp6684
g1
(g6
tRp6685
g2201
F1
ss(g1027
g3037
tp6686
g1
(g6
tRp6687
g3508
F1
ss(g1303
g4422
tp6688
g1
(g6
tRp6689
g3839
F1
ss(g2649
S'up'
p6690
tp6691
g1
(g6
tRp6692
S''
F1
ss(g4642
tp6693
g1
(g6
tRp6694
S''
F1
ss(S'Jersey,'
g2227
tp6695
g1
(g6
tRp6696
S'the'
p6697
F1
ss(g16
g19
tp6698
g1
(g6
tRp6699
S'D'
F1
ss(g2837
g393
tp6700
g1
(g6
tRp6701
g378
F1
ss(S"He's"
S'a'
tp6702
g1
(g6
tRp6703
S'good'
p6704
F1
ss(g1666
tp6705
g1
(g6
tRp6706
S'I'
F0.5
sg3354
F0.5
ss(g4469
tp6707
g1
(g6
tRp6708
g4470
F1
ss(g1723
g788
tp6709
g1
(g6
tRp6710
g789
F1
ss(g2413
g5111
tp6711
g1
(g6
tRp6712
g4297
F1
ss(g1206
tp6713
g1
(g6
tRp6714
g1207
F1
ss(g5233
tp6715
g1
(g6
tRp6716
S'a'
F1
ss(g131
g1290
tp6717
g1
(g6
tRp6718
g1549
F1
ss(g5928
tp6719
g1
(g6
tRp6720
g941
F1
ss(g884
g3085
tp6721
g1
(g6
tRp6722
g3088
F1
ss(S'me'
p6723
S'the'
p6724
tp6725
g1
(g6
tRp6726
g2851
F1
ss(S'a'
g3563
tp6727
g1
(g6
tRp6728
g709
F1
ss(g517
g405
tp6729
g1
(g6
tRp6730
g1616
F1
ss(S'a'
g3556
tp6731
g1
(g6
tRp6732
S''
F1
ss(g2191
tp6733
g1
(g6
tRp6734
g409
F1
ss(g2081
g3478
tp6735
g1
(g6
tRp6736
g4796
F1
ss(g1680
g1683
tp6737
g1
(g6
tRp6738
g4582
F1
ss(g1795
S'I'
tp6739
g1
(g6
tRp6740
g2516
F1
ss(g149
tp6741
g1
(g6
tRp6742
S'a'
F0.48571428571428577
sg2015
F0.25714285714285712
sg3230
F0.25714285714285712
ss(g4224
g2286
tp6743
g1
(g6
tRp6744
g2287
F1
ss(g4101
g4104
tp6745
g1
(g6
tRp6746
g1494
F1
ss(g3079
g3440
tp6747
g1
(g6
tRp6748
g1951
F1
ss(g5720
g1554
tp6749
g1
(g6
tRp6750
g1557
F1
ss(S'a'
g3557
tp6751
g1
(g6
tRp6752
g4305
F1
ss(g3893
tp6753
g1
(g6
tRp6754
S''
F0.19786096256684493
sg2882
F0.10160427807486631
sg1892
F0.10160427807486631
sg140
F0.29411764705882354
sg6724
F0.10160427807486631
sg1840
F0.10160427807486631
sg4246
F0.10160427807486631
ss(g1503
tp6755
g1
(g6
tRp6756
g1506
F1
ss(g6051
tp6757
g1
(g6
tRp6758
g4638
F1
ss(g5041
g2519
tp6759
g1
(g6
tRp6760
g5953
F1
ss(g1013
tp6761
g1
(g6
tRp6762
g4556
F1
ss(g1031
tp6763
g1
(g6
tRp6764
g2736
F1
ss(g2578
g2581
tp6765
g1
(g6
tRp6766
g1558
F1
ss(g2402
tp6767
g1
(g6
tRp6768
g3806
F1
ss(g1596
g1491
tp6769
g1
(g6
tRp6770
g1092
F1
ss(g283
g1213
tp6771
g1
(g6
tRp6772
g2632
F1
ss(g246
g1461
tp6773
g1
(g6
tRp6774
g1462
F1
ss(g1869
g1526
tp6775
g1
(g6
tRp6776
g1529
F1
ss(g112
tp6777
g1
(g6
tRp6778
g2333
F0.16883116883116883
sg5522
F0.16883116883116883
sg5577
F0.32467532467532462
sg4156
F0.16883116883116883
sg115
F0.16883116883116883
ss(g2678
tp6779
g1
(g6
tRp6780
g2679
F1
ss(g300
g305
tp6781
g1
(g6
tRp6782
g5977
F1
ss(g1240
S'I'
tp6783
g1
(g6
tRp6784
g3114
F1
ss(g500
g503
tp6785
g1
(g6
tRp6786
g6496
F1
ss(g5489
g4469
tp6787
g1
(g6
tRp6788
g4470
F1
ss(g3561
g6679
tp6789
g1
(g6
tRp6790
S'a'
F1
ss(g495
g498
tp6791
g1
(g6
tRp6792
S'fine'
p6793
F1
ss(g1931
g6407
tp6794
g1
(g6
tRp6795
g5644
F1
ss(g2637
g2640
tp6796
g1
(g6
tRp6797
S''
F1
ss(g3187
g3190
tp6798
g1
(g6
tRp6799
S'the'
p6800
F1
ss(g2571
g2692
tp6801
g1
(g6
tRp6802
S'people'
p6803
F1
ss(g3014
tp6804
g1
(g6
tRp6805
g2062
F0.125
sg3156
F0.125
sg4239
F0.125
sg2669
F0.125
sg2781
F0.125
sg39
F0.125
sg5339
F0.125
sg550
F0.125
ss(g4464
g470
tp6806
g1
(g6
tRp6807
S'you'
p6808
F1
ss(g2363
tp6809
g1
(g6
tRp6810
g2366
F1
ss(g468
g4529
tp6811
g1
(g6
tRp6812
S''
F1
ss(S'people'
p6813
g4
tp6814
g1
(g6
tRp6815
g8
F1
ss(g4914
g954
tp6816
g1
(g6
tRp6817
g5431
F1
ss(S'be'
p6818
g4433
tp6819
g1
(g6
tRp6820
g4434
F1
ss(g1870
g1760
tp6821
g1
(g6
tRp6822
g1761
F1
ss(g1669
tp6823
g1
(g6
tRp6824
g1670
F1
ss(g538
g1257
tp6825
g1
(g6
tRp6826
S''
F1
ss(S'down'
g414
tp6827
g1
(g6
tRp6828
g415
F1
ss(g6045
g2537
tp6829
g1
(g6
tRp6830
g2540
F1
ss(S'a'
g2862
tp6831
g1
(g6
tRp6832
g2863
F1
ss(g5870
g3138
tp6833
g1
(g6
tRp6834
g3139
F1
ss(g2152
tp6835
g1
(g6
tRp6836
g1383
F1
ss(g3861
g1414
tp6837
g1
(g6
tRp6838
g2792
F1
ss(g963
g2482
tp6839
g1
(g6
tRp6840
g2485
F0.65000000000000002
sg1706
F0.34999999999999998
ss(g384
g387
tp6841
g1
(g6
tRp6842
g2827
F0.5
sS'knows'
p6843
F0.5
ss(g4413
g5612
tp6844
g1
(g6
tRp6845
g535
F1
ss(g132
g135
tp6846
g1
(g6
tRp6847
g3503
F1
ss(g1704
g1016
tp6848
g1
(g6
tRp6849
g4227
F1
ss(g908
g911
tp6850
g1
(g6
tRp6851
g1369
F1
ss(g326
g329
tp6852
g1
(g6
tRp6853
S'I'
F1
ss(g1383
tp6854
g1
(g6
tRp6855
g1384
F1
ss(g338
g341
tp6856
g1
(g6
tRp6857
S''
F1
ss(g287
g453
tp6858
g1
(g6
tRp6859
S''
F1
ss(g1804
tp6860
g1
(g6
tRp6861
g1805
F1
ss(S'I'
g3112
tp6862
g1
(g6
tRp6863
g5827
F1
ss(S'anything'
p6864
g4627
tp6865
g1
(g6
tRp6866
S'they'
p6867
F1
ss(g607
g610
tp6868
g1
(g6
tRp6869
g2171
F1
ss(g862
g4460
tp6870
g1
(g6
tRp6871
g4493
F1
ss(g4848
g278
tp6872
g1
(g6
tRp6873
g2442
F1
ss(g1031
g2736
tp6874
g1
(g6
tRp6875
g2737
F1
ss(g3108
tp6876
g1
(g6
tRp6877
S'a'
F0.091666666666666674
sg2137
F0.091666666666666674
sg1659
F0.091666666666666674
sg3388
F0.091666666666666674
sS'something'
p6878
F0.091666666666666674
sg1298
F0.091666666666666674
sg2578
F0.091666666666666674
sg343
F0.17916666666666667
sg3079
F0.17916666666666667
ss(g5574
g5577
tp6879
g1
(g6
tRp6880
g5870
F1
ss(g2013
tp6881
g1
(g6
tRp6882
g789
F0.18588235294117644
sg1150
F0.063529411764705876
sg3889
F0.12470588235294115
sg3653
F0.12470588235294115
sg4616
F0.12470588235294115
sg3460
F0.12470588235294115
sg3089
F0.063529411764705876
sg4358
F0.063529411764705876
sg3456
F0.12470588235294115
ss(S'the'
g3195
tp6883
g1
(g6
tRp6884
g2769
F0.5
sg3524
F0.5
ss(g2187
tp6885
g1
(g6
tRp6886
g2190
F1
ss(g1330
g1939
tp6887
g1
(g6
tRp6888
g706
F1
ss(g4538
g2341
tp6889
g1
(g6
tRp6890
g2344
F1
ss(g1980
g4195
tp6891
g1
(g6
tRp6892
g4196
F1
ss(g1954
g3466
tp6893
g1
(g6
tRp6894
g3161
F1
ss(g4206
g5416
tp6895
g1
(g6
tRp6896
g4907
F1
ss(g3156
g6394
tp6897
g1
(g6
tRp6898
S'it'
p6899
F1
ss(g2731
g2735
tp6900
g1
(g6
tRp6901
S''
F0.5
sg2621
F0.5
ss(g3741
g1268
tp6902
g1
(g6
tRp6903
g1271
F1
ss(g2344
g4298
tp6904
g1
(g6
tRp6905
g49
F1
ss(g422
tp6906
g1
(g6
tRp6907
g360
F1
ss(g2496
g2499
tp6908
g1
(g6
tRp6909
g2206
F1
ss(g2913
g2351
tp6910
g1
(g6
tRp6911
S''
F0.5
sg370
F0.5
ss(S'showing'
p6912
g3487
tp6913
g1
(g6
tRp6914
g3488
F1
ss(g892
tp6915
g1
(g6
tRp6916
g1899
F1
ss(g1016
tp6917
g1
(g6
tRp6918
g4227
F1
ss(g1024
g1114
tp6919
g1
(g6
tRp6920
g5778
F0.65000000000000002
sg6387
F0.34999999999999998
ss(g3994
g1038
tp6921
g1
(g6
tRp6922
g4215
F1
ss(g2863
tp6923
g1
(g6
tRp6924
g2433
F1
ss(g4042
g4045
tp6925
g1
(g6
tRp6926
g5088
F1
ss(g2540
tp6927
g1
(g6
tRp6928
S''
F0.41666666666666663
sg2144
F0.14583333333333334
sg1580
F0.14583333333333334
sg1581
F0.14583333333333334
sg4255
F0.14583333333333334
ss(g1343
tp6929
g1
(g6
tRp6930
g2164
F1
ss(g4239
tp6931
g1
(g6
tRp6932
g1192
F1
ss(S'went'
g4881
tp6933
g1
(g6
tRp6934
g4690
F1
ss(S'The'
g3042
tp6935
g1
(g6
tRp6936
g3043
F1
ss(g5070
tp6937
g1
(g6
tRp6938
S'a'
F0.21111111111111111
sg2253
F0.072222222222222215
sg1143
F0.14166666666666666
sg2871
F0.072222222222222215
sg527
F0.072222222222222215
sg3817
F0.072222222222222215
sg5514
F0.072222222222222215
sg4381
F0.072222222222222215
sg2324
F0.072222222222222215
sg183
F0.14166666666666666
ss(g3653
g3425
tp6939
g1
(g6
tRp6940
g639
F0.5
sg3426
F0.5
ss(g249
g252
tp6941
g1
(g6
tRp6942
g1448
F1
ss(g1884
tp6943
g1
(g6
tRp6944
g1885
F1
ss(g2099
g5481
tp6945
g1
(g6
tRp6946
S'have'
p6947
F1
ss(g1908
tp6948
g1
(g6
tRp6949
S''
F0.1036519871106337
sg573
F0.020945220193340486
sg4388
F0.04162191192266379
sg4465
F0.020945220193340486
sg793
F0.020945220193340486
sg2277
F0.020945220193340486
sg4175
F0.020945220193340486
sg382
F0.020945220193340486
sg606
F0.020945220193340486
sg1426
F0.04162191192266379
sg1268
F0.020945220193340486
sg572
F0.082975295381310391
sg1909
F0.04162191192266379
sg1456
F0.020945220193340486
sg6418
F0.020945220193340486
sg1303
F0.062298603651987076
sg5268
F0.020945220193340486
sg3416
F0.04162191192266379
sS'a'
F0.082975295381310391
sg5816
F0.020945220193340486
sg571
F0.04162191192266379
sg117
F0.020945220193340486
sg1701
F0.020945220193340486
sg4120
F0.04162191192266379
sg2211
F0.020945220193340486
sg792
F0.020945220193340486
sg4003
F0.062298603651987076
sg574
F0.020945220193340486
ss(g4952
g589
tp6950
g1
(g6
tRp6951
g234
F1
ss(S'state'
g1597
tp6952
g1
(g6
tRp6953
g300
F0.5
sg1174
F0.5
ss(g1569
tp6954
g1
(g6
tRp6955
g1925
F1
ss(g2201
tp6956
g1
(g6
tRp6957
S'a'
F0.07943143812709029
sg2202
F0.040133779264214041
sg2132
F0.040133779264214041
sg201
F0.040133779264214041
sg2916
F0.040133779264214041
sg263
F0.040133779264214041
sg2145
F0.11872909698996653
sg543
F0.040133779264214041
sg3426
F0.040133779264214041
sg867
F0.040133779264214041
sg341
F0.040133779264214041
sg1225
F0.040133779264214041
sg6690
F0.040133779264214041
sg127
F0.040133779264214041
sg4422
F0.040133779264214041
sg1690
F0.040133779264214041
sg3478
F0.040133779264214041
sg1124
F0.040133779264214041
sg544
F0.07943143812709029
sg639
F0.040133779264214041
sg2311
F0.040133779264214041
ss(g480
tp6958
g1
(g6
tRp6959
g1086
F1
ss(g3696
g1813
tp6960
g1
(g6
tRp6961
g5339
F1
ss(g1516
tp6962
g1
(g6
tRp6963
g5228
F0.071794871794871803
sg179
F0.071794871794871803
sg5186
F0.071794871794871803
sg3959
F0.071794871794871803
sg4849
F0.14102564102564105
sg2525
F0.071794871794871803
sg746
F0.071794871794871803
sg6141
F0.071794871794871803
sg4473
F0.071794871794871803
sS'you'
p6964
F0.071794871794871803
sg2292
F0.14102564102564105
sg313
F0.071794871794871803
ss(g463
S'I'
tp6965
g1
(g6
tRp6966
g2303
F1
ss(g1415
g2663
tp6967
g1
(g6
tRp6968
g1299
F0.73333333333333328
sg3512
F0.26666666666666666
ss(g4473
tp6969
g1
(g6
tRp6970
g3536
F1
ss(g3003
g5042
tp6971
g1
(g6
tRp6972
g1013
F0.5
sg1022
F0.5
ss(g2094
tp6973
g1
(g6
tRp6974
g6286
F1
ss(g3147
g3479
tp6975
g1
(g6
tRp6976
S''
F1
ss(g1972
g1975
tp6977
g1
(g6
tRp6978
g1928
F1
ss(g298
g2548
tp6979
g1
(g6
tRp6980
g2551
F1
ss(g620
g2824
tp6981
g1
(g6
tRp6982
g248
F1
ss(S"shouldn't"
p6983
g299
tp6984
g1
(g6
tRp6985
g908
F1
ss(g855
g858
tp6986
g1
(g6
tRp6987
g5120
F1
ss(S'We'
g2019
tp6988
g1
(g6
tRp6989
g2020
F1
ss(g2666
tp6990
g1
(g6
tRp6991
g3219
F1
ss(g1930
g3372
tp6992
g1
(g6
tRp6993
g3373
F1
ss(g1390
g3469
tp6994
g1
(g6
tRp6995
g3472
F1
ss(S'I'
g3109
tp6996
g1
(g6
tRp6997
g5808
F1
ss(g2559
g2562
tp6998
g1
(g6
tRp6999
S''
F1
ss(g6418
tp7000
g1
(g6
tRp7001
S''
F1
ss(g2522
tp7002
g1
(g6
tRp7003
g1521
F1
ss(S'was'
g1348
tp7004
g1
(g6
tRp7005
g855
F0.65000000000000002
sg3487
F0.34999999999999998
ss(g4661
tp7006
g1
(g6
tRp7007
g2410
F1
ss(g4104
g1494
tp7008
g1
(g6
tRp7009
S'a'
F1
ss(g5958
S'a'
tp7010
g1
(g6
tRp7011
g132
F1
ss(g1393
g2614
tp7012
g1
(g6
tRp7013
g2615
F1
ss(g1417
tp7014
g1
(g6
tRp7015
S''
F1
ss(g4652
S'a'
tp7016
g1
(g6
tRp7017
g2856
F1
ss(g60
g63
tp7018
g1
(g6
tRp7019
g3677
F1
ss(g1215
tp7020
g1
(g6
tRp7021
S''
F0.5
sg1218
F0.5
ss(S'pro-life'
p7022
g595
tp7023
g1
(g6
tRp7024
g596
F1
ss(g2741
g2744
tp7025
g1
(g6
tRp7026
g1263
F1
ss(g2646
g2649
tp7027
g1
(g6
tRp7028
g6690
F1
ss(g3161
tp7029
g1
(g6
tRp7030
g5963
F1
ss(g803
g2252
tp7031
g1
(g6
tRp7032
S'that'
p7033
F1
ss(S'and'
p7034
g166
tp7035
g1
(g6
tRp7036
g167
F1
ss(g1949
g2592
tp7037
g1
(g6
tRp7038
g7034
F1
ss(g3507
S'in'
p7039
tp7040
g1
(g6
tRp7041
g917
F1
ss(g498
tp7042
g1
(g6
tRp7043
g6793
F1
ss(g8
g3903
tp7044
g1
(g6
tRp7045
g3904
F1
ss(g3628
g3631
tp7046
g1
(g6
tRp7047
g968
F1
ss(g2389
tp7048
g1
(g6
tRp7049
g2390
F1
ss(S"I've"
g4328
tp7050
g1
(g6
tRp7051
S'the'
p7052
F1
ss(S'"'
tp7053
g1
(g6
tRp7054
S''
F1
ss(g1553
tp7055
g1
(g6
tRp7056
g5353
F0.5
sS'and'
p7057
F0.5
ss(g2341
g2344
tp7058
g1
(g6
tRp7059
g4298
F1
ss(g1937
g1812
tp7060
g1
(g6
tRp7061
g3850
F1
ss(g5819
g4684
tp7062
g1
(g6
tRp7063
S''
F1
ss(g1150
g1153
tp7064
g1
(g6
tRp7065
S'years'
p7066
F1
ss(g63
g3677
tp7067
g1
(g6
tRp7068
g3680
F1
ss(g6368
tp7069
g1
(g6
tRp7070
g3931
F0.11333333333333333
sS'does'
p7071
F0.11333333333333333
sg5330
F0.11333333333333333
sg499
F0.11333333333333333
sg3268
F0.43333333333333329
sg4235
F0.11333333333333333
ss(g3691
g208
tp7072
g1
(g6
tRp7073
g209
F1
ss(g5228
g2589
tp7074
g1
(g6
tRp7075
g1949
F1
ss(g1646
tp7076
g1
(g6
tRp7077
g3515
F0.5
sg5574
F0.5
ss(g166
tp7078
g1
(g6
tRp7079
g167
F1
ss(g1243
tp7080
g1
(g6
tRp7081
g1877
F0.33333333333333331
sg3636
F0.33333333333333331
sg2713
F0.33333333333333331
ss(g1244
g4020
tp7082
g1
(g6
tRp7083
g200
F1
ss(S'different'
g161
tp7084
g1
(g6
tRp7085
g165
F1
ss(g762
g4461
tp7086
g1
(g6
tRp7087
g4464
F1
ss(g2868
tp7088
g1
(g6
tRp7089
g2357
F1
ss(g3890
tp7090
g1
(g6
tRp7091
g3893
F1
ss(g1535
g4066
tp7092
g1
(g6
tRp7093
g4616
F1
ss(S'And'
g3617
tp7094
g1
(g6
tRp7095
g3063
F1
ss(g1068
g1071
tp7096
g1
(g6
tRp7097
g4007
F1
ss(S'do'
g1293
tp7098
g1
(g6
tRp7099
S''
F1
ss(g5376
tp7100
g1
(g6
tRp7101
g322
F1
ss(g5070
g527
tp7102
g1
(g6
tRp7103
g533
F1
ss(g1082
g2323
tp7104
g1
(g6
tRp7105
g5684
F1
ss(g1465
g1313
tp7106
g1
(g6
tRp7107
g1316
F1
ss(g1845
tp7108
g1
(g6
tRp7109
S'a'
F0.092592592592592601
sg2559
F0.092592592592592601
sg504
F0.092592592592592601
sg3373
F0.092592592592592601
sg2725
F0.092592592592592601
sg1674
F0.092592592592592601
sg1848
F0.44444444444444442
ss(g2315
g2318
tp7110
g1
(g6
tRp7111
S'state'
p7112
F1
ss(g305
g5977
tp7113
g1
(g6
tRp7114
g279
F1
ss(g199
g1907
tp7115
g1
(g6
tRp7116
g4089
F1
ss(g3473
tp7117
g1
(g6
tRp7118
g2881
F1
ss(g1995
g4402
tp7119
g1
(g6
tRp7120
S'I'
F1
ss(g1761
g1764
tp7121
g1
(g6
tRp7122
g3011
F1
ss(g1977
g1980
tp7123
g1
(g6
tRp7124
g4195
F1
ss(g1409
g9
tp7125
g1
(g6
tRp7126
g1513
F0.5
sg4713
F0.5
ss(g889
g892
tp7127
g1
(g6
tRp7128
g1899
F1
ss(g2763
g2766
tp7129
g1
(g6
tRp7130
g3239
F0.5
sg3134
F0.5
ss(g5127
g5130
tp7131
g1
(g6
tRp7132
S"you're"
p7133
F1
ss(g226
tp7134
g1
(g6
tRp7135
g229
F1
ss(g2522
g1521
tp7136
g1
(g6
tRp7137
g1522
F1
ss(g6649
g3257
tp7138
g1
(g6
tRp7139
g3258
F1
ss(g955
g1021
tp7140
g1
(g6
tRp7141
g5006
F1
ss(g1029
g5069
tp7142
g1
(g6
tRp7143
g5070
F1
ss(g871
tp7144
g1
(g6
tRp7145
g540
F0.5
sg1130
F0.5
ss(g5528
g5531
tp7146
g1
(g6
tRp7147
g6029
F1
ss(g1028
g2037
tp7148
g1
(g6
tRp7149
g3225
F1
ss(g1170
g1173
tp7150
g1
(g6
tRp7151
g283
F1
ss(S'not'
p7152
g543
tp7153
g1
(g6
tRp7154
g1785
F1
ss(g2243
tp7155
g1
(g6
tRp7156
S''
F1
ss(g1021
tp7157
g1
(g6
tRp7158
g1739
F0.5
sg5006
F0.5
ss(g4558
g281
tp7159
g1
(g6
tRp7160
S''
F1
ss(g1067
tp7161
g1
(g6
tRp7162
g1068
F1
ss(g2820
g2823
tp7163
g1
(g6
tRp7164
g1884
F1
ss(g3072
tp7165
g1
(g6
tRp7166
g446
F0.092105263157894746
sg3042
F0.092105263157894746
sg6161
F0.092105263157894746
sg6014
F0.092105263157894746
sg3176
F0.092105263157894746
sg702
F0.092105263157894746
sg5587
F0.092105263157894746
sg3073
F0.35526315789473695
ss(S'Not'
g2806
tp7167
g1
(g6
tRp7168
g2807
F1
ss(g1580
g4119
tp7169
g1
(g6
tRp7170
g2568
F1
ss(g3022
g2734
tp7171
g1
(g6
tRp7172
S''
F1
ss(S'the'
g6054
tp7173
g1
(g6
tRp7174
g6057
F1
ss(g2900
g2903
tp7175
g1
(g6
tRp7176
S''
F1
ss(g2816
tp7177
g1
(g6
tRp7178
g2492
F0.5
sg5494
F0.5
ss(g275
g1944
tp7179
g1
(g6
tRp7180
g460
F1
ss(g2975
g2978
tp7181
g1
(g6
tRp7182
S''
F1
ss(g5251
S'country'
p7183
tp7184
g1
(g6
tRp7185
S''
F1
ss(g1798
g3833
tp7186
g1
(g6
tRp7187
g3836
F1
ss(S"That's"
g486
tp7188
g1
(g6
tRp7189
g450
F0.5
sg1433
F0.5
ss(S'a'
g3554
tp7190
g1
(g6
tRp7191
g1344
F1
ss(g2065
tp7192
g1
(g6
tRp7193
S''
F1
ss(g3112
g5827
tp7194
g1
(g6
tRp7195
g1416
F1
ss(g4366
tp7196
g1
(g6
tRp7197
g2050
F0.25
sg4369
F0.25
sg2603
F0.25
sS'with'
p7198
F0.25
ss(g268
S'a'
tp7199
g1
(g6
tRp7200
g1471
F0.33333333333333331
sg2114
F0.33333333333333331
sg2422
F0.33333333333333331
ss(g6069
g6072
tp7201
g1
(g6
tRp7202
g3034
F1
ss(g2212
g2215
tp7203
g1
(g6
tRp7204
g1941
F1
ss(S'a'
g2856
tp7205
g1
(g6
tRp7206
g2857
F1
ss(g4251
g4254
tp7207
g1
(g6
tRp7208
g4192
F1
ss(g6697
g956
tp7209
g1
(g6
tRp7210
g959
F1
ss(g6570
g4348
tp7211
g1
(g6
tRp7212
g6077
F1
ss(g596
g599
tp7213
g1
(g6
tRp7214
S'of'
p7215
F1
ss(g5623
g5626
tp7216
g1
(g6
tRp7217
S''
F1
ss(g82
g1646
tp7218
g1
(g6
tRp7219
g5574
F1
ss(g3252
g7198
tp7220
g1
(g6
tRp7221
g6964
F1
ss(g2990
tp7222
g1
(g6
tRp7223
g3444
F0.25714285714285712
sg2991
F0.48571428571428577
sg2900
F0.25714285714285712
ss(S'I'
g3114
tp7224
g1
(g6
tRp7225
g4509
F1
ss(g377
g1943
tp7226
g1
(g6
tRp7227
g2310
F1
ss(g4195
tp7228
g1
(g6
tRp7229
g4196
F1
ss(g1600
tp7230
g1
(g6
tRp7231
g1603
F1
ss(g766
tp7232
g1
(g6
tRp7233
g803
F1
ss(g6331
g3854
tp7234
g1
(g6
tRp7235
g2132
F0.5
sg1225
F0.5
ss(g4402
S'I'
tp7236
g1
(g6
tRp7237
g4172
F1
ss(g67
g1938
tp7238
g1
(g6
tRp7239
g2970
F1
ss(g2633
g2636
tp7240
g1
(g6
tRp7241
S''
F1
ss(g6373
tp7242
g1
(g6
tRp7243
S''
F1
ss(g3105
g4563
tp7244
g1
(g6
tRp7245
g3453
F1
ss(g4461
g4464
tp7246
g1
(g6
tRp7247
g470
F1
ss(g3424
g2297
tp7248
g1
(g6
tRp7249
g247
F1
ss(g800
g4419
tp7250
g1
(g6
tRp7251
g6813
F1
ss(g1062
tp7252
g1
(g6
tRp7253
g1063
F1
ss(g3851
g3163
tp7254
g1
(g6
tRp7255
S''
F0.65000000000000002
sg2555
F0.34999999999999998
ss(g1299
tp7256
g1
(g6
tRp7257
S''
F0.32467532467532467
sg2666
F0.16883116883116886
sg1300
F0.16883116883116886
sg2667
F0.16883116883116886
sg4974
F0.16883116883116886
ss(g5169
tp7258
g1
(g6
tRp7259
g5172
F0.65000000000000002
sg2361
F0.34999999999999998
ss(g2185
g2460
tp7260
g1
(g6
tRp7261
g2461
F1
ss(g3833
g3836
tp7262
g1
(g6
tRp7263
S'a'
F1
ss(g2592
g7034
tp7264
g1
(g6
tRp7265
g166
F1
ss(g1475
tp7266
g1
(g6
tRp7267
g6238
F1
ss(g439
tp7268
g1
(g6
tRp7269
S'a'
F0.10000000000000002
sg1916
F0.10000000000000002
sg5169
F0.10000000000000002
sg4538
F0.10000000000000002
sg2269
F0.10000000000000002
sg3280
F0.10000000000000002
sg7039
F0.10000000000000002
sS'the'
p7270
F0.10000000000000002
sg1503
F0.10000000000000002
sg1632
F0.10000000000000002
ss(S'And'
g5163
tp7271
g1
(g6
tRp7272
g5164
F1
ss(g3249
g3252
tp7273
g1
(g6
tRp7274
g7198
F1
ss(g3199
tp7275
g1
(g6
tRp7276
g1651
F0.25
sg4182
F0.25
sg931
F0.25
sg161
F0.25
ss(g361
tp7277
g1
(g6
tRp7278
g364
F1
ss(g4881
g4690
tp7279
g1
(g6
tRp7280
g2260
F1
ss(g2506
g2509
tp7281
g1
(g6
tRp7282
S'not'
p7283
F0.5
sg3416
F0.5
ss(g3277
tp7284
g1
(g6
tRp7285
S'I'
F1
ss(g3212
g3215
tp7286
g1
(g6
tRp7287
g3936
F1
ss(g4906
g3569
tp7288
g1
(g6
tRp7289
g4977
F1
ss(g751
g754
tp7290
g1
(g6
tRp7291
g4388
F1
ss(g6843
g4764
tp7292
g1
(g6
tRp7293
S"he's"
p7294
F1
ss(g787
S'I'
tp7295
g1
(g6
tRp7296
g3111
F1
ss(g2855
g5446
tp7297
g1
(g6
tRp7298
S''
F1
ss(g4358
tp7299
g1
(g6
tRp7300
g4529
F0.25714285714285712
sg5733
F0.25714285714285712
sg5042
F0.48571428571428577
ss(g4470
g4473
tp7301
g1
(g6
tRp7302
g3536
F1
ss(g888
tp7303
g1
(g6
tRp7304
g889
F0.65000000000000002
sg2646
F0.34999999999999998
ss(S'I'
g3104
tp7305
g1
(g6
tRp7306
g4232
F1
ss(g280
tp7307
g1
(g6
tRp7308
g338
F0.5
sg4900
F0.5
ss(g1742
g1745
tp7309
g1
(g6
tRp7310
g4347
F1
ss(g4460
tp7311
g1
(g6
tRp7312
g4493
F1
ss(g1935
g905
tp7313
g1
(g6
tRp7314
g778
F1
ss(g1239
tp7315
g1
(g6
tRp7316
g3050
F1
ss(g1860
g6864
tp7317
g1
(g6
tRp7318
g4627
F1
ss(S"We've"
g4504
tp7319
g1
(g6
tRp7320
g3353
F1
ss(g849
g258
tp7321
g1
(g6
tRp7322
g259
F0.5
sg2887
F0.5
ss(g1475
g6238
tp7323
g1
(g6
tRp7324
g4350
F1
ss(g364
g4346
tp7325
g1
(g6
tRp7326
g1833
F1
ss(g1506
g2868
tp7327
g1
(g6
tRp7328
g2357
F1
ss(g7057
g1931
tp7329
g1
(g6
tRp7330
g6407
F1
ss(S'decisions'
g2621
tp7331
g1
(g6
tRp7332
g912
F1
ss(S'If'
g3314
tp7333
g1
(g6
tRp7334
g3315
F1
ss(g3746
g3749
tp7335
g1
(g6
tRp7336
S'New'
p7337
F1
ss(g887
g2243
tp7338
g1
(g6
tRp7339
S''
F1
ss(S'We'
g3234
tp7340
g1
(g6
tRp7341
g3235
F1
ss(g5167
g2144
tp7342
g1
(g6
tRp7343
g2145
F1
ss(S'And'
S'I'
tp7344
g1
(g6
tRp7345
g1640
F1
ss(g6367
tp7346
g1
(g6
tRp7347
S''
F1
ss(g1812
g3850
tp7348
g1
(g6
tRp7349
S''
F1
ss(S'Not'
g6649
tp7350
g1
(g6
tRp7351
g3257
F1
ss(S'Let'
S'me'
p7352
tp7353
g1
(g6
tRp7354
S'tell'
p7355
F1
ss(g4139
g1280
tp7356
g1
(g6
tRp7357
g1283
F1
ss(g721
g188
tp7358
g1
(g6
tRp7359
S'believe'
p7360
F1
ss(g1683
g4582
tp7361
g1
(g6
tRp7362
g4583
F1
ss(S'S'
tp7363
g1
(g6
tRp7364
S''
F1
ss(g1384
g1387
tp7365
g1
(g6
tRp7366
g2646
F1
ss(g5311
tp7367
g1
(g6
tRp7368
g1908
F1
ss(g2536
S'a'
tp7369
g1
(g6
tRp7370
g726
F0.5
sS'much'
p7371
F0.5
ss(g4397
g7057
tp7372
g1
(g6
tRp7373
g1931
F1
ss(g3161
g5963
tp7374
g1
(g6
tRp7375
g5807
F1
ss(g2857
tp7376
g1
(g6
tRp7377
S''
F1
ss(S'the'
p7378
g7022
tp7379
g1
(g6
tRp7380
g595
F1
ss(g500
tp7381
g1
(g6
tRp7382
g3757
F0.25714285714285712
sg2281
F0.48571428571428577
sg503
F0.25714285714285712
ss(g3199
g4182
tp7383
g1
(g6
tRp7384
g4598
F1
ss(g5584
g3917
tp7385
g1
(g6
tRp7386
g730
F1
ss(g6083
S'a'
tp7387
g1
(g6
tRp7388
g2452
F1
ss(g1300
g1303
tp7389
g1
(g6
tRp7390
S'a'
F0.33333333333333331
sg4422
F0.33333333333333331
sg127
F0.33333333333333331
ss(S'What'
g5736
tp7391
g1
(g6
tRp7392
g1816
F1
ss(S'I'
g1101
tp7393
g1
(g6
tRp7394
g1105
F1
ss(g5687
S'and'
p7395
tp7396
g1
(g6
tRp7397
g559
F1
ss(g3537
g3540
tp7398
g1
(g6
tRp7399
g2825
F1
ss(g498
g6793
tp7400
g1
(g6
tRp7401
S''
F1
ss(g1033
g464
tp7402
g1
(g6
tRp7403
g1098
F1
ss(g1174
tp7404
g1
(g6
tRp7405
g1175
F1
ss(g2720
g3263
tp7406
g1
(g6
tRp7407
g2780
F1
ss(g5494
tp7408
g1
(g6
tRp7409
g5497
F1
ss(g4130
g682
tp7410
g1
(g6
tRp7411
S'his'
p7412
F0.33333333333333331
sg683
F0.33333333333333331
sg1241
F0.33333333333333331
ss(g4094
g4352
tp7413
g1
(g6
tRp7414
g6050
F1
ss(g1851
tp7415
g1
(g6
tRp7416
g5703
F0.5
sg1913
F0.5
ss(g1913
g1916
tp7417
g1
(g6
tRp7418
g1247
F1
ss(g6372
g190
tp7419
g1
(g6
tRp7420
g193
F0.5
sg194
F0.5
ss(g3332
tp7421
g1
(g6
tRp7422
S'I'
F1
ss(g1002
g3611
tp7423
g1
(g6
tRp7424
g1804
F1
ss(g3103
tp7425
g1
(g6
tRp7426
S'a'
F1
ss(g2323
tp7427
g1
(g6
tRp7428
g5684
F1
ss(g1477
g896
tp7429
g1
(g6
tRp7430
S'I'
F1
ss(g5525
g2216
tp7431
g1
(g6
tRp7432
g2219
F1
ss(g6371
tp7433
g1
(g6
tRp7434
S''
F1
ss(g4218
g1020
tp7435
g1
(g6
tRp7436
g3124
F1
ss(g2982
g2826
tp7437
g1
(g6
tRp7438
g4397
F1
ss(g2573
tp7439
g1
(g6
tRp7440
g2576
F1
ss(g6491
g624
tp7441
g1
(g6
tRp7442
g2565
F1
ss(g2333
tp7443
g1
(g6
tRp7444
g2334
F1
ss(g3249
tp7445
g1
(g6
tRp7446
g3252
F1
ss(g1976
tp7447
g1
(g6
tRp7448
g3355
F0.39204545454545453
sg5164
F0.10227272727272728
sg190
F0.19886363636363635
sg876
F0.10227272727272728
sg2650
F0.10227272727272728
sg1977
F0.10227272727272728
ss(g3114
tp7449
g1
(g6
tRp7450
g4509
F1
ss(g952
g4683
tp7451
g1
(g6
tRp7452
g5783
F1
ss(g1356
g1359
tp7453
g1
(g6
tRp7454
g840
F0.33333333333333331
sg4160
F0.33333333333333331
sg1718
F0.33333333333333331
ss(g1513
tp7455
g1
(g6
tRp7456
g1516
F1
ss(S'a'
g3169
tp7457
g1
(g6
tRp7458
g3170
F1
ss(g117
g120
tp7459
g1
(g6
tRp7460
g647
F1
ss(g2094
g6286
tp7461
g1
(g6
tRp7462
g4317
F1
ss(g1746
g1749
tp7463
g1
(g6
tRp7464
g4699
F1
ss(g1967
g3162
tp7465
g1
(g6
tRp7466
g4051
F1
ss(g3110
tp7467
g1
(g6
tRp7468
S''
F1
ss(g6034
g1954
tp7469
g1
(g6
tRp7470
g3466
F1
ss(g949
g955
tp7471
g1
(g6
tRp7472
g1026
F0.5
sg1021
F0.5
ss(g1591
g1598
tp7473
g1
(g6
tRp7474
g10
F1
ss(g2410
g2413
tp7475
g1
(g6
tRp7476
g5111
F1
ss(g1238
g536
tp7477
g1
(g6
tRp7478
S''
F1
ss(g1250
tp7479
g1
(g6
tRp7480
g2455
F0.0076455802262253873
sg490
F0.045698924731182797
sg3137
F0.0076455802262253873
sg1157
F0.0076455802262253873
sg4744
F0.0076455802262253873
sg2216
F0.0076455802262253873
sg3196
F0.0076455802262253873
sg2744
F0.0076455802262253873
sg4413
F0.0076455802262253873
sg2141
F0.0076455802262253873
sg2295
F0.0076455802262253873
sg1448
F0.0076455802262253873
sg2240
F0.030477586929199833
sg886
F0.0076455802262253873
sg346
F0.0076455802262253873
sg95
F0.01525624912721687
sg4006
F0.0076455802262253873
sg1280
F0.0076455802262253873
sg306
F0.0076455802262253873
sg3256
F0.0076455802262253873
sg900
F0.0076455802262253873
sg2009
F0.053309593632174274
sg6054
F0.0076455802262253873
sg916
F0.0076455802262253873
sg884
F0.0076455802262253873
sg5700
F0.0076455802262253873
sg1078
F0.01525624912721687
sg347
F0.0076455802262253873
sg3297
F0.01525624912721687
sg217
F0.0076455802262253873
sg1742
F0.0076455802262253873
sg4251
F0.0076455802262253873
sg695
F0.0076455802262253873
sg2595
F0.01525624912721687
sg846
F0.0076455802262253873
sg1513
F0.0076455802262253873
sg992
F0.0076455802262253873
sg1220
F0.01525624912721687
sg3500
F0.0076455802262253873
sg333
F0.045698924731182797
sg1470
F0.0076455802262253873
sg170
F0.01525624912721687
sg7183
F0.0076455802262253873
sg2125
F0.01525624912721687
sg2276
F0.0076455802262253873
sg3143
F0.0076455802262253873
sg896
F0.0076455802262253873
sg956
F0.01525624912721687
sg2582
F0.0076455802262253873
sg3182
F0.0076455802262253873
sg5416
F0.0076455802262253873
sg4535
F0.01525624912721687
sg2296
F0.0076455802262253873
sg3867
F0.0076455802262253873
sg6458
F0.0076455802262253873
sg1497
F0.0076455802262253873
sg1587
F0.01525624912721687
sg978
F0.0076455802262253873
sg1417
F0.01525624912721687
sg2633
F0.0076455802262253873
sg4634
F0.0076455802262253873
sg2160
F0.0076455802262253873
sg7022
F0.0076455802262253873
sg6264
F0.0076455802262253873
sg3825
F0.0076455802262253873
sg2464
F0.0076455802262253873
sg3193
F0.0076455802262253873
sg2091
F0.0076455802262253873
sg656
F0.0076455802262253873
sg1544
F0.0076455802262253873
sg4008
F0.0076455802262253873
sg121
F0.01525624912721687
sg5503
F0.0076455802262253873
sg49
F0.0076455802262253873
sg4713
F0.0076455802262253873
sg3940
F0.01525624912721687
sg6171
F0.0076455802262253873
sg3843
F0.022866918028208349
sg5202
F0.0076455802262253873
sg885
F0.022866918028208349
sg3195
F0.01525624912721687
sg59
F0.01525624912721687
sg2851
F0.0076455802262253873
sg2955
F0.0076455802262253873
sg1258
F0.0076455802262253873
sg1185
F0.06092026253316575
ss(g554
tp7481
g1
(g6
tRp7482
g555
F1
ss(g549
g5151
tp7483
g1
(g6
tRp7484
S'the'
p7485
F1
ss(g1083
g3153
tp7486
g1
(g6
tRp7487
g1933
F1
ss(g247
tp7488
g1
(g6
tRp7489
g2300
F0.5
sg3267
F0.5
ss(g2805
g4626
tp7490
g1
(g6
tRp7491
S'can'
p7492
F1
ss(g617
g620
tp7493
g1
(g6
tRp7494
g2824
F1
ss(g5202
tp7495
g1
(g6
tRp7496
g2936
F0.5
sS''
F0.5
ss(g3605
g3608
tp7497
g1
(g6
tRp7498
S'the'
p7499
F1
ss(g1125
g2148
tp7500
g1
(g6
tRp7501
g4661
F1
ss(S'responsibility'
g4782
tp7502
g1
(g6
tRp7503
g2253
F1
ss(g1899
g973
tp7504
g1
(g6
tRp7505
g974
F1
ss(g1347
g1362
tp7506
g1
(g6
tRp7507
g1942
F1
ss(g1472
g1475
tp7508
g1
(g6
tRp7509
g6238
F1
ss(g6370
g3379
tp7510
g1
(g6
tRp7511
g3433
F0.15277777777777779
sg1185
F0.84722222222222221
ss(g373
tp7512
g1
(g6
tRp7513
S''
F0.22000000000000006
sg1522
F0.32666666666666672
sg5111
F0.11333333333333336
sg1453
F0.11333333333333336
sg209
F0.11333333333333336
sg5187
F0.11333333333333336
ss(g3503
tp7514
g1
(g6
tRp7515
g3504
F1
ss(g983
g986
tp7516
g1
(g6
tRp7517
g1150
F1
ss(g3472
g2478
tp7518
g1
(g6
tRp7519
g2479
F1
ss(g3083
tp7520
g1
(g6
tRp7521
g1106
F0.33333333333333331
sg2776
F0.33333333333333331
sg4335
F0.33333333333333331
ss(g19
S'D'
tp7522
g1
(g6
tRp7523
S''
F1
ss(g1629
tp7524
g1
(g6
tRp7525
g745
F1
ss(g4637
g3604
tp7526
g1
(g6
tRp7527
g3605
F1
ss(g558
g2032
tp7528
g1
(g6
tRp7529
S'a'
F1
ss(g5069
tp7530
g1
(g6
tRp7531
g268
F0.5
sg5070
F0.5
ss(g4496
g4353
tp7532
g1
(g6
tRp7533
g3187
F1
ss(g3444
g3242
tp7534
g1
(g6
tRp7535
g4652
F1
ss(g5164
g5167
tp7536
g1
(g6
tRp7537
g2144
F1
ss(g7395
g559
tp7538
g1
(g6
tRp7539
g562
F1
ss(g4526
tp7540
g1
(g6
tRp7541
g767
F0.5
sg2078
F0.5
ss(g145
g6878
tp7542
g1
(g6
tRp7543
S''
F1
ss(g800
tp7544
g1
(g6
tRp7545
g1393
F0.14772727272727273
sg1641
F0.14772727272727273
sg4419
F0.14772727272727273
sg2813
F0.55681818181818188
ss(g1236
g1163
tp7546
g1
(g6
tRp7547
g2159
F1
ss(g595
tp7548
g1
(g6
tRp7549
g596
F1
ss(g2868
g2357
tp7550
g1
(g6
tRp7551
g2358
F1
ss(S'a'
g2875
tp7552
g1
(g6
tRp7553
g741
F1
ss(g4255
tp7554
g1
(g6
tRp7555
g2915
F0.5
sg3341
F0.5
ss(g1701
g1704
tp7556
g1
(g6
tRp7557
g1016
F1
ss(g2818
tp7558
g1
(g6
tRp7559
g481
F1
ss(g2986
g931
tp7560
g1
(g6
tRp7561
S''
F1
ss(g1347
tp7562
g1
(g6
tRp7563
g1362
F1
ss(S'of'
p7564
g1723
tp7565
g1
(g6
tRp7566
g788
F1
ss(g165
g4849
tp7567
g1
(g6
tRp7568
g1536
F0.5
sg5565
F0.5
ss(g4348
g6077
tp7569
g1
(g6
tRp7570
g3968
F1
ss(g2041
g4440
tp7571
g1
(g6
tRp7572
g275
F1
ss(g3449
tp7573
g1
(g6
tRp7574
g3794
F0.5
sg3450
F0.5
ss(g4264
g3093
tp7575
g1
(g6
tRp7576
g3094
F1
ss(g1650
tp7577
g1
(g6
tRp7578
g78
F0.21428571428571427
sg671
F0.7857142857142857
ss(S'his'
g3164
tp7579
g1
(g6
tRp7580
S''
F1
ss(g4017
g4025
tp7581
g1
(g6
tRp7582
g2848
F1
ss(S'for'
p7583
g1245
tp7584
g1
(g6
tRp7585
S''
F1
ss(g6141
g3384
tp7586
g1
(g6
tRp7587
g4255
F1
ss(S'C'
tp7588
g1
(g6
tRp7589
S''
F1
ss(g2436
g2904
tp7590
g1
(g6
tRp7591
g1206
F1
ss(g1241
tp7592
g1
(g6
tRp7593
g6407
F0.25
sg5875
F0.25
sg1304
F0.25
sg238
F0.25
ss(g901
tp7594
g1
(g6
tRp7595
g904
F1
ss(g4541
g4544
tp7596
g1
(g6
tRp7597
g3882
F0.5
sS'talk'
p7598
F0.5
ss(g767
g770
tp7599
g1
(g6
tRp7600
g7152
F1
ss(g2713
g5788
tp7601
g1
(g6
tRp7602
g1014
F1
ss(g6080
g6083
tp7603
g1
(g6
tRp7604
S'a'
F1
ss(g5612
g535
tp7605
g1
(g6
tRp7606
g2602
F1
ss(g1603
g2745
tp7607
g1
(g6
tRp7608
g3656
F0.5
sg2486
F0.5
ss(g5928
g941
tp7609
g1
(g6
tRp7610
g942
F1
ss(S'I'
g2043
tp7611
g1
(g6
tRp7612
g2741
F1
ss(g5937
g1825
tp7613
g1
(g6
tRp7614
g1826
F1
ss(g6724
g2851
tp7615
g1
(g6
tRp7616
g2852
F1
ss(g2334
g2337
tp7617
g1
(g6
tRp7618
g4455
F1
ss(g2280
g4955
tp7619
g1
(g6
tRp7620
g1929
F1
ss(g1624
g4358
tp7621
g1
(g6
tRp7622
g5733
F1
ss(g2708
tp7623
g1
(g6
tRp7624
S'should'
p7625
F0.25714285714285712
sg3459
F0.25714285714285712
sg3125
F0.48571428571428577
ss(g465
g1861
tp7626
g1
(g6
tRp7627
g3027
F1
ss(g6187
g2572
tp7628
g1
(g6
tRp7629
g2573
F1
ss(g2592
tp7630
g1
(g6
tRp7631
g7034
F0.5
sg3372
F0.5
ss(g3242
g4652
tp7632
g1
(g6
tRp7633
S'a'
F1
ss(g429
tp7634
g1
(g6
tRp7635
g174
F1
ss(g6000
g1030
tp7636
g1
(g6
tRp7637
S'of'
p7638
F1
ss(g1947
tp7639
g1
(g6
tRp7640
g996
F1
ss(g988
tp7641
g1
(g6
tRp7642
S''
F0.16666666666666666
sg3647
F0.16666666666666666
sg235
F0.16666666666666666
sg2602
F0.16666666666666666
sg991
F0.16666666666666666
sg178
F0.16666666666666666
ss(g5503
tp7643
g1
(g6
tRp7644
g677
F1
ss(g186
g5958
tp7645
g1
(g6
tRp7646
S'a'
F0.33333333333333331
sg7270
F0.33333333333333331
sg7039
F0.33333333333333331
ss(g1999
tp7647
g1
(g6
tRp7648
g2002
F1
ss(g2813
g2819
tp7649
g1
(g6
tRp7650
g2220
F1
ss(g6366
tp7651
g1
(g6
tRp7652
g5736
F0.25
sg1817
F0.25
sg6482
F0.25
sg1214
F0.25
ss(g1025
g2451
tp7653
g1
(g6
tRp7654
S'the'
p7655
F1
ss(g2437
tp7656
g1
(g6
tRp7657
g2438
F1
ss(g2337
g4455
tp7658
g1
(g6
tRp7659
g922
F1
ss(g1600
g1603
tp7660
g1
(g6
tRp7661
g2745
F1
ss(g4583
g94
tp7662
g1
(g6
tRp7663
g95
F1
ss(g5561
g4856
tp7664
g1
(g6
tRp7665
g1017
F1
ss(S'U'
tp7666
g1
(g6
tRp7667
S''
F1
ss(g553
tp7668
g1
(g6
tRp7669
g3406
F1
ss(g786
g2226
tp7670
g1
(g6
tRp7671
S''
F1
ss(g3802
tp7672
g1
(g6
tRp7673
g3803
F1
ss(g2826
g4397
tp7674
g1
(g6
tRp7675
g7057
F1
ss(S'I'
g3107
tp7676
g1
(g6
tRp7677
S'responsibility'
p7678
F1
ss(g2149
tp7679
g1
(g6
tRp7680
g2406
F1
ss(S'These'
g1502
tp7681
g1
(g6
tRp7682
g1503
F1
ss(g3104
g4232
tp7683
g1
(g6
tRp7684
g3897
F1
ss(g567
tp7685
g1
(g6
tRp7686
g20
F0.5
sg832
F0.5
ss(g39
g4728
tp7687
g1
(g6
tRp7688
g6421
F1
ss(g7066
g5218
tp7689
g1
(g6
tRp7690
g1577
F1
ss(g7638
g4349
tp7691
g1
(g6
tRp7692
g4836
F1
ss(g4349
tp7693
g1
(g6
tRp7694
g4836
F1
ss(g1595
g1998
tp7695
g1
(g6
tRp7696
g1999
F1
ss(g6369
tp7697
g1
(g6
tRp7698
g868
F0.08361204013377925
sg5929
F0.08361204013377925
sg960
F0.1638795986622073
sg3350
F0.08361204013377925
sg2990
F0.08361204013377925
sg4892
F0.08361204013377925
sg5759
F0.08361204013377925
sg4531
F0.08361204013377925
sg1272
F0.08361204013377925
sg823
F0.08361204013377925
sg2075
F0.08361204013377925
ss(g2390
S'a'
tp7699
g1
(g6
tRp7700
g2788
F1
ss(g3732
tp7701
g1
(g6
tRp7702
g4219
F1
ss(g6029
g537
tp7703
g1
(g6
tRp7704
S''
F1
ss(g7492
g1860
tp7705
g1
(g6
tRp7706
g6864
F1
ss(g1814
g3876
tp7707
g1
(g6
tRp7708
g3947
F1
ss(g913
g916
tp7709
g1
(g6
tRp7710
g2721
F1
ss(g1791
g1840
tp7711
g1
(g6
tRp7712
g2525
F1
ss(g5800
g404
tp7713
g1
(g6
tRp7714
g1156
F1
ss(g1247
g1734
tp7715
g1
(g6
tRp7716
g7583
F1
ss(g969
g972
tp7717
g1
(g6
tRp7718
g1304
F1
ss(g2023
tp7719
g1
(g6
tRp7720
g5334
F1
ss(g4718
g1006
tp7721
g1
(g6
tRp7722
g1009
F1
ss(g2062
g2065
tp7723
g1
(g6
tRp7724
S''
F1
ss(g3801
g6530
tp7725
g1
(g6
tRp7726
S'the'
p7727
F1
ss(g3469
g3472
tp7728
g1
(g6
tRp7729
g2478
F1
ss(g6445
g1984
tp7730
g1
(g6
tRp7731
g1985
F1
ss(g1550
tp7732
g1
(g6
tRp7733
g1553
F1
ss(g1233
g1250
tp7734
g1
(g6
tRp7735
g3589
F0.12592592592592591
sg695
F0.12592592592592591
sg2009
F0.12592592592592591
sg6458
F0.12592592592592591
sg3143
F0.12592592592592591
sg2091
F0.12592592592592591
sg956
F0.24444444444444446
ss(g1343
g2164
tp7736
g1
(g6
tRp7737
S''
F1
ss(g2245
g3443
tp7738
g1
(g6
tRp7739
g3444
F1
ss(g4745
g4355
tp7740
g1
(g6
tRp7741
S''
F1
ss(g1598
g10
tp7742
g1
(g6
tRp7743
g243
F1
ss(g4660
g1005
tp7744
g1
(g6
tRp7745
S'New'
p7746
F1
ss(g2366
g1651
tp7747
g1
(g6
tRp7748
g1654
F1
ss(S'what'
g1433
tp7749
g1
(g6
tRp7750
g1436
F1
ss(g2044
g5937
tp7751
g1
(g6
tRp7752
g1825
F1
ss(g2324
g1814
tp7753
g1
(g6
tRp7754
g3876
F1
ss(g4963
tp7755
g1
(g6
tRp7756
g4964
F1
ss(S'United'
g494
tp7757
g1
(g6
tRp7758
g1140
F0.5
sg3328
F0.5
ss(g392
g818
tp7759
g1
(g6
tRp7760
g429
F0.25
sg819
F0.25
sg2834
F0.25
sg342
F0.25
ss(g405
g1616
tp7761
g1
(g6
tRp7762
g1052
F0.5
sg2710
F0.5
ss(g2215
g1941
tp7763
g1
(g6
tRp7764
g3253
F1
ss(g3518
g69
tp7765
g1
(g6
tRp7766
g5617
F1
ss(g2467
tp7767
g1
(g6
tRp7768
g4881
F0.5
sg3395
F0.5
ss(g4744
tp7769
g1
(g6
tRp7770
g4745
F1
ss(g5301
tp7771
g1
(g6
tRp7772
g5304
F1
ss(g4348
tp7773
g1
(g6
tRp7774
g6077
F1
ss(g2615
g2618
tp7775
g1
(g6
tRp7776
g6133
F1
ss(g4381
g3541
tp7777
g1
(g6
tRp7778
g1236
F1
ss(g1772
g2051
tp7779
g1
(g6
tRp7780
g3792
F0.5
sg1233
F0.5
ss(S'a'
g48
tp7781
g1
(g6
tRp7782
g268
F1
ss(g2525
g2234
tp7783
g1
(g6
tRp7784
g2054
F1
ss(g461
g3079
tp7785
g1
(g6
tRp7786
g3440
F0.5
sg6192
F0.5
ss(g5562
g3902
tp7787
g1
(g6
tRp7788
S''
F1
ss(g34
g1576
tp7789
g1
(g6
tRp7790
g2329
F1
ss(g1276
tp7791
g1
(g6
tRp7792
g1279
F1
ss(g5783
g4363
tp7793
g1
(g6
tRp7794
S''
F1
ss(g859
g926
tp7795
g1
(g6
tRp7796
g927
F1
ss(g6317
g5514
tp7797
g1
(g6
tRp7798
g1981
F1
ss(g3235
g3238
tp7799
g1
(g6
tRp7800
g2333
F1
ss(g3222
g3500
tp7801
g1
(g6
tRp7802
S''
F1
ss(g6241
g466
tp7803
g1
(g6
tRp7804
S'to'
p7805
F1
ss(g667
tp7806
g1
(g6
tRp7807
S''
F0.5
sg670
F0.5
ss(g472
g475
tp7808
g1
(g6
tRp7809
g5386
F1
ss(g504
g507
tp7810
g1
(g6
tRp7811
g2510
F1
ss(g3071
g2256
tp7812
g1
(g6
tRp7813
g2259
F1
ss(g3746
tp7814
g1
(g6
tRp7815
g3749
F1
ss(g230
g233
tp7816
g1
(g6
tRp7817
g3647
F1
ss(g2280
tp7818
g1
(g6
tRp7819
g4955
F1
ss(g384
tp7820
g1
(g6
tRp7821
g387
F1
ss(g95
tp7822
g1
(g6
tRp7823
g98
F0.5
sg99
F0.5
ss(g3559
g204
tp7824
g1
(g6
tRp7825
g207
F1
ss(g309
tp7826
g1
(g6
tRp7827
g3798
F0.5
sg312
F0.5
ss(g475
g5386
tp7828
g1
(g6
tRp7829
g3068
F1
ss(g846
g849
tp7830
g1
(g6
tRp7831
g258
F1
ss(S'state'
p7832
g1596
tp7833
g1
(g6
tRp7834
g1491
F1
ss(g2621
g912
tp7835
g1
(g6
tRp7836
g913
F1
ss(g2358
g2361
tp7837
g1
(g6
tRp7838
S''
F1
ss(g121
tp7839
g1
(g6
tRp7840
g122
F0.65000000000000002
sg4270
F0.34999999999999998
ss(g926
tp7841
g1
(g6
tRp7842
g927
F1
ss(g469
tp7843
g1
(g6
tRp7844
g2473
F0.36507936507936511
sS'I'
F0.126984126984127
sg1375
F0.126984126984127
sg3168
F0.126984126984127
sg4152
F0.126984126984127
sg1376
F0.126984126984127
ss(g2744
tp7845
g1
(g6
tRp7846
g1263
F1
ss(g4354
g5687
tp7847
g1
(g6
tRp7848
g7395
F1
ss(g659
g1788
tp7849
g1
(g6
tRp7850
g1791
F1
ss(g2485
g4282
tp7851
g1
(g6
tRp7852
g7022
F0.16883116883116883
sg7183
F0.16883116883116883
sg5700
F0.16883116883116883
sg4535
F0.32467532467532462
sg4008
F0.16883116883116883
ss(g1597
g300
tp7853
g1
(g6
tRp7854
g303
F0.5
sg305
F0.5
ss(g5700
g5703
tp7855
g1
(g6
tRp7856
g1563
F1
ss(g120
tp7857
g1
(g6
tRp7858
g647
F1
ss(g822
g6171
tp7859
g1
(g6
tRp7860
S''
F1
ss(g1189
tp7861
g1
(g6
tRp7862
g4757
F0.5
sg2273
F0.5
ss(g2578
tp7863
g1
(g6
tRp7864
g2581
F0.084249084249084269
sg4171
F0.16483516483516486
sg5637
F0.084249084249084269
sg4959
F0.084249084249084269
sg7112
F0.16483516483516486
sg2280
F0.084249084249084269
sg2640
F0.084249084249084269
sg3264
F0.16483516483516486
sg3124
F0.084249084249084269
ss(g3697
g3700
tp7865
g1
(g6
tRp7866
g2239
F1
ss(g872
tp7867
g1
(g6
tRp7868
g873
F1
ss(g2244
g3288
tp7869
g1
(g6
tRp7870
g463
F1
ss(g6299
g3083
tp7871
g1
(g6
tRp7872
g4335
F1
ss(g3088
tp7873
g1
(g6
tRp7874
g45
F0.5
sg1844
F0.5
ss(g4713
g1726
tp7875
g1
(g6
tRp7876
g1727
F1
ss(g3103
S'a'
tp7877
g1
(g6
tRp7878
g3562
F1
ss(g5977
g279
tp7879
g1
(g6
tRp7880
g6818
F1
ss(g3463
g6723
tp7881
g1
(g6
tRp7882
g6724
F1
ss(g2259
g1530
tp7883
g1
(g6
tRp7884
g1533
F1
ss(g1526
g1529
tp7885
g1
(g6
tRp7886
g6438
F1
ss(g3119
tp7887
g1
(g6
tRp7888
g1442
F1
ss(g2942
tp7889
g1
(g6
tRp7890
S''
F0.5
sg733
F0.5
ss(S'The'
g446
tp7891
g1
(g6
tRp7892
g449
F1
ss(g1749
g4699
tp7893
g1
(g6
tRp7894
S''
F1
ss(g729
tp7895
g1
(g6
tRp7896
S''
F0.5
sg4541
F0.5
ss(S'a'
g3558
tp7897
g1
(g6
tRp7898
g4166
F1
ss(g925
tp7899
g1
(g6
tRp7900
g1737
F1
ss(g2172
tp7901
g1
(g6
tRp7902
g5287
F1
ss(g2066
tp7903
g1
(g6
tRp7904
g2067
F1
ss(g3876
tp7905
g1
(g6
tRp7906
g3947
F1
ss(g3360
g3332
tp7907
g1
(g6
tRp7908
S'I'
F1
ss(g164
g3018
tp7909
g1
(g6
tRp7910
g2491
F0.5
sg3019
F0.5
ss(g90
g93
tp7911
g1
(g6
tRp7912
g3989
F1
ss(g1098
tp7913
g1
(g6
tRp7914
S'a'
F0.5
sg2186
F0.5
ss(g3561
tp7915
g1
(g6
tRp7916
g6679
F1
ss(g359
tp7917
g1
(g6
tRp7918
g2939
F0.1125
sS''
F0.1125
sg3204
F0.1125
sg5218
F0.21875
sg2362
F0.1125
sg5219
F0.21875
sg2773
F0.1125
ss(g584
tp7919
g1
(g6
tRp7920
g587
F0.5
sg588
F0.5
ss(g4006
tp7921
g1
(g6
tRp7922
g1510
F1
ss(g3500
tp7923
g1
(g6
tRp7924
S''
F1
ss(g2708
g7625
tp7925
g1
(g6
tRp7926
g3118
F1
ss(g4434
g4437
tp7927
g1
(g6
tRp7928
S''
F1
ss(g5334
g2582
tp7929
g1
(g6
tRp7930
g2583
F1
ss(g1420
g1423
tp7931
g1
(g6
tRp7932
g1336
F1
ss(g2817
g1292
tp7933
g1
(g6
tRp7934
g6141
F1
ss(g5796
tp7935
g1
(g6
tRp7936
g7352
F0.5
sg5797
F0.5
ss(g7412
g675
tp7937
g1
(g6
tRp7938
S''
F1
ss(g2122
g2125
tp7939
g1
(g6
tRp7940
g934
F0.5
sg687
F0.5
ss(g4189
g4000
tp7941
g1
(g6
tRp7942
g2291
F1
ss(g4892
tp7943
g1
(g6
tRp7944
g1387
F0.055821371610845293
sg3463
F0.055821371610845293
sg29
F0.21850079744816586
sg2110
F0.055821371610845293
sg1413
F0.055821371610845293
sg309
F0.055821371610845293
sg3453
F0.055821371610845293
sg2573
F0.055821371610845293
sg3611
F0.055821371610845293
sg4232
F0.055821371610845293
sg1414
F0.055821371610845293
sg2668
F0.055821371610845293
sg1415
F0.055821371610845293
sg2201
F0.055821371610845293
sg2122
F0.055821371610845293
ss(g4889
g1615
tp7945
g1
(g6
tRp7946
g4704
F1
ss(g3335
g3338
tp7947
g1
(g6
tRp7948
g5890
F1
ss(g312
g1246
tp7949
g1
(g6
tRp7950
g3459
F1
ss(g3460
g2668
tp7951
g1
(g6
tRp7952
g2669
F1
ss(g309
g312
tp7953
g1
(g6
tRp7954
g1246
F1
ss(g3235
tp7955
g1
(g6
tRp7956
g3238
F1
ss(g3540
g2825
tp7957
g1
(g6
tRp7958
g4676
F1
ss(g24
g3959
tp7959
g1
(g6
tRp7960
g1034
F1
ss(g733
g736
tp7961
g1
(g6
tRp7962
g1647
F1
ss(g3676
S'I'
tp7963
g1
(g6
tRp7964
g326
F0.5
sg3112
F0.5
ss(g95
g98
tp7965
g1
(g6
tRp7966
g1961
F1
ss(g418
g421
tp7967
g1
(g6
tRp7968
g1205
F1
ss(g4964
g285
tp7969
g1
(g6
tRp7970
S'New'
p7971
F1
ss(g702
g705
tp7972
g1
(g6
tRp7973
g4159
F1
ss(g135
g3503
tp7974
g1
(g6
tRp7975
g3504
F1
ss(g916
g2721
tp7976
g1
(g6
tRp7977
g978
F1
ss(g4008
g3829
tp7978
g1
(g6
tRp7979
g3830
F1
ss(S'a'
g626
tp7980
g1
(g6
tRp7981
g629
F1
ss(g4639
g4642
tp7982
g1
(g6
tRp7983
S''
F1
ss(g1694
g3306
tp7984
g1
(g6
tRp7985
g2899
F1
ss(g212
g2379
tp7986
g1
(g6
tRp7987
g2926
F1
ss(g4149
g4179
tp7988
g1
(g6
tRp7989
S'subject'
p7990
F1
ss(g3027
g59
tp7991
g1
(g6
tRp7992
g60
F0.5
sS''
F0.5
ss(g1359
g1718
tp7993
g1
(g6
tRp7994
g1722
F1
ss(S'for'
g582
tp7995
g1
(g6
tRp7996
S'record'
p7997
F1
ss(g6233
g4685
tp7998
g1
(g6
tRp7999
g1402
F1
ss(S'We'
g6187
tp8000
g1
(g6
tRp8001
g2572
F1
ss(g3355
tp8002
g1
(g6
tRp8003
S''
F0.20833333333333334
sg595
F0.20833333333333334
sg682
F0.58333333333333337
ss(g2583
tp8004
g1
(g6
tRp8005
g1629
F1
ss(g6368
g7071
tp8006
g1
(g6
tRp8007
S'matter'
p8008
F1
ss(g1322
tp8009
g1
(g6
tRp8010
g1325
F1
ss(g1280
g1283
tp8011
g1
(g6
tRp8012
g3385
F1
ss(g930
S'a'
tp8013
g1
(g6
tRp8014
g1309
F1
ss(g1043
g1046
tp8015
g1
(g6
tRp8016
g1023
F1
ss(g1860
tp8017
g1
(g6
tRp8018
g6864
F1
ss(g3798
g5561
tp8019
g1
(g6
tRp8020
g4856
F1
ss(g2318
g7112
tp8021
g1
(g6
tRp8022
S''
F0.5
sg1597
F0.5
ss(g4639
tp8023
g1
(g6
tRp8024
g4642
F1
ss(g3060
g2414
tp8025
g1
(g6
tRp8026
g2415
F1
ss(g2772
tp8027
g1
(g6
tRp8028
g3573
F1
ss(g4175
g171
tp8029
g1
(g6
tRp8030
S''
F1
ss(g2565
g718
tp8031
g1
(g6
tRp8032
g721
F1
ss(g4757
tp8033
g1
(g6
tRp8034
S''
F0.05692167577413481
sg5386
F0.028688524590163942
sg3315
F0.028688524590163942
sg4195
F0.028688524590163942
sg5946
F0.028688524590163942
sg26
F0.05692167577413481
sg291
F0.028688524590163942
sg6299
F0.028688524590163942
sg2446
F0.028688524590163942
sg3882
F0.028688524590163942
sg818
F0.11338797814207652
sg295
F0.05692167577413481
sg3385
F0.028688524590163942
sg5443
F0.028688524590163942
sg2368
F0.028688524590163942
sg4030
F0.028688524590163942
sg267
F0.028688524590163942
sg5069
F0.028688524590163942
sg4140
F0.028688524590163942
sg6438
F0.028688524590163942
sg2256
F0.028688524590163942
sg1679
F0.028688524590163942
sg2221
F0.028688524590163942
sg2896
F0.028688524590163942
sg2763
F0.05692167577413481
sg5958
F0.085154826958105667
ss(g6563
g3463
tp8035
g1
(g6
tRp8036
g6723
F1
ss(g1471
tp8037
g1
(g6
tRp8038
g1472
F1
ss(g863
tp8039
g1
(g6
tRp8040
g864
F1
ss(g904
g1258
tp8041
g1
(g6
tRp8042
g1259
F1
ss(g629
g5489
tp8043
g1
(g6
tRp8044
g4469
F1
ss(g4905
g6418
tp8045
g1
(g6
tRp8046
S''
F1
ss(g854
tp8047
g1
(g6
tRp8048
g4450
F1
ss(g4873
g4876
tp8049
g1
(g6
tRp8050
g1821
F1
ss(g1712
g2708
tp8051
g1
(g6
tRp8052
g7625
F1
ss(g4
g8
tp8053
g1
(g6
tRp8054
g3903
F0.5
sg3469
F0.5
ss(g2710
g2713
tp8055
g1
(g6
tRp8056
g5788
F1
ss(S'a'
S'U'
tp8057
g1
(g6
tRp8058
S''
F1
ss(g5715
g983
tp8059
g1
(g6
tRp8060
g986
F1
ss(g1845
g1848
tp8061
g1
(g6
tRp8062
g5503
F0.19999999999999998
sg7832
F0.19999999999999998
sg1544
F0.19999999999999998
sg6264
F0.19999999999999998
sg4441
F0.19999999999999998
ss(g1327
g1330
tp8063
g1
(g6
tRp8064
g1939
F1
ss(g1834
tp8065
g1
(g6
tRp8066
g1837
F1
ss(S'We'
g4963
tp8067
g1
(g6
tRp8068
g4964
F1
ss(g2446
g2117
tp8069
g1
(g6
tRp8070
g2118
F1
ss(g141
g145
tp8071
g1
(g6
tRp8072
g6878
F1
ss(g4104
tp8073
g1
(g6
tRp8074
g1494
F1
ss(g2555
g2558
tp8075
g1
(g6
tRp8076
g2047
F1
ss(g45
tp8077
g1
(g6
tRp8078
S'a'
F0.048295454545454544
sg3851
F0.048295454545454544
sg4601
F0.048295454545454544
sg3968
F0.14204545454545456
sg1985
F0.048295454545454544
sg4025
F0.048295454545454544
sg6029
F0.095170454545454544
sg1857
F0.048295454545454544
sg1053
F0.048295454545454544
sg1760
F0.048295454545454544
sg3939
F0.37642045454545453
ss(g3037
tp8079
g1
(g6
tRp8080
g3508
F1
ss(g460
g3293
tp8081
g1
(g6
tRp8082
g3294
F1
ss(g3795
g3798
tp8083
g1
(g6
tRp8084
g5561
F1
ss(g4917
g7270
tp8085
g1
(g6
tRp8086
g3523
F1
ss(g4153
g4156
tp8087
g1
(g6
tRp8088
g6912
F1
ss(g2032
S'a'
tp8089
g1
(g6
tRp8090
g3556
F1
ss(g3129
g4171
tp8091
g1
(g6
tRp8092
S''
F0.5
sg4974
F0.5
ss(S'mistake'
g2233
tp8093
g1
(g6
tRp8094
S''
F1
ss(S'to'
g2818
tp8095
g1
(g6
tRp8096
g481
F1
ss(g1659
g1662
tp8097
g1
(g6
tRp8098
g1930
F1
ss(g1443
g504
tp8099
g1
(g6
tRp8100
g507
F1
ss(g5687
tp8101
g1
(g6
tRp8102
g7395
F0.5
sg120
F0.5
ss(g1510
tp8103
g1
(g6
tRp8104
g946
F0.5
sg1824
F0.5
ss(g1073
g277
tp8105
g1
(g6
tRp8106
g2559
F1
ss(g1491
tp8107
g1
(g6
tRp8108
g1092
F1
ss(S'what'
g1967
tp8109
g1
(g6
tRp8110
g3162
F1
ss(g1465
tp8111
g1
(g6
tRp8112
g1313
F1
ss(g3989
g5219
tp8113
g1
(g6
tRp8114
S'a'
F0.5
sg5514
F0.5
ss(g7198
g6964
tp8115
g1
(g6
tRp8116
S''
F1
ss(S'But'
g3668
tp8117
g1
(g6
tRp8118
S'need'
p8119
F0.5
sg2974
F0.5
ss(g3297
g1599
tp8120
g1
(g6
tRp8121
g3402
F1
ss(g1925
g1936
tp8122
g1
(g6
tRp8123
g6983
F1
ss(g2399
g2403
tp8124
g1
(g6
tRp8125
g3360
F1
ss(g6366
g1214
tp8126
g1
(g6
tRp8127
g1215
F1
ss(S'New'
g787
tp8128
g1
(g6
tRp8129
S'I'
F1
ss(g3253
g3256
tp8130
g1
(g6
tRp8131
g7564
F1
ss(g351
g4061
tp8132
g1
(g6
tRp8133
g424
F1
ss(g1722
S'I'
tp8134
g1
(g6
tRp8135
g2380
F0.48571428571428577
sg3110
F0.25714285714285712
sg1101
F0.25714285714285712
ss(g5088
g1486
tp8136
g1
(g6
tRp8137
g1490
F1
ss(g4967
tp8138
g1
(g6
tRp8139
g4968
F0.33333333333333331
sg5521
F0.33333333333333331
sg3314
F0.33333333333333331
ss(g2643
g2102
tp8140
g1
(g6
tRp8141
g2103
F1
ss(g5075
g1244
tp8142
g1
(g6
tRp8143
g4020
F1
ss(g5603
g3616
tp8144
g1
(g6
tRp8145
S''
F1
ss(g1025
tp8146
g1
(g6
tRp8147
g2451
F1
ss(g3560
g3696
tp8148
g1
(g6
tRp8149
g1813
F1
ss(g1739
S'a'
tp8150
g1
(g6
tRp8151
g737
F1
ss(g2202
tp8152
g1
(g6
tRp8153
g3725
F0.059139784946236555
sS'a'
F0.059139784946236555
sg2913
F0.11648745519713261
sg2205
F0.059139784946236555
sg2912
F0.059139784946236555
sg1420
F0.059139784946236555
sg3119
F0.059139784946236555
sg2914
F0.059139784946236555
sg1604
F0.059139784946236555
sg1962
F0.11648745519713261
sg2911
F0.059139784946236555
sg4433
F0.059139784946236555
sg3138
F0.059139784946236555
sg2383
F0.11648745519713261
ss(g880
g1049
tp8154
g1
(g6
tRp8155
g1015
F1
ss(g2310
g1621
tp8156
g1
(g6
tRp8157
g1624
F1
ss(g4628
g4631
tp8158
g1
(g6
tRp8159
g1031
F1
ss(g436
g439
tp8160
g1
(g6
tRp8161
g1632
F1
ss(g2519
g5953
tp8162
g1
(g6
tRp8163
S''
F1
ss(S'a'
g1196
tp8164
g1
(g6
tRp8165
g1199
F1
ss(g4544
g3882
tp8166
g1
(g6
tRp8167
g2907
F1
ss(g3944
tp8168
g1
(g6
tRp8169
g2695
F1
ss(g3954
g2629
tp8170
g1
(g6
tRp8171
S''
F1
ss(g1933
g3156
tp8172
g1
(g6
tRp8173
g6394
F1
ss(g3463
tp8174
g1
(g6
tRp8175
g6723
F1
ss(g374
g377
tp8176
g1
(g6
tRp8177
g1943
F1
ss(g4083
tp8178
g1
(g6
tRp8179
S'I'
F1
ss(g2432
g3732
tp8180
g1
(g6
tRp8181
g4219
F1
ss(g2983
tp8182
g1
(g6
tRp8183
g2986
F1
ss(g6014
g733
tp8184
g1
(g6
tRp8185
g736
F1
ss(g4945
g4744
tp8186
g1
(g6
tRp8187
g4745
F1
ss(g3646
g1317
tp8188
g1
(g6
tRp8189
g1318
F1
ss(g1529
g6438
tp8190
g1
(g6
tRp8191
g3793
F1
ss(g2776
tp8192
g1
(g6
tRp8193
g4526
F1
ss(S'And'
g136
tp8194
g1
(g6
tRp8195
g137
F1
ss(g5890
tp8196
g1
(g6
tRp8197
g3402
F0.33333333333333331
sg5891
F0.33333333333333331
sg705
F0.33333333333333331
ss(S'a'
g737
tp8198
g1
(g6
tRp8199
g740
F1
ss(g4886
g4538
tp8200
g1
(g6
tRp8201
g2341
F1
ss(g1252
g355
tp8202
g1
(g6
tRp8203
g356
F1
ss(g4352
g6050
tp8204
g1
(g6
tRp8205
S'sense'
p8206
F1
ss(g4637
tp8207
g1
(g6
tRp8208
g3604
F1
ss(g1210
tp8209
g1
(g6
tRp8210
g3335
F1
ss(g6359
g1659
tp8211
g1
(g6
tRp8212
g1662
F1
ss(g3787
g429
tp8213
g1
(g6
tRp8214
g174
F1
ss(g6171
tp8215
g1
(g6
tRp8216
S''
F1
ss(g3018
tp8217
g1
(g6
tRp8218
g2491
F0.17142857142857143
sg5870
F0.48571428571428571
sg3019
F0.17142857142857143
sg5481
F0.17142857142857143
ss(S'that'
g1012
tp8219
g1
(g6
tRp8220
S'I'
F1
ss(g2501
tp8221
g1
(g6
tRp8222
g1540
F1
ss(g5304
g3939
tp8223
g1
(g6
tRp8224
g3940
F0.24603174603174605
sg5416
F0.12698412698412698
sg6054
F0.12698412698412698
sg4744
F0.12698412698412698
sg1742
F0.12698412698412698
sg1220
F0.24603174603174605
ss(g4728
g6421
tp8225
g1
(g6
tRp8226
g7378
F1
ss(g1364
tp8227
g1
(g6
tRp8228
S''
F0.65079365079365081
sg1321
F0.17460317460317462
sg418
F0.17460317460317462
ss(S'a'
g3559
tp8229
g1
(g6
tRp8230
g204
F1
ss(g7033
g1026
tp8231
g1
(g6
tRp8232
g3349
F1
ss(S'done'
g104
tp8233
g1
(g6
tRp8234
g5562
F1
ss(g3724
tp8235
g1
(g6
tRp8236
S''
F1
ss(g1948
g3211
tp8237
g1
(g6
tRp8238
S''
F0.34999999999999998
sg3212
F0.65000000000000002
ss(g5060
g937
tp8239
g1
(g6
tRp8240
g539
F1
ss(g3201
g3204
tp8241
g1
(g6
tRp8242
S'I'
F1
ss(g5733
g465
tp8243
g1
(g6
tRp8244
g1860
F0.33333333333333331
sg1861
F0.33333333333333331
sg1862
F0.33333333333333331
ss(g3419
g4277
tp8245
g1
(g6
tRp8246
g3437
F1
ss(g104
g5562
tp8247
g1
(g6
tRp8248
g3902
F1
ss(g756
S'a'
tp8249
g1
(g6
tRp8250
g667
F0.25
sg5903
F0.25
sg1713
F0.25
sg3555
F0.25
ss(g329
S'I'
tp8251
g1
(g6
tRp8252
g1371
F1
ss(g4980
g4351
tp8253
g1
(g6
tRp8254
g152
F1
ss(g1109
g423
tp8255
g1
(g6
tRp8256
g5273
F1
ss(g3244
tp8257
g1
(g6
tRp8258
g3245
F1
ss(g3784
g538
tp8259
g1
(g6
tRp8260
g1257
F1
ss(g112
g115
tp8261
g1
(g6
tRp8262
g3885
F1
ss(g6704
g1717
tp8263
g1
(g6
tRp8264
S''
F1
ss.