ccollections
defaultdict
p1
(cpymarkovchain.MarkovChain
_one_dict
p2
tRp3
(S'at'
p4
tp5
g1
(cpymarkovchain.MarkovChain
_one
p6
tRp7
S'home'
p8
F0.39930555555555558
sS'the'
p9
F0.39930555555555558
sS'Democratic'
p10
F0.2013888888888889
ss(S'America'
p11
tp12
g1
(g6
tRp13
S'is'
p14
F1
ss(S'do'
p15
S'in'
p16
tp17
g1
(g6
tRp18
S'Washington'
p19
F1
ss(S'what'
p20
S'happened'
p21
tp22
g1
(g6
tRp23
S'with'
p24
F1
ss(S'you'
p25
S'have'
p26
tp27
g1
(g6
tRp28
S'to'
p29
F1
ss(S'spent'
p30
S'the'
p31
tp32
g1
(g6
tRp33
S'last'
p34
F1
ss(S"I've"
p35
S'been'
p36
tp37
g1
(g6
tRp38
S'pretty'
p39
F1
ss(S'I'
S"don't"
p40
tp41
g1
(g6
tRp42
S''
F0.33333333333333331
sS'think'
p43
F0.33333333333333331
sS'care'
p44
F0.33333333333333331
ss(S'it'
p45
tp46
g1
(g6
tRp47
S''
F0.12495238095238101
sS"doesn't"
p48
F0.041676190476190492
sS'and'
p49
F0.083314285714285743
sS'said'
p50
F0.041676190476190492
sS'from'
p51
F0.041676190476190492
sS'like'
p52
F0.041676190476190492
sS'would'
p53
F0.041676190476190492
sS'did'
p54
F0.041676190476190492
sS'is'
p55
F0.12495238095238101
sS'in'
p56
F0.041676190476190492
sS'will'
p57
F0.041676190476190492
sS'does'
p58
F0.083314285714285743
sS'because'
p59
F0.041676190476190492
sS'is,'
p60
F0.041676190476190492
sS'got'
p61
F0.041676190476190492
sS'happened'
p62
F0.041676190476190492
sS'into'
p63
F0.041676190476190492
sS'happen,'
p64
F0.041676190476190492
ss(S'Veterans'
p65
S'Administration'
p66
tp67
g1
(g6
tRp68
S"doesn't"
p69
F1
ss(g58
tp70
g1
(g6
tRp71
S'not'
p72
F0.59920634920634919
sS'matter'
p73
F0.40079365079365087
ss(S'law'
p74
S'and'
p75
tp76
g1
(g6
tRp77
S'violate'
p78
F1
ss(S'now'
p79
tp80
g1
(g6
tRp81
S'and'
p82
F0.19999999999999998
sS'to'
p83
F0.19999999999999998
sS'for'
p84
F0.19999999999999998
sS'closed'
p85
F0.19999999999999998
sS'an'
p86
F0.19999999999999998
ss(S'they'
p87
S"didn't"
p88
tp89
g1
(g6
tRp90
S'do'
p91
F0.5
sS'want'
p92
F0.5
ss(S'woman'
p93
S'being'
p94
tp95
g1
(g6
tRp96
S'violated'
p97
F1
ss(g19
tp98
g1
(g6
tRp99
S'D'
F1
ss(S'I'
S'learned'
p100
tp101
g1
(g6
tRp102
S'seven'
p103
F1
ss(S'the'
p104
S'world'
p105
tp106
g1
(g6
tRp107
S'to'
p108
F0.5
sS'freely'
p109
F0.5
ss(S'done'
p110
tp111
g1
(g6
tRp112
S''
F0.24976258309591642
sS'and'
p113
F0.24976258309591642
sS'by'
p114
F0.12535612535612536
sS'a'
F0.24976258309591642
sS'in'
p115
F0.12535612535612536
ss(S'the'
p116
S'systematic'
p117
tp118
g1
(g6
tRp119
S'murder'
p120
F1
ss(S'and'
p121
S'she'
p122
tp123
g1
(g6
tRp124
S'had'
p125
F1
ss(S'is'
p126
S'taking'
p127
tp128
g1
(g6
tRp129
S'Oxycontin'
p130
F1
ss(S'shame'
p131
S'is'
p132
tp133
g1
(g6
tRp134
S'--'
p135
F0.5
sS'that'
p136
F0.5
ss(S'going'
p137
S'to'
p138
tp139
g1
(g6
tRp140
S'do'
p141
F1
ss(S'millennial'
p142
tp143
g1
(g6
tRp144
S'or'
p145
F1
ss(S'let'
p146
S'me'
p147
tp148
g1
(g6
tRp149
S'tell'
p150
F1
ss(S"Let's"
p151
tp152
g1
(g6
tRp153
S'make'
p154
F0.5
sS'get'
p155
F0.5
ss(S'add'
p156
tp157
g1
(g6
tRp158
S'something'
p159
F1
ss(S'When'
p160
tp161
g1
(g6
tRp162
S"you're"
p163
F0.25
sS'the'
p164
F0.25
sg87
F0.25
sS'do'
p165
F0.25
ss(S'body'
p166
tp167
g1
(g6
tRp168
S'parts'
p169
F1
ss(S'deaths'
p170
tp171
g1
(g6
tRp172
S'have'
p173
F1
ss(S'look'
p174
S'these'
p175
tp176
g1
(g6
tRp177
S'folks'
p178
F1
ss(S'way'
p179
tp180
g1
(g6
tRp181
S'we'
p182
F0.66249999999999998
sS'with'
p183
F0.33750000000000002
ss(S'then'
p184
S'the'
p185
tp186
g1
(g6
tRp187
S'memorized'
p188
F1
ss(g147
g150
tp189
g1
(g6
tRp190
S'you'
p191
F1
ss(S'again,'
p192
S'everybody'
p193
tp194
g1
(g6
tRp195
S''
F1
ss(S'with'
p196
S'this'
p197
tp198
g1
(g6
tRp199
S'and'
p200
F1
ss(S'if'
p201
tp202
g1
(g6
tRp203
S'a'
F0.33209647495361788
sS'you'
p204
F0.16697588126159557
sS'it'
p205
F0.16697588126159557
sS'they'
p206
F0.16697588126159557
sS'he'
p207
F0.16697588126159557
ss(S'proud'
p208
tp209
g1
(g6
tRp210
S'of'
p211
F0.33750000000000002
sS'to'
p212
F0.66249999999999998
ss(S'not'
p213
S'answering'
p214
tp215
g1
(g6
tRp216
S'a'
F1
ss(S'prison,'
p217
tp218
g1
(g6
tRp219
S'and'
p220
F1
ss(S'them'
p221
S'how'
p222
tp223
g1
(g6
tRp224
S"we're"
p225
F1
ss(S'But,'
p226
tp227
g1
(g6
tRp228
S'I'
F1
ss(S'the'
p229
S'ebola'
p230
tp231
g1
(g6
tRp232
S'virus'
p233
F1
ss(S'commander-in-chief'
p234
tp235
g1
(g6
tRp236
S'who'
p237
F1
ss(S'leader'
p238
S'must'
p239
tp240
g1
(g6
tRp241
S'fight'
p242
F1
ss(S'stood'
p243
tp244
g1
(g6
tRp245
S'up'
p246
F1
ss(S'up'
p247
S'her'
p248
tp249
g1
(g6
tRp250
S'just'
p251
F1
ss(S'two'
p252
S'daughters'
p253
tp254
g1
(g6
tRp255
S''
F1
ss(S'helpful'
p256
S'to'
p257
tp258
g1
(g6
tRp259
S'the'
p260
F1
ss(S'I'
S'believed'
p261
tp262
g1
(g6
tRp263
S'in'
p264
F1
ss(S'ask'
p265
S'all'
p266
tp267
g1
(g6
tRp268
S'the'
p269
F1
ss(S'a'
g142
tp270
g1
(g6
tRp271
g145
F1
ss(g113
S"here's"
p272
tp273
g1
(g6
tRp274
S''
F1
ss(S'say,'
p275
S'we'
p276
tp277
g1
(g6
tRp278
S'will'
p279
F1
ss(S'prepare'
p280
S'you'
p281
tp282
g1
(g6
tRp283
S'for'
p284
F1
ss(S'list'
p285
S'of'
p286
tp287
g1
(g6
tRp288
S'a'
F1
ss(S'on'
p289
S'a'
tp290
g1
(g6
tRp291
g285
F1
ss(g122
tp292
g1
(g6
tRp293
S'was'
p294
F0.16697588126159554
sS'is'
p295
F0.16697588126159554
sS'turned'
p296
F0.16697588126159554
sg125
F0.16697588126159554
sS'should'
p297
F0.33209647495361783
ss(S'you'
p298
S'need'
p299
tp300
g1
(g6
tRp301
S'to'
p302
F1
ss(S"shouldn't"
p303
tp304
g1
(g6
tRp305
S'compare'
p306
F0.5
sS'say'
p307
F0.5
ss(S'go'
p308
tp309
g1
(g6
tRp310
S'and'
p311
F0.33333333333333331
sS'to'
p312
F0.33333333333333331
sS'where'
p313
F0.33333333333333331
ss(S'truth'
p314
tp315
g1
(g6
tRp316
S''
F1
ss(S'have'
S'self-defense'
p317
tp318
g1
(g6
tRp319
S'for'
p320
F1
ss(S'raising'
p321
S'taxes'
p322
tp323
g1
(g6
tRp324
S'on'
p325
F1
ss(S'had'
p326
g229
tp327
g1
(g6
tRp328
g230
F0.5
sS'experience'
p329
F0.5
ss(S'everyone'
p330
tp331
g1
(g6
tRp332
S'out'
p333
F1
ss(S'I'
S'wake'
p334
tp335
g1
(g6
tRp336
S'up,'
p337
F1
ss(S'we'
p338
S'had'
p339
tp340
g1
(g6
tRp341
S'when'
p342
F1
ss(S'last'
p343
S'seven'
p344
tp345
g1
(g6
tRp346
S'years,'
p347
F1
ss(g54
S'not'
p348
tp349
g1
(g6
tRp350
S'work'
p351
F1
ss(S'get'
p352
S'the'
p353
tp354
g1
(g6
tRp355
S'schools'
p356
F0.5
sS'tools'
p357
F0.5
ss(S'68'
p358
S'percent,'
p359
tp360
g1
(g6
tRp361
S'I'
F1
ss(S'made'
p362
S'eight'
p363
tp364
g1
(g6
tRp365
S'years'
p366
F1
ss(S'million'
p367
S'worth'
p368
tp369
g1
(g6
tRp370
S'of'
p371
F1
ss(S'also'
p372
S'need'
p373
tp374
g1
(g6
tRp375
S'to'
p376
F1
ss(S'accountable'
S'for'
p377
tp378
g1
(g6
tRp379
S'them'
p380
F1
ss(S'swiftly'
p381
tp382
g1
(g6
tRp383
S'and'
p384
F1
ss(S'which'
p385
S'is'
p386
tp387
g1
(g6
tRp388
S'what'
p389
F1
ss(S'third'
p390
S'Barack'
p391
tp392
g1
(g6
tRp393
S'Obama'
p394
F1
ss(S'They'
p395
S'expect'
p396
tp397
g1
(g6
tRp398
S'you'
p399
F1
ss(g34
S'13'
p400
tp401
g1
(g6
tRp402
S'years'
p403
F1
ss(S'state,'
p404
g385
tp405
g1
(g6
tRp406
g386
F1
ss(S'New'
p407
S'Jersey'
p408
tp409
g1
(g6
tRp410
S''
F0.45370370370370383
sS'be'
p411
F0.091049382716049412
sS'raised'
p412
F0.091049382716049412
sS'cut'
p413
F0.091049382716049412
sS'is'
p414
F0.091049382716049412
sS'had'
p415
F0.091049382716049412
sS'as'
p416
F0.091049382716049412
ss(S'that'
p417
S'one'
p418
tp419
g1
(g6
tRp420
S'of'
p421
F1
ss(S'10'
p422
S'percent'
p423
tp424
g1
(g6
tRp425
S''
F1
ss(S'effect,'
p426
tp427
g1
(g6
tRp428
S'which'
p429
F1
ss(S'incest'
p430
tp431
g1
(g6
tRp432
S'--'
p433
F0.5
sS'and'
p434
F0.5
ss(S'Excuse'
p435
S'me'
p436
tp437
g1
(g6
tRp438
S''
F1
ss(S'listen,'
p439
g192
tp440
g1
(g6
tRp441
g193
F1
ss(S'it'
p442
g54
tp443
g1
(g6
tRp444
g348
F1
ss(S"That's"
p445
S'not'
p446
tp447
g1
(g6
tRp448
S'what'
p449
F0.5
sS'leadership,'
p450
F0.5
ss(S'his'
p451
S'record'
p452
tp453
g1
(g6
tRp454
S'on'
p455
F1
ss(S'which'
p456
S'I'
tp457
g1
(g6
tRp458
S'think'
p459
F1
ss(S'Washington,'
p460
tp461
g1
(g6
tRp462
S'D'
F1
ss(S'everybody'
p463
tp464
g1
(g6
tRp465
S''
F0.7466666666666667
sS'in'
p466
F0.2533333333333333
ss(S'they'
p467
tp468
g1
(g6
tRp469
g15
F0.050024050024050019
sS'never'
p470
F0.050024050024050019
sS'get'
p471
F0.050024050024050019
sS'practice'
p472
F0.050024050024050019
sg88
F0.099979385693671402
sS'knew'
p473
F0.050024050024050019
sS'understand'
p474
F0.050024050024050019
sS'can'
p475
F0.14993472136329278
sS'want'
p476
F0.099979385693671402
sS'need'
p477
F0.14993472136329278
sS'believe'
p478
F0.099979385693671402
sS'think'
p479
F0.050024050024050019
sS'expect'
p480
F0.050024050024050019
ss(S'your'
p481
S'accomplishments'
p482
tp483
g1
(g6
tRp484
S'you'
p485
F1
ss(S'Senator'
p486
S"Rubio's"
p487
tp488
g1
(g6
tRp489
S'answer'
p490
F1
ss(g159
S'on'
p491
tp492
g1
(g6
tRp493
S'the'
p494
F1
ss(S'what'
p495
g460
tp496
g1
(g6
tRp497
S'D'
F1
ss(S'the'
p498
S'United'
p499
tp500
g1
(g6
tRp501
S'States'
p502
F0.66581632653061218
sS'States,'
p503
F0.33418367346938777
ss(S'told'
p504
tp505
g1
(g6
tRp506
S'them,'
p507
F1
ss(S'was'
p508
S'somehow'
p509
tp510
g1
(g6
tRp511
S'disembodied'
p512
F1
ss(S'registering'
p513
tp514
g1
(g6
tRp515
S'for'
p516
F1
ss(S'every'
p517
S'day,'
p518
tp519
g1
(g6
tRp520
S'but'
p521
F1
ss(S'After'
p522
S'New'
p523
tp524
g1
(g6
tRp525
S'Jersey'
p526
F1
ss(S'work,'
p527
S'do'
p528
tp529
g1
(g6
tRp530
S'you'
p531
F1
ss(g62
S'out'
p532
tp533
g1
(g6
tRp534
S'of'
p535
F1
ss(S'one'
p536
tp537
g1
(g6
tRp538
S'thing:'
p539
F0.083378160301237236
sS'last'
p540
F0.083378160301237236
sS'--'
p541
F0.083378160301237236
sS'of'
p542
F0.24959655728886504
sS'is'
p543
F0.083378160301237236
sS'up'
p544
F0.083378160301237236
sS'person'
p545
F0.083378160301237236
sS'second'
p546
F0.083378160301237236
sS'other'
p547
F0.083378160301237236
sS'problem'
p548
F0.083378160301237236
ss(S'of'
p549
S'mosques'
p550
tp551
g1
(g6
tRp552
S''
F1
ss(S'To'
p553
S'build'
p554
tp555
g1
(g6
tRp556
S'bridges'
p557
F1
ss(S'heroin-addicted'
p558
S'drug'
p559
tp560
g1
(g6
tRp561
S'girl'
p562
F1
ss(S'saved'
p563
tp564
g1
(g6
tRp565
S'now,'
p566
F1
ss(S'Oh,'
p567
S'so'
p568
tp569
g1
(g6
tRp570
S'--'
p571
F1
ss(S'illegal'
p572
tp573
g1
(g6
tRp574
S'detention'
p575
F1
ss(S'First,'
p576
S"let's"
p577
tp578
g1
(g6
tRp579
S'remember'
p580
F1
ss(S'fact'
S'is'
p581
tp582
g1
(g6
tRp583
S'--'
p584
F0.16734693877551021
sS"that's"
p585
F0.16734693877551021
sS'it'
p586
F0.16734693877551021
sS'that'
p587
F0.49795918367346942
ss(g522
tp588
g1
(g6
tRp589
g523
F1
ss(S'responsibility'
p590
S'for'
p591
tp592
g1
(g6
tRp593
S'these'
p594
F0.5
sS'my'
p595
F0.5
ss(S'law'
p596
S'enforcement'
p597
tp598
g1
(g6
tRp599
S'so'
p600
F0.5
sS'background'
p601
F0.5
ss(S'picked'
p602
tp603
g1
(g6
tRp604
g247
F1
ss(g535
S'nowhere'
p605
tp606
g1
(g6
tRp607
S''
F1
ss(S'cause'
p608
S'in'
p609
tp610
g1
(g6
tRp611
S'one'
p612
F1
ss(S'actually'
p613
S'have'
p614
tp615
g1
(g6
tRp616
S'experience'
p617
F1
ss(S'one'
p618
g543
tp619
g1
(g6
tRp620
S'for'
p621
F1
ss(S'one,'
p622
tp623
g1
(g6
tRp624
S"I'll"
p625
F1
ss(g356
tp626
g1
(g6
tRp627
S'open'
p628
F1
ss(S'They'
S'go'
p629
tp630
g1
(g6
tRp631
g312
F1
ss(S'the'
S'heck'
p632
tp633
g1
(g6
tRp634
S'of'
p635
F1
ss(g26
g29
tp636
g1
(g6
tRp637
S'make'
p638
F0.25142857142857145
sS'deliver'
p639
F0.25142857142857145
sS'take'
p640
F0.49714285714285716
ss(S'federal'
p641
tp642
g1
(g6
tRp643
S'prosecutor'
p644
F1
ss(S'a'
S'young'
p645
tp646
g1
(g6
tRp647
S'woman'
p648
F1
ss(S'so'
p649
S'people'
p650
tp651
g1
(g6
tRp652
S'can'
p653
F1
ss(S'are'
p654
S'for'
p655
tp656
g1
(g6
tRp657
S'paying'
p658
F1
ss(S'put'
p659
S'up'
p660
tp661
g1
(g6
tRp662
g196
F1
ss(S'For'
p663
tp664
g1
(g6
tRp665
S'the'
p666
F1
ss(S'and'
p667
S"can't"
p668
tp669
g1
(g6
tRp670
S'get'
p671
F1
ss(S'their'
p672
S'legislature'
p673
tp674
g1
(g6
tRp675
S'right'
p676
F1
ss(g164
S'teachers'
p677
tp678
g1
(g6
tRp679
S'unions'
p680
F1
ss(S'want'
p681
S'the'
p682
tp683
g1
(g6
tRp684
S'people'
p685
F1
ss(S'non-dealing,'
p686
S'first-time'
p687
tp688
g1
(g6
tRp689
S'drug'
p690
F1
ss(S'a'
S'pregnancy'
p691
tp692
g1
(g6
tRp693
S'that'
p694
F1
ss(S'for'
p695
S'his'
p696
tp697
g1
(g6
tRp698
g452
F0.33333333333333331
sS'life'
p699
F0.33333333333333331
sS'legislation'
p700
F0.33333333333333331
ss(S'that'
p701
S'their'
p702
tp703
g1
(g6
tRp704
S'sense'
p705
F1
ss(S'for'
p706
S'when'
p707
tp708
g1
(g6
tRp709
S'they'
p710
F1
ss(S'of'
p711
S'working'
p712
tp713
g1
(g6
tRp714
S'with'
p715
F1
ss(S'is'
g585
tp716
g1
(g6
tRp717
S'the'
p718
F1
ss(S'selective'
p719
S'service'
p720
tp721
g1
(g6
tRp722
S''
F1
ss(g248
g251
tp723
g1
(g6
tRp724
S'for'
p725
F1
ss(S'The'
S'prison'
p726
tp727
g1
(g6
tRp728
S'population'
p729
F1
ss(S'former'
p730
tp731
g1
(g6
tRp732
S'United'
p733
F0.5
sS'secretary'
p734
F0.5
ss(S'weaker'
p735
tp736
g1
(g6
tRp737
S''
F1
ss(S'now'
p738
g84
tp739
g1
(g6
tRp740
S'the'
p741
F1
ss(S'child'
p742
tp743
g1
(g6
tRp744
S'if'
p745
F1
ss(S'listened'
p746
S'to'
p747
tp748
g1
(g6
tRp749
g486
F1
ss(S'consequential'
p750
tp751
g1
(g6
tRp752
S'decision'
p753
F1
ss(S'position'
p754
tp755
g1
(g6
tRp756
S''
F1
ss(S'was,'
p757
tp758
g1
(g6
tRp759
S'"Did'
p760
F1
ss(S'rehabilitation'
p761
S'facility,'
p762
tp763
g1
(g6
tRp764
g649
F1
ss(S'with'
p765
S'everyday'
p766
tp767
g1
(g6
tRp768
S'Muslim-Americans'
p769
F1
ss(S'those'
p770
S'lives'
p771
tp772
g1
(g6
tRp773
S'is'
p774
F1
ss(S'person'
p775
S'and'
p776
tp777
g1
(g6
tRp778
S'a'
F1
ss(S'him'
p779
S'is'
p780
tp781
g1
(g6
tRp782
S'knowing'
p783
F1
ss(g225
S'helping'
p784
tp785
g1
(g6
tRp786
S'to'
p787
F1
ss(S'history'
p788
tp789
g1
(g6
tRp790
S''
F0.5
sS'hits'
p791
F0.5
ss(S'into'
p792
tp793
g1
(g6
tRp794
S'a'
F0.5
sg426
F0.5
ss(S'Parenthood'
p795
tp796
g1
(g6
tRp797
S'does'
p798
F1
ss(S"didn't"
p799
tp800
g1
(g6
tRp801
S''
F0.19999999999999998
sg91
F0.19999999999999998
sS'pass'
p802
F0.19999999999999998
sg92
F0.19999999999999998
sS'fight'
p803
F0.19999999999999998
ss(g518
tp804
g1
(g6
tRp805
g521
F1
ss(S'it'
p806
g63
tp807
g1
(g6
tRp808
S'a'
F1
ss(S'information'
p809
S'and'
p810
tp811
g1
(g6
tRp812
g184
F1
ss(S'New'
p813
tp814
g1
(g6
tRp815
S'Jersey,'
p816
F0.11772486772486773
sg408
F0.64682539682539675
sS'Hampshire,'
p817
F0.058935920047031159
sS'Hampshire'
p818
F0.17651381540270428
ss(S'who'
p819
S'is'
p820
tp821
g1
(g6
tRp822
g127
F0.33333333333333331
sS'in'
p823
F0.33333333333333331
sS'embracing'
p824
F0.33333333333333331
ss(g597
g601
tp825
g1
(g6
tRp826
S'as'
p827
F1
ss(S'everybody,'
p828
S'I'
tp829
g1
(g6
tRp830
g681
F1
ss(g792
g426
tp831
g1
(g6
tRp832
g429
F1
ss(S'effort'
p833
S'in'
p834
tp835
g1
(g6
tRp836
S'this'
p837
F1
ss(S'last'
p838
S'15'
p839
tp840
g1
(g6
tRp841
S'years'
p842
F1
ss(S'maybe'
p843
tp844
g1
(g6
tRp845
S'since'
p846
F1
ss(S'to'
p847
S'plow'
p848
tp849
g1
(g6
tRp850
S'the'
p851
F1
ss(S'You'
S'bet'
p852
tp853
g1
(g6
tRp854
S'I'
F1
ss(g482
tp855
g1
(g6
tRp856
g485
F1
ss(S'enforcement'
p857
g600
tp858
g1
(g6
tRp859
S'we'
p860
F1
ss(S'something'
p861
tp862
g1
(g6
tRp863
S''
F0.59722222222222221
sS'very'
p864
F0.20138888888888887
sg491
F0.20138888888888887
ss(S'faith'
p865
S'they'
p866
tp867
g1
(g6
tRp868
g472
F1
ss(S'problem'
p869
S'do'
p870
tp871
g1
(g6
tRp872
S'I'
F1
ss(g558
tp873
g1
(g6
tRp874
g559
F1
ss(S'eye'
p875
tp876
g1
(g6
tRp877
S'and'
p878
F1
ss(S'he'
p879
S'gets'
p880
tp881
g1
(g6
tRp882
S'off'
p883
F1
ss(S'symptoms'
p884
tp885
g1
(g6
tRp886
S'--'
p887
F0.5
sS'and'
p888
F0.5
ss(S'the'
p889
S'womb,'
p890
tp891
g1
(g6
tRp892
S"I'm"
p893
F0.5
sS'in'
p894
F0.5
ss(S'Do'
p895
S'not'
p896
tp897
g1
(g6
tRp898
S'make'
p899
F1
ss(S'from'
p900
S'a'
tp901
g1
(g6
tRp902
S'place'
p903
F1
ss(S'Now,'
p904
S"I'm"
p905
tp906
g1
(g6
tRp907
S'the'
p908
F1
ss(S'25-second'
p909
tp910
g1
(g6
tRp911
S'speech'
p912
F1
ss(S'when'
S'the'
p913
tp914
g1
(g6
tRp915
S'challenges'
p916
F0.25
sS'worst'
p917
F0.25
sS'problems'
p918
F0.25
sS'government'
p919
F0.25
ss(S'gone'
p920
S'down'
p921
tp922
g1
(g6
tRp923
g422
F0.5
sS'20'
p924
F0.5
ss(g645
g648
tp925
g1
(g6
tRp926
S'in'
p927
F1
ss(S'way,'
p928
S'I'
tp929
g1
(g6
tRp930
S'like'
p931
F1
ss(S'streets,'
p932
S'getting'
p933
tp934
g1
(g6
tRp935
S'the'
p936
F1
ss(S'turning'
p937
tp938
g1
(g6
tRp939
g806
F1
ss(g307
S'that'
p940
tp941
g1
(g6
tRp942
S"that's"
p943
F1
ss(S'upon'
p944
S'the'
p945
tp946
g1
(g6
tRp947
S'symptoms,'
p948
F1
ss(S'your'
p949
S'90s,'
p950
tp951
g1
(g6
tRp952
S'no'
p953
F1
ss(S'negative'
p954
tp955
g1
(g6
tRp956
S'ultimately'
p957
F1
ss(S'coming'
p958
S'back'
p959
tp960
g1
(g6
tRp961
g900
F1
ss(S'experience'
p962
tp963
g1
(g6
tRp964
S''
F0.19999999999999998
sS'to'
p965
F0.19999999999999998
sg711
F0.19999999999999998
sS'with'
p966
F0.19999999999999998
sS'really'
p967
F0.19999999999999998
ss(S'one'
p968
g548
tp969
g1
(g6
tRp970
S'for'
p971
F1
ss(S'for'
p972
S'your'
p973
tp974
g1
(g6
tRp975
S'vote'
p976
F1
ss(S'being'
p977
tp978
g1
(g6
tRp979
S'a'
F0.5
sg97
F0.5
ss(S'said'
p980
tp981
g1
(g6
tRp982
S'this'
p983
F0.20061728395061729
sS'on'
p984
F0.20061728395061729
sS'his'
p985
F0.20061728395061729
sS'that'
p986
F0.39814814814814814
ss(S'first'
p987
tp988
g1
(g6
tRp989
S''
F0.33750000000000002
sS'time'
p990
F0.66249999999999998
ss(S'You'
S'never'
p991
tp992
g1
(g6
tRp993
S'pay'
p994
F1
ss(g987
g990
tp995
g1
(g6
tRp996
S'and'
p997
F0.5
sS'in'
p998
F0.5
ss(S'we'
p999
S'released'
p1000
tp1001
g1
(g6
tRp1002
S'her'
p1003
F1
ss(S'in'
p1004
S'those'
p1005
tp1006
g1
(g6
tRp1007
S'years'
p1008
F1
ss(S'medicine,'
p1009
S'and'
p1010
tp1011
g1
(g6
tRp1012
S'the'
p1013
F1
ss(S'attorney'
p1014
tp1015
g1
(g6
tRp1016
S'who'
p1017
F1
ss(S'showing'
p1018
S'up'
p1019
tp1020
g1
(g6
tRp1021
S'to'
p1022
F1
ss(S'second-worst'
p1023
tp1024
g1
(g6
tRp1025
S'natural'
p1026
F1
ss(S'bed'
p1027
tp1028
g1
(g6
tRp1029
S'and'
p1030
F1
ss(S'wakes'
p1031
tp1032
g1
(g6
tRp1033
S'up,'
p1034
F1
ss(g940
tp1035
g1
(g6
tRp1036
S''
F0.044441162570888468
sS'because'
p1037
F0.022223534971644612
sS'violation'
p1038
F0.022223534971644612
sS'money'
p1039
F0.022223534971644612
sS'is'
p1040
F0.066658790170132307
sS'executive'
p1041
F0.022223534971644612
sg418
F0.022223534971644612
sS'pregnancy'
p1042
F0.022223534971644612
sS'in'
p1043
F0.022223534971644612
sg358
F0.022223534971644612
sS'our'
p1044
F0.022223534971644612
sS'John'
p1045
F0.022223534971644612
sS'if'
p1046
F0.022223534971644612
sS"doesn't"
p1047
F0.022223534971644612
sS'what'
p1048
F0.022223534971644612
sS'funding'
p1049
F0.022223534971644612
sS'also'
p1050
F0.022223534971644612
sg326
F0.022223534971644612
sS'anyone'
p1051
F0.044441162570888468
sg702
F0.022223534971644612
sS'President'
p1052
F0.022223534971644612
sS'you'
p1053
F0.066658790170132307
sS'type'
p1054
F0.022223534971644612
sS'organization,'
p1055
F0.022223534971644612
sS'she'
p1056
F0.022223534971644612
sS'we'
p1057
F0.066658790170132307
sS'I'
F0.022223534971644612
sS'they'
p1058
F0.044441162570888468
sg742
F0.022223534971644612
sS'nurse'
p1059
F0.022223534971644612
sS'he'
p1060
F0.044441162570888468
sS'stuff'
p1061
F0.022223534971644612
sS'principle'
p1062
F0.022223534971644612
sS'makes'
p1063
F0.022223534971644612
sg943
F0.022223534971644612
ss(S'wrong'
p1064
tp1065
g1
(g6
tRp1066
S''
F0.66249999999999998
sS'about'
p1067
F0.33750000000000002
ss(S'But'
S'all'
p1068
tp1069
g1
(g6
tRp1070
S'that'
p1071
F1
ss(g909
g912
tp1072
g1
(g6
tRp1073
S''
F0.5
sS'that'
p1074
F0.5
ss(g517
tp1075
g1
(g6
tRp1076
g518
F1
ss(S'on'
p1077
S'millionaires,'
p1078
tp1079
g1
(g6
tRp1080
S'we'
p1081
F1
ss(S'Everyone'
p1082
S'out'
p1083
tp1084
g1
(g6
tRp1085
S'at'
p1086
F1
ss(S'pro-life'
p1087
g706
tp1088
g1
(g6
tRp1089
S'his'
p1090
F0.33333333333333331
sg707
F0.33333333333333331
sS'her'
p1091
F0.33333333333333331
ss(S'sure'
p1092
S'that'
p1093
tp1094
g1
(g6
tRp1095
S'anyone'
p1096
F0.33333333333333331
sg1044
F0.33333333333333331
sg1058
F0.33333333333333331
ss(S'cars,'
p1097
S'head'
p1098
tp1099
g1
(g6
tRp1100
S'to'
p1101
F1
ss(S'stopped'
p1102
S'it'
p1103
tp1104
g1
(g6
tRp1105
g51
F1
ss(g966
g321
tp1106
g1
(g6
tRp1107
g322
F1
ss(S'subject'
p1108
S'of'
p1109
tp1110
g1
(g6
tRp1111
S'this'
p1112
F0.5
sS'incest'
p1113
F0.5
ss(g487
g490
tp1114
g1
(g6
tRp1115
S'on'
p1116
F1
ss(S'a'
S'disease'
p1117
tp1118
g1
(g6
tRp1119
S''
F1
ss(S'It'
S'gets'
p1120
tp1121
g1
(g6
tRp1122
S'very'
p1123
F1
ss(S'over'
p1124
S'$50'
p1125
tp1126
g1
(g6
tRp1127
g367
F1
ss(S'that'
p1128
g1057
tp1129
g1
(g6
tRp1130
S'have'
p1131
F0.66249999999999998
sS'signed'
p1132
F0.33750000000000002
ss(g474
S"there's"
p1133
tp1134
g1
(g6
tRp1135
S'a'
F1
ss(S'give'
p1136
tp1137
g1
(g6
tRp1138
S'me'
p1139
F0.5
sS'or'
p1140
F0.5
ss(S'taken'
p1141
tp1142
g1
(g6
tRp1143
S'over'
p1144
F1
ss(S'a'
g238
tp1145
g1
(g6
tRp1146
g239
F1
ss(g587
g1048
tp1147
g1
(g6
tRp1148
S'we'
p1149
F1
ss(g817
S'I'
tp1150
g1
(g6
tRp1151
S'spent'
p1152
F1
ss(S'do'
p1153
S'not'
p1154
tp1155
g1
(g6
tRp1156
S'understand'
p1157
F0.5
sS'just'
p1158
F0.5
ss(S'Koreans,'
p1159
tp1160
g1
(g6
tRp1161
S'but'
p1162
F1
ss(S'serve'
p1163
S'them'
p1164
tp1165
g1
(g6
tRp1166
S''
F1
ss(S"governor's"
p1167
S'mansion,'
p1168
tp1169
g1
(g6
tRp1170
S'order'
p1171
F1
ss(S'simply'
p1172
S"haven't"
p1173
tp1174
g1
(g6
tRp1175
S''
F1
ss(g734
tp1176
g1
(g6
tRp1177
S'of'
p1178
F1
ss(S'old'
p1179
S'statistics'
p1180
tp1181
g1
(g6
tRp1182
S''
F1
ss(S'States,'
S'as'
p1183
tp1184
g1
(g6
tRp1185
S'well'
p1186
F1
ss(S"state's"
p1187
tp1188
g1
(g6
tRp1189
g788
F1
ss(g281
g284
tp1190
g1
(g6
tRp1191
S'president'
p1192
F1
ss(g1017
S'spent'
p1193
tp1194
g1
(g6
tRp1195
S'seven'
p1196
F1
ss(g1078
tp1197
g1
(g6
tRp1198
g1081
F1
ss(S'the'
p1199
S'canary'
p1200
tp1201
g1
(g6
tRp1202
S'in'
p1203
F1
ss(g1068
tp1204
g1
(g6
tRp1205
S'of'
p1206
F0.33333333333333331
sg269
F0.33333333333333331
sg1071
F0.33333333333333331
ss(S'the'
p1207
g357
tp1208
g1
(g6
tRp1209
S'they'
p1210
F1
ss(g109
tp1211
g1
(g6
tRp1212
S'and'
p1213
F1
ss(g1067
S'that,'
p1214
tp1215
g1
(g6
tRp1216
S'it'
p1217
F1
ss(S'I'
S'have'
p1218
tp1219
g1
(g6
tRp1220
S'taught'
p1221
F1
ss(S'bigger'
p1222
S'government'
p1223
tp1224
g1
(g6
tRp1225
g79
F1
ss(S'a'
S'different'
p1226
tp1227
g1
(g6
tRp1228
S'experience,'
p1229
F1
ss(S'for'
p1230
S'that'
p1231
tp1232
g1
(g6
tRp1233
g1054
F0.5
sg1043
F0.5
ss(g1136
g1140
tp1234
g1
(g6
tRp1235
S'what'
p1236
F1
ss(g166
g169
tp1237
g1
(g6
tRp1238
S'for'
p1239
F1
ss(S'stuff,'
p1240
tp1241
g1
(g6
tRp1242
S"he's"
p1243
F1
ss(S'offender'
p1244
S'no'
p1245
tp1246
g1
(g6
tRp1247
S'longer'
p1248
F1
ss(g1217
g57
tp1249
g1
(g6
tRp1250
S'hurt'
p1251
F1
ss(S'really'
p1252
S'matters'
p1253
tp1254
g1
(g6
tRp1255
S''
F0.5
sS'is'
p1256
F0.5
ss(S'the'
p1257
S'stage'
p1258
tp1259
g1
(g6
tRp1260
S'tonight'
p1261
F0.5
sS'that'
p1262
F0.5
ss(g450
S"that's"
p1263
tp1264
g1
(g6
tRp1265
S'truancy'
p1266
F1
ss(S'if'
p1267
g205
tp1268
g1
(g6
tRp1269
g62
F1
ss(S'for'
p1270
tp1271
g1
(g6
tRp1272
S''
F0.026319033530571998
sS'all'
p1273
F0.026319033530571998
sg380
F0.026319033530571998
sS'one'
p1274
F0.026319033530571998
sS'healthcare,'
p1275
F0.026319033530571998
sS'any'
p1276
F0.026319033530571998
sS'what'
p1277
F0.052627794214332689
sg1091
F0.026319033530571998
sS'six'
p1278
F0.026319033530571998
sg707
F0.026319033530571998
sg973
F0.026319033530571998
sS'it,'
p1279
F0.026319033530571998
sg696
F0.07893655489809337
sg1231
F0.052627794214332689
sg1018
F0.026319033530571998
sS'problems'
p1280
F0.026319033530571998
sg45
F0.052627794214332689
sS'hostages'
p1281
F0.026319033530571998
sg1192
F0.026319033530571998
sS'women'
p1282
F0.026319033530571998
sg658
F0.026319033530571998
sg594
F0.026319033530571998
sS'sale'
p1283
F0.026319033530571998
sS'this'
p1284
F0.026319033530571998
sS'the'
p1285
F0.21048035831689682
sg595
F0.026319033530571998
ss(S'mistake'
p1286
S'we'
p1287
tp1288
g1
(g6
tRp1289
g362
F1
ss(g547
tp1290
g1
(g6
tRp1291
S'thing'
p1292
F1
ss(S'trains'
p1293
S'running'
p1294
tp1295
g1
(g6
tRp1296
S'back'
p1297
F1
ss(S'of'
p1298
g252
tp1299
g1
(g6
tRp1300
g253
F1
ss(g783
tp1301
g1
(g6
tRp1302
S'what'
p1303
F1
ss(S'You'
S'see,'
p1304
tp1305
g1
(g6
tRp1306
g828
F1
ss(S'tax'
p1307
S'increase,'
p1308
tp1309
g1
(g6
tRp1310
S'because'
p1311
F1
ss(S'When'
g87
tp1312
g1
(g6
tRp1313
g88
F1
ss(S'skills'
p1314
tp1315
g1
(g6
tRp1316
S'you'
p1317
F1
ss(S'to'
p1318
S'do'
p1319
tp1320
g1
(g6
tRp1321
S'--'
p1322
F0.16666666666666666
sS'is'
p1323
F0.16666666666666666
sS'exactly'
p1324
F0.16666666666666666
sS'so'
p1325
F0.16666666666666666
sS'with'
p1326
F0.16666666666666666
sS'more'
p1327
F0.16666666666666666
ss(S"I'll"
p1328
S'get'
p1329
tp1330
g1
(g6
tRp1331
S'in'
p1332
F1
ss(S'country'
p1333
S'is'
p1334
tp1335
g1
(g6
tRp1336
S'not'
p1337
F1
ss(S'back'
p1338
S'to'
p1339
tp1340
g1
(g6
tRp1341
S'the'
p1342
F1
ss(g903
S'that'
p1343
tp1344
g1
(g6
tRp1345
g326
F1
ss(g1275
tp1346
g1
(g6
tRp1347
S'who'
p1348
F1
ss(S'he'
p1349
S'simply'
p1350
tp1351
g1
(g6
tRp1352
S'does'
p1353
F1
ss(S'and'
p1354
S'managing'
p1355
tp1356
g1
(g6
tRp1357
S'the'
p1358
F1
ss(S'This'
p1359
S'president'
p1360
tp1361
g1
(g6
tRp1362
S'and'
p1363
F1
ss(S'rebuilt'
p1364
tp1365
g1
(g6
tRp1366
S'the'
p1367
F0.5
sS'after'
p1368
F0.5
ss(S'terminate'
p1369
tp1370
g1
(g6
tRp1371
S''
F1
ss(S'policy,'
p1372
S"it's"
p1373
tp1374
g1
(g6
tRp1375
S'class'
p1376
F1
ss(S'showing'
p1377
g884
tp1378
g1
(g6
tRp1379
g887
F0.5
sg888
F0.5
ss(S'he'
p1380
S'walked'
p1381
tp1382
g1
(g6
tRp1383
S'in'
p1384
F1
ss(S'One'
p1385
S'of'
p1386
tp1387
g1
(g6
tRp1388
S'them'
p1389
F1
ss(S'a'
S'beer'
p1390
tp1391
g1
(g6
tRp1392
S'and'
p1393
F1
ss(S"we're"
p1394
S'doing'
p1395
tp1396
g1
(g6
tRp1397
S''
F1
ss(g943
tp1398
g1
(g6
tRp1399
g1266
F0.20061728395061729
sS'what'
p1400
F0.39814814814814814
sg718
F0.20061728395061729
sS'been'
p1401
F0.20061728395061729
ss(g676
tp1402
g1
(g6
tRp1403
S'now'
p1404
F0.5
sS'from'
p1405
F0.5
ss(S'I'
S'think'
p1406
tp1407
g1
(g6
tRp1408
S'I'
F0.25
sS'about'
p1409
F0.25
sS'is'
p1410
F0.25
sS'he'
p1411
F0.25
ss(g766
g769
tp1412
g1
(g6
tRp1413
S''
F1
ss(S'That'
p1414
tp1415
g1
(g6
tRp1416
S'woman'
p1417
F1
ss(g170
g173
tp1418
g1
(g6
tRp1419
S'gone'
p1420
F1
ss(g1083
g1086
tp1421
g1
(g6
tRp1422
S'home'
p1423
F1
ss(g88
g92
tp1424
g1
(g6
tRp1425
S'--'
p1426
F1
ss(S'this'
p1427
S'in'
p1428
tp1429
g1
(g6
tRp1430
S'New'
p1431
F1
ss(S'shot'
p1432
tp1433
g1
(g6
tRp1434
S'at'
p1435
F1
ss(S'to'
S'have'
p1436
tp1437
g1
(g6
tRp1438
S'rebuild'
p1439
F0.33333333333333331
sS'done'
p1440
F0.33333333333333331
sS'in'
p1441
F0.33333333333333331
ss(S'the'
p1442
S'door'
p1443
tp1444
g1
(g6
tRp1445
S''
F1
ss(S'able'
p1446
tp1447
g1
(g6
tRp1448
S'to'
p1449
F1
ss(S'do'
g1323
tp1450
g1
(g6
tRp1451
S'to'
p1452
F1
ss(S"It's"
S'not'
p1453
tp1454
g1
(g6
tRp1455
S'a'
F1
ss(S'idea'
p1456
S'and'
p1457
tp1458
g1
(g6
tRp1459
S'a'
F1
ss(g720
tp1460
g1
(g6
tRp1461
S''
F1
ss(S'governor'
p1462
S'who'
p1463
tp1464
g1
(g6
tRp1465
S'actually'
p1466
F1
ss(S'for'
p1467
g1281
tp1468
g1
(g6
tRp1469
S''
F1
ss(S'against'
p1470
S'from'
p1471
tp1472
g1
(g6
tRp1473
g513
F1
ss(g950
g953
tp1474
g1
(g6
tRp1475
g618
F1
ss(g269
S'veterans'
p1476
tp1477
g1
(g6
tRp1478
S'listening'
p1479
F1
ss(g1389
S'is'
p1480
tp1481
g1
(g6
tRp1482
S'here'
p1483
F1
ss(S'my'
p1484
S'state,'
p1485
tp1486
g1
(g6
tRp1487
S'I'
F1
ss(S'threatened'
p1488
S'to'
p1489
tp1490
g1
(g6
tRp1491
S'close'
p1492
F1
ss(S'engage'
p1493
S'the'
p1494
tp1495
g1
(g6
tRp1496
S'Chinese'
p1497
F1
ss(S'piece'
p1498
S'of'
p1499
tp1500
g1
(g6
tRp1501
S'paper'
p1502
F1
ss(S'by'
p1503
S'the'
p1504
tp1505
g1
(g6
tRp1506
g928
F1
ss(g211
S'my'
p1507
tp1508
g1
(g6
tRp1509
S'record'
p1510
F0.20061728395061729
sS'life'
p1511
F0.39814814814814814
sS'state'
p1512
F0.20061728395061729
sg1485
F0.20061728395061729
ss(S'take'
p1513
tp1514
g1
(g6
tRp1515
S'a'
F0.16734693877551018
sg590
F0.49795918367346931
sS'whatever'
p1516
F0.16734693877551018
sS'people'
p1517
F0.16734693877551018
ss(S'anymore;'
p1518
g1124
tp1519
g1
(g6
tRp1520
g1125
F1
ss(S'when'
p1521
S'a'
tp1522
g1
(g6
tRp1523
S'United'
p1524
F1
ss(S'next'
p1525
S'four'
p1526
tp1527
g1
(g6
tRp1528
S'years,'
p1529
F1
ss(S'are'
p1530
S'good,'
p1531
tp1532
g1
(g6
tRp1533
S'law'
p1534
F1
ss(S'Senate'
p1535
tp1536
g1
(g6
tRp1537
S''
F1
ss(S'between'
p1538
g977
tp1539
g1
(g6
tRp1540
S'a'
F1
ss(g9
S'beginning'
p1541
tp1542
g1
(g6
tRp1543
S'with'
p1544
F1
ss(S'And'
S'we'
p1545
tp1546
g1
(g6
tRp1547
S'need'
p1548
F1
ss(S'them'
p1549
S'and'
p1550
tp1551
g1
(g6
tRp1552
S'I'
F0.33750000000000002
sS'fought'
p1553
F0.66249999999999998
ss(S'help'
p1554
tp1555
g1
(g6
tRp1556
S'you'
p1557
F1
ss(S'there'
p1558
tp1559
g1
(g6
tRp1560
S'to'
p1561
F0.33333333333333331
sS'knows'
p1562
F0.33333333333333331
sS'tonight,'
p1563
F0.33333333333333331
ss(S'folks'
p1564
tp1565
g1
(g6
tRp1566
S''
F0.5
sS'in'
p1567
F0.5
ss(S'or'
p1568
S'no'
p1569
tp1570
g1
(g6
tRp1571
g517
F1
ss(S'outside,'
p1572
S'but'
p1573
tp1574
g1
(g6
tRp1575
S'comes'
p1576
F1
ss(S'what'
p1577
S'Hillary'
p1578
tp1579
g1
(g6
tRp1580
S'Clinton'
p1581
F1
ss(S'Act'
p1582
tp1583
g1
(g6
tRp1584
S'that'
p1585
F1
ss(S'home'
p1586
S'safely,'
p1587
tp1588
g1
(g6
tRp1589
S'but'
p1590
F1
ss(S'Maine'
p1591
tp1592
g1
(g6
tRp1593
S''
F1
ss(S'Joe'
p1594
tp1595
g1
(g6
tRp1596
S'Biden'
p1597
F1
ss(g343
tp1598
g1
(g6
tRp1599
g344
F0.14285714285714288
sg839
F0.14285714285714288
sS'six'
p1600
F0.14285714285714288
sS'three'
p1601
F0.14285714285714288
sS'thing'
p1602
F0.14285714285714288
sS'thing,'
p1603
F0.14285714285714288
sg400
F0.14285714285714288
ss(S'my'
p1604
g1511
tp1605
g1
(g6
tRp1606
S'focused'
p1607
F0.5
sS'fighting'
p1608
F0.5
ss(S'not'
p1609
g659
tp1610
g1
(g6
tRp1611
g660
F1
ss(g1534
S'abiding,'
p1612
tp1613
g1
(g6
tRp1614
S'hard'
p1615
F1
ss(S'failed'
p1616
g1456
tp1617
g1
(g6
tRp1618
g1457
F1
ss(S'state'
p1619
tp1620
g1
(g6
tRp1621
S''
F0.38411078717201169
sS'and'
p1622
F0.077016520894071919
sS'after'
p1623
F0.077016520894071919
sS'budget'
p1624
F0.077016520894071919
sS'to'
p1625
F0.15379008746355685
sS'at'
p1626
F0.077016520894071919
sS'prison'
p1627
F0.077016520894071919
sg217
F0.077016520894071919
ss(g917
S'natural'
p1628
tp1629
g1
(g6
tRp1630
S'disaster'
p1631
F1
ss(S'president'
p1632
S'of'
p1633
tp1634
g1
(g6
tRp1635
g498
F1
ss(S'respond'
p1636
tp1637
g1
(g6
tRp1638
S''
F1
ss(g396
g399
tp1639
g1
(g6
tRp1640
g847
F1
ss(g412
tp1641
g1
(g6
tRp1642
S'our'
p1643
F0.33750000000000002
sS'taxes'
p1644
F0.66249999999999998
ss(S'win'
p1645
S'this'
p1646
tp1647
g1
(g6
tRp1648
g622
F1
ss(S'those'
p1649
tp1650
g1
(g6
tRp1651
S'who'
p1652
F0.33333333333333331
sg771
F0.33333333333333331
sg1008
F0.33333333333333331
ss(S"That's"
S'the'
p1653
tp1654
g1
(g6
tRp1655
S'way'
p1656
F1
ss(S'men'
p1657
S'asking'
p1658
tp1659
g1
(g6
tRp1660
g972
F1
ss(S'are'
p1661
S'smart'
p1662
tp1663
g1
(g6
tRp1664
S''
F1
ss(S'smart'
p1665
g775
tp1666
g1
(g6
tRp1667
g776
F1
ss(g1031
g1034
tp1668
g1
(g6
tRp1669
g467
F1
ss(S'want'
p1670
S'everybody'
p1671
tp1672
g1
(g6
tRp1673
g466
F1
ss(S'defend'
p1674
S'their'
p1675
tp1676
g1
(g6
tRp1677
S'country,'
p1678
F1
ss(S'governors'
p1679
tp1680
g1
(g6
tRp1681
S'this'
p1682
F1
ss(S'And'
S'so,'
p1683
tp1684
g1
(g6
tRp1685
S'what'
p1686
F1
ss(S'intelligence'
p1687
tp1688
g1
(g6
tRp1689
S'and'
p1690
F1
ss(S'But'
S'for'
p1691
tp1692
g1
(g6
tRp1693
g1278
F1
ss(S'Because'
p1694
S'I'
tp1695
g1
(g6
tRp1696
g40
F1
ss(S'partisanship,'
p1697
S'but'
p1698
tp1699
g1
(g6
tRp1700
S'putting'
p1701
F1
ss(S'within'
p1702
tp1703
g1
(g6
tRp1704
S''
F1
ss(g1263
g1266
tp1705
g1
(g6
tRp1706
S''
F1
ss(S'endanger'
p1707
S'even'
p1708
tp1709
g1
(g6
tRp1710
S'more'
p1711
F1
ss(g1102
tp1712
g1
(g6
tRp1713
g1103
F1
ss(S'take,'
p1714
S'not'
p1715
tp1716
g1
(g6
tRp1717
S'only'
p1718
F1
ss(S"You've"
p1719
tp1720
g1
(g6
tRp1721
S'gotten'
p1722
F1
ss(g1308
g1311
tp1723
g1
(g6
tRp1724
S'I'
F1
ss(S'this'
p1725
S'on'
p1726
tp1727
g1
(g6
tRp1728
g1257
F1
ss(g1256
S'this,'
p1729
tp1730
g1
(g6
tRp1731
S'that'
p1732
F1
ss(S'ransom'
p1733
S'for'
p1734
tp1735
g1
(g6
tRp1736
g1276
F0.5
sg1281
F0.5
ss(S'one'
p1737
g541
tp1738
g1
(g6
tRp1739
S'young'
p1740
F1
ss(S'a'
S'good'
p1741
tp1742
g1
(g6
tRp1743
S'guy,'
p1744
F0.5
sS'governor'
p1745
F0.5
ss(S'State,'
p1746
tp1747
g1
(g6
tRp1748
g819
F1
ss(S'of'
p1749
S'it'
p1750
tp1751
g1
(g6
tRp1752
g48
F1
ss(g605
tp1753
g1
(g6
tRp1754
S''
F1
ss(g658
tp1755
g1
(g6
tRp1756
S'ransom'
p1757
F1
ss(g954
g957
tp1758
g1
(g6
tRp1759
S'after'
p1760
F1
ss(S'John'
p1761
S'has'
p1762
tp1763
g1
(g6
tRp1764
S'a'
F1
ss(S'issue'
p1765
tp1766
g1
(g6
tRp1767
S''
F0.5
sg549
F0.5
ss(S'in-patient'
p1768
tp1769
g1
(g6
tRp1770
S'drug'
p1771
F1
ss(S'is'
p1772
g586
tp1773
g1
(g6
tRp1774
g58
F1
ss(g518
g521
tp1775
g1
(g6
tRp1776
S'when'
p1777
F1
ss(S'I'
g746
tp1778
g1
(g6
tRp1779
g747
F1
ss(S'time'
p1780
S'when'
p1781
tp1782
g1
(g6
tRp1783
S"you've"
p1784
F1
ss(S'believed,'
p1785
tp1786
g1
(g6
tRp1787
S'as'
p1788
F1
ss(S'I'
S'need'
p1789
tp1790
g1
(g6
tRp1791
S'to'
p1792
F1
ss(g833
tp1793
g1
(g6
tRp1794
g834
F1
ss(g1060
g799
tp1795
g1
(g6
tRp1796
S''
F0.5
sg803
F0.5
ss(S'a'
S"woman's"
p1797
tp1798
g1
(g6
tRp1799
S'choice'
p1800
F1
ss(S'was'
S'done'
p1801
tp1802
g1
(g6
tRp1803
S''
F0.5
sg114
F0.5
ss(S'receive'
p1804
S'that'
p1805
tp1806
g1
(g6
tRp1807
g1049
F1
ss(g1049
S'from'
p1808
tp1809
g1
(g6
tRp1810
S'the'
p1811
F1
ss(S'attacked'
p1812
tp1813
g1
(g6
tRp1814
S'me'
p1815
F1
ss(S'Yeah,'
p1816
tp1817
g1
(g6
tRp1818
S'David,'
p1819
F1
ss(g1453
S'a'
tp1820
g1
(g6
tRp1821
g1797
F0.5
sS'moral'
p1822
F0.5
ss(S'just'
p1823
S'like'
p1824
tp1825
g1
(g6
tRp1826
S'you'
p1827
F1
ss(S'fewer'
p1828
S'employees'
p1829
tp1830
g1
(g6
tRp1831
S'than'
p1832
F1
ss(S'has'
p1833
tp1834
g1
(g6
tRp1835
S'a'
F0.11117647058823532
sg920
F0.221764705882353
sS'advocated'
p1836
F0.11117647058823532
sS'been'
p1837
F0.11117647058823532
sS'Ronald'
p1838
F0.11117647058823532
sS'to'
p1839
F0.11117647058823532
sg1785
F0.11117647058823532
sS'happened'
p1840
F0.11117647058823532
ss(S'What'
S'my'
p1841
tp1842
g1
(g6
tRp1843
S'wife'
p1844
F1
ss(g557
S'between'
p1845
tp1846
g1
(g6
tRp1847
S'our'
p1848
F1
ss(S'action'
p1849
S'to'
p1850
tp1851
g1
(g6
tRp1852
S'make'
p1853
F1
ss(g1039
tp1854
g1
(g6
tRp1855
S'will'
p1856
F0.5
sS"that's"
p1857
F0.5
ss(g1284
S'campaign'
p1858
tp1859
g1
(g6
tRp1860
S'--'
p1861
F1
ss(S'really'
p1862
S'--'
p1863
tp1864
g1
(g6
tRp1865
S'can'
p1866
F1
ss(g1022
S'work,'
p1867
tp1868
g1
(g6
tRp1869
S'plowing'
p1870
F1
ss(S'in'
p1871
S'from'
p1872
tp1873
g1
(g6
tRp1874
S'the'
p1875
F1
ss(g1213
S'safely'
p1876
tp1877
g1
(g6
tRp1878
S''
F1
ss(g1476
tp1879
g1
(g6
tRp1880
g1479
F1
ss(g1078
g1081
tp1881
g1
(g6
tRp1882
S'lost,'
p1883
F1
ss(g745
g206
tp1884
g1
(g6
tRp1885
S'believe'
p1886
F1
ss(S'been'
p1887
S'impregnated'
p1888
tp1889
g1
(g6
tRp1890
S'for'
p1891
F1
ss(S'heart'
p1892
S'is'
p1893
tp1894
g1
(g6
tRp1895
S'to'
p1896
F1
ss(g1297
S'on'
p1897
tp1898
g1
(g6
tRp1899
g1780
F1
ss(g1572
tp1900
g1
(g6
tRp1901
g1573
F1
ss(g1734
g1276
tp1902
g1
(g6
tRp1903
S'hostage'
p1904
F1
ss(S'busy'
p1905
tp1906
g1
(g6
tRp1907
S'doing'
p1908
F1
ss(S'Congress'
p1909
S'is'
p1910
tp1911
g1
(g6
tRp1912
S''
F1
ss(S'Rubio,'
p1913
S'and'
p1914
tp1915
g1
(g6
tRp1916
S"he's"
p1917
F1
ss(S'tonight'
p1918
S'with'
p1919
tp1920
g1
(g6
tRp1921
S'these'
p1922
F1
ss(g924
S'percent'
p1923
tp1924
g1
(g6
tRp1925
g1004
F1
ss(S'My'
p1926
g1892
tp1927
g1
(g6
tRp1928
g1893
F1
ss(S'abundantly'
p1929
tp1930
g1
(g6
tRp1931
S'clear'
p1932
F1
ss(S'State'
p1933
g654
tp1934
g1
(g6
tRp1935
g655
F1
ss(S'watched'
p1936
tp1937
g1
(g6
tRp1938
S'it'
p1939
F1
ss(g1304
g828
tp1940
g1
(g6
tRp1941
S'I'
F1
ss(g1401
g563
tp1942
g1
(g6
tRp1943
g566
F1
ss(S'and'
p1944
tp1945
g1
(g6
tRp1946
g184
F0.017544473199505743
sS'our'
p1947
F0.03508603203469262
sS'information'
p1948
F0.017544473199505743
sg738
F0.017544473199505743
sg78
F0.017544473199505743
sS'her'
p1949
F0.017544473199505743
sg1917
F0.017544473199505743
sg1355
F0.017544473199505743
sg572
F0.017544473199505743
sS'make'
p1950
F0.017544473199505743
sg1887
F0.017544473199505743
sS'fight'
p1951
F0.017544473199505743
sg668
F0.017544473199505743
sg1553
F0.03508603203469262
sS"we're"
p1952
F0.017544473199505743
sS'you'
p1953
F0.017544473199505743
sS'has'
p1954
F0.017544473199505743
sS'more'
p1955
F0.017544473199505743
sS'be'
p1956
F0.017544473199505743
sS'we'
p1957
F0.070169149705066394
sS'his'
p1958
F0.017544473199505743
sS'impregnated'
p1959
F0.017544473199505743
sS'I'
F0.03508603203469262
sS'watch'
p1960
F0.017544473199505743
sg1488
F0.017544473199505743
sS'rebuilt'
p1961
F0.017544473199505743
sS'surely'
p1962
F0.017544473199505743
sS'they'
p1963
F0.017544473199505743
sg958
F0.017544473199505743
sg213
F0.017544473199505743
sS"I'm"
p1964
F0.017544473199505743
sg275
F0.03508603203469262
sS'why'
p1965
F0.017544473199505743
sg272
F0.017544473199505743
sS'a'
F0.070169149705066394
sS'strength,'
p1966
F0.017544473199505743
sg1876
F0.017544473199505743
sS'so'
p1967
F0.017544473199505743
sg122
F0.017544473199505743
sS"it's"
p1968
F0.017544473199505743
sS'the'
p1969
F0.052627590869879518
sS'my'
p1970
F0.017544473199505743
sS'support'
p1971
F0.017544473199505743
sS'incomplete'
p1972
F0.017544473199505743
sS"that's"
p1973
F0.017544473199505743
ss(S'but'
p1974
S'toughness'
p1975
tp1976
g1
(g6
tRp1977
S'and'
p1978
F1
ss(S'be'
p1979
S'the'
p1980
tp1981
g1
(g6
tRp1982
g1200
F0.5
sg1108
F0.5
ss(S'exactly'
p1983
S'what'
p1984
tp1985
g1
(g6
tRp1986
g1578
F0.25
sS'his'
p1987
F0.25
sS"we're"
p1988
F0.25
sS"he's"
p1989
F0.25
ss(g628
tp1990
g1
(g6
tRp1991
S''
F0.33333333333333331
sS'a'
F0.33333333333333331
sS'market,'
p1992
F0.33333333333333331
ss(S'But'
p1993
S'--'
p1994
tp1995
g1
(g6
tRp1996
S'but'
p1997
F1
ss(S"I'm"
p1998
S'glad'
p1999
tp2000
g1
(g6
tRp2001
S'you'
p2002
F1
ss(S'Planned'
p2003
g795
tp2004
g1
(g6
tRp2005
g798
F1
ss(S'on'
p2006
S'Tuesday'
p2007
tp2008
g1
(g6
tRp2009
S'I'
F1
ss(g1283
tp2010
g1
(g6
tRp2011
S'on'
p2012
F1
ss(g217
g220
tp2013
g1
(g6
tRp2014
g1952
F1
ss(S'gift'
p2015
tp2016
g1
(g6
tRp2017
S'from'
p2018
F1
ss(S'of'
g869
tp2019
g1
(g6
tRp2020
g870
F1
ss(S'Hurricane'
p2021
S'Sandy,'
p2022
tp2023
g1
(g6
tRp2024
S'and'
p2025
F1
ss(g1867
tp2026
g1
(g6
tRp2027
g528
F0.5
sg1870
F0.5
ss(S'and'
p2028
g1973
tp2029
g1
(g6
tRp2030
S'what'
p2031
F1
ss(g1285
S'people'
p2032
tp2033
g1
(g6
tRp2034
g4
F0.14322916666666669
sS'of'
p2035
F0.28515625000000006
sS'who'
p2036
F0.28515625000000006
sS'are'
p2037
F0.14322916666666669
sS'that'
p2038
F0.14322916666666669
ss(g1858
g1861
tp2039
g1
(g6
tRp2040
S'three'
p2041
F1
ss(S'cannot'
p2042
S'nix'
p2043
tp2044
g1
(g6
tRp2045
S'the'
p2046
F0.66666666666666663
sS'(ph)'
p2047
F0.33333333333333331
ss(S'fine'
p2048
tp2049
g1
(g6
tRp2050
S''
F0.5
sS'job,'
p2051
F0.5
ss(S'vote'
p2052
S'for'
p2053
tp2054
g1
(g6
tRp2055
g45
F1
ss(g1262
g1052
tp2056
g1
(g6
tRp2057
S'Obama'
p2058
F1
ss(S'because'
p2059
S'I'
tp2060
g1
(g6
tRp2061
S'vetoed'
p2062
F0.25
sS'wanted'
p2063
F0.25
sS'am'
p2064
F0.25
sS'took'
p2065
F0.25
ss(S'to'
p2066
S'travel'
p2067
tp2068
g1
(g6
tRp2069
S'the'
p2070
F1
ss(g1480
g1483
tp2071
g1
(g6
tRp2072
S'tonight'
p2073
F1
ss(S'solve'
p2074
g1270
tp2075
g1
(g6
tRp2076
g1285
F1
ss(g307
tp2077
g1
(g6
tRp2078
S'one'
p2079
F0.5
sg940
F0.5
ss(S'be'
p2080
S'a'
tp2081
g1
(g6
tRp2082
S'party'
p2083
F1
ss(S'treating'
p2084
tp2085
g1
(g6
tRp2086
S'patients'
p2087
F1
ss(S'handicap'
p2088
S'it'
p2089
tp2090
g1
(g6
tRp2091
S'and'
p2092
F1
ss(S'about'
p2093
S'this'
p2094
tp2095
g1
(g6
tRp2096
S''
F1
ss(S'You'
S'can'
p2097
tp2098
g1
(g6
tRp2099
S'call'
p2100
F1
ss(S'an'
p2101
S'acceptable'
p2102
tp2103
g1
(g6
tRp2104
g754
F1
ss(g178
g1567
tp2105
g1
(g6
tRp2106
S'New'
p2107
F0.5
sS'the'
p2108
F0.5
ss(S'Anybody'
p2109
tp2110
g1
(g6
tRp2111
S'who'
p2112
F1
ss(S'the'
p2113
S'nine'
p2114
tp2115
g1
(g6
tRp2116
S'months'
p2117
F1
ss(g2022
g2025
tp2118
g1
(g6
tRp2119
g1964
F1
ss(g1414
g1417
tp2120
g1
(g6
tRp2121
S'should'
p2122
F1
ss(g1917
S'a'
tp2123
g1
(g6
tRp2124
g1665
F1
ss(S'is,'
p2125
S'Marco,'
p2126
tp2127
g1
(g6
tRp2128
S'you'
p2129
F1
ss(S'come'
p2130
g1871
tp2131
g1
(g6
tRp2132
g1872
F1
ss(g1131
S'always'
p2133
tp2134
g1
(g6
tRp2135
S'has'
p2136
F1
ss(S'a'
S'greater'
p2137
tp2138
g1
(g6
tRp2139
g833
F1
ss(g1562
g1427
tp2140
g1
(g6
tRp2141
g1428
F1
ss(g1569
g517
tp2142
g1
(g6
tRp2143
g518
F1
ss(g109
g1213
tp2144
g1
(g6
tRp2145
g1876
F1
ss(g449
S'leadership'
p2146
tp2147
g1
(g6
tRp2148
S'is'
p2149
F1
ss(S'people'
p2150
S'the'
p2151
tp2152
g1
(g6
tRp2153
S'treatment'
p2154
F1
ss(g1876
tp2155
g1
(g6
tRp2156
S''
F1
ss(S'not'
p2157
S'just'
p2158
tp2159
g1
(g6
tRp2160
S'need'
p2161
F0.33333333333333331
sS'some'
p2162
F0.33333333333333331
sS'for'
p2163
F0.33333333333333331
ss(S'drug'
p2164
S'overdose'
p2165
tp2166
g1
(g6
tRp2167
g170
F1
ss(S'engage'
p2168
tp2169
g1
(g6
tRp2170
g1494
F0.5
sS'in'
p2171
F0.5
ss(S'the'
p2172
S'women'
p2173
tp2174
g1
(g6
tRp2175
S'in'
p2176
F1
ss(S'warfare'
p2177
tp2178
g1
(g6
tRp2179
S''
F1
ss(S'pizza,'
p2180
S'open'
p2181
tp2182
g1
(g6
tRp2183
S'a'
F1
ss(g548
g971
tp2184
g1
(g6
tRp2185
g1274
F1
ss(g1590
S'to'
p2186
tp2187
g1
(g6
tRp2188
g381
F1
ss(S"That's"
S'OK'
p2189
tp2190
g1
(g6
tRp2191
S''
F1
ss(g894
S'order'
p2192
tp2193
g1
(g6
tRp2194
S'to'
p2195
F1
ss(S'no'
p2196
S'reason'
p2197
tp2198
g1
(g6
tRp2199
S'why'
p2200
F1
ss(S'Islamic'
p2201
S'jihadist'
p2202
tp2203
g1
(g6
tRp2204
g765
F1
ss(S'We'
p2205
S'have'
p2206
tp2207
g1
(g6
tRp2208
S'to'
p2209
F1
ss(g192
tp2210
g1
(g6
tRp2211
g193
F1
ss(S'not'
p2212
S'be'
p2213
tp2214
g1
(g6
tRp2215
S'involved'
p2216
F1
ss(S"we've"
p2217
g1141
tp2218
g1
(g6
tRp2219
g1144
F1
ss(g100
tp2220
g1
(g6
tRp2221
g103
F1
ss(S'so'
p2222
S'weak'
p2223
tp2224
g1
(g6
tRp2225
S'and'
p2226
F1
ss(S'victim'
p2227
tp2228
g1
(g6
tRp2229
S'of'
p2230
F1
ss(S'you'
p2231
S'the'
p2232
tp2233
g1
(g6
tRp2234
g314
F1
ss(g816
tp2235
g1
(g6
tRp2236
S'Josh'
p2237
F0.5
sS'for'
p2238
F0.5
ss(g253
tp2239
g1
(g6
tRp2240
S''
F0.33333333333333331
sg2028
F0.33333333333333331
sS'right'
p2241
F0.33333333333333331
ss(g1286
tp2242
g1
(g6
tRp2243
S'again'
p2244
F0.5
sg1287
F0.5
ss(S'million'
p2245
tp2246
g1
(g6
tRp2247
S'of'
p2248
F0.5
sg368
F0.5
ss(S'record,'
p2249
S'too'
p2250
tp2251
g1
(g6
tRp2252
S''
F1
ss(S'the'
p2253
S'government'
p2254
tp2255
g1
(g6
tRp2256
S''
F0.25
sS'reopens'
p2257
F0.25
sS'because'
p2258
F0.25
sS"doesn't"
p2259
F0.25
ss(S'unfortunately,'
p2260
S"John's"
p2261
tp2262
g1
(g6
tRp2263
S'been'
p2264
F1
ss(g2137
g833
tp2265
g1
(g6
tRp2266
g834
F1
ss(g426
g429
tp2267
g1
(g6
tRp2268
S'said'
p2269
F1
ss(S'executives'
p2270
tp2271
g1
(g6
tRp2272
S''
F1
ss(S"weren't"
p2273
tp2274
g1
(g6
tRp2275
S'even'
p2276
F1
ss(S'throughout'
p2277
tp2278
g1
(g6
tRp2279
S'my'
p2280
F1
ss(g2047
S'the'
p2281
tp2282
g1
(g6
tRp2283
S'radical'
p2284
F1
ss(g828
tp2285
g1
(g6
tRp2286
S'I'
F1
ss(S'Marco,'
p2287
S'the'
p2288
tp2289
g1
(g6
tRp2290
S'thing'
p2291
F1
ss(S'is'
p2292
S'our'
p2293
tp2294
g1
(g6
tRp2295
S'cooperation,'
p2296
F1
ss(S'good'
p2297
S'job'
p2298
tp2299
g1
(g6
tRp2300
S''
F0.5
sS'as'
p2301
F0.5
ss(g433
S'this'
p2302
tp2303
g1
(g6
tRp2304
S'is'
p2305
F1
ss(S'on'
p2306
S'this,'
p2307
tp2308
g1
(g6
tRp2309
S'because'
p2310
F1
ss(S'with'
p2311
S'the'
p2312
tp2313
g1
(g6
tRp2314
S'folks'
p2315
F0.5
sS'North'
p2316
F0.5
ss(g673
g676
tp2317
g1
(g6
tRp2318
g1404
F1
ss(g1707
tp2319
g1
(g6
tRp2320
g1708
F1
ss(S'would'
p2321
S'fight'
p2322
tp2323
g1
(g6
tRp2324
S'for'
p2325
F1
ss(g1962
tp2326
g1
(g6
tRp2327
S'punish'
p2328
F1
ss(S'about'
p2329
g1697
tp2330
g1
(g6
tRp2331
g1698
F1
ss(S'wealth'
p2332
S'left'
p2333
tp2334
g1
(g6
tRp2335
S'our'
p2336
F1
ss(g696
g700
tp2337
g1
(g6
tRp2338
S''
F1
ss(g1109
g1112
tp2339
g1
(g6
tRp2340
S'type'
p2341
F1
ss(g1788
S'has'
p2342
tp2343
g1
(g6
tRp2344
g1838
F1
ss(g396
tp2345
g1
(g6
tRp2346
g399
F1
ss(g400
g403
tp2347
g1
(g6
tRp2348
S'of'
p2349
F1
ss(g296
S'out'
p2350
tp2351
g1
(g6
tRp2352
S'to'
p2353
F1
ss(S'it'
g60
tp2354
g1
(g6
tRp2355
S'everybody'
p2356
F1
ss(S'dying'
p2357
tp2358
g1
(g6
tRp2359
S'because'
p2360
F1
ss(g1449
g1369
tp2361
g1
(g6
tRp2362
S''
F1
ss(S'bring'
p2363
S'the'
p2364
tp2365
g1
(g6
tRp2366
S'same'
p2367
F1
ss(S'accountable'
p2368
tp2369
g1
(g6
tRp2370
S''
F0.5
sg377
F0.5
ss(S'mine'
p2371
tp2372
g1
(g6
tRp2373
S''
F1
ss(g1615
S'working'
p2374
tp2375
g1
(g6
tRp2376
S'people'
p2377
F1
ss(S'you'
p2378
S'know'
p2379
tp2380
g1
(g6
tRp2381
S'what'
p2382
F1
ss(S'billion'
p2383
S'and'
p2384
tp2385
g1
(g6
tRp2386
S'we'
p2387
F1
ss(g222
g225
tp2388
g1
(g6
tRp2389
g784
F1
ss(S'I'
S'be'
p2390
tp2391
g1
(g6
tRp2392
g1862
F1
ss(S'if'
p2393
S'a'
tp2394
g1
(g6
tRp2395
S'woman'
p2396
F0.5
sg645
F0.5
ss(S'run'
p2397
tp2398
g1
(g6
tRp2399
S''
F1
ss(S'Come'
p2400
S'take'
p2401
tp2402
g1
(g6
tRp2403
S'a'
F1
ss(g330
g333
tp2404
g1
(g6
tRp2405
S'there'
p2406
F1
ss(g1039
g1856
tp2407
g1
(g6
tRp2408
S'leave'
p2409
F1
ss(g2063
S'to'
p2410
tp2411
g1
(g6
tRp2412
S'raise'
p2413
F0.5
sS'reform'
p2414
F0.5
ss(g846
tp2415
g1
(g6
tRp2416
S'I'
F1
ss(g2293
g2296
tp2417
g1
(g6
tRp2418
S'and'
p2419
F1
ss(S'against'
p2420
tp2421
g1
(g6
tRp2422
S'them'
p2423
F0.5
sg1471
F0.5
ss(S'billion'
p2424
S'in'
p2425
tp2426
g1
(g6
tRp2427
g2332
F1
ss(S'my'
p2428
g1097
tp2429
g1
(g6
tRp2430
g1098
F1
ss(g572
g575
tp2431
g1
(g6
tRp2432
S''
F1
ss(S'a'
S'state,'
p2433
tp2434
g1
(g6
tRp2435
S'the'
p2436
F1
ss(g64
tp2437
g1
(g6
tRp2438
g463
F1
ss(S'the'
p2439
S'floor'
p2440
tp2441
g1
(g6
tRp2442
S'of'
p2443
F1
ss(g686
tp2444
g1
(g6
tRp2445
g687
F1
ss(g2067
g2070
tp2446
g1
(g6
tRp2447
S'world'
p2448
F1
ss(g52
S'they'
p2449
tp2450
g1
(g6
tRp2451
g15
F1
ss(S'you'
p2452
S'would'
p2453
tp2454
g1
(g6
tRp2455
S'actually'
p2456
F1
ss(g1805
g1049
tp2457
g1
(g6
tRp2458
g1808
F1
ss(S'very'
p2459
g2297
tp2460
g1
(g6
tRp2461
g2298
F1
ss(S'government,'
p2462
tp2463
g1
(g6
tRp2464
S'I'
F1
ss(S'speech'
p2465
S'can'
p2466
tp2467
g1
(g6
tRp2468
S'I'
F1
ss(S'maximize'
p2469
S'the'
p2470
tp2471
g1
(g6
tRp2472
S'value'
p2473
F1
ss(S'is,'
S'I'
tp2474
g1
(g6
tRp2475
S'went'
p2476
F1
ss(S'is'
g587
tp2477
g1
(g6
tRp2478
S'we'
p2479
F0.25
sg1037
F0.25
sg1048
F0.25
sg2452
F0.25
ss(g467
g479
tp2480
g1
(g6
tRp2481
S'about'
p2482
F1
ss(S'people'
p2483
g2035
tp2484
g1
(g6
tRp2485
g813
F0.5
sS'my'
p2486
F0.5
ss(S'understands'
p2487
S'that'
p2488
tp2489
g1
(g6
tRp2490
g1062
F1
ss(S'ransom'
p2491
tp2492
g1
(g6
tRp2493
S'to'
p2494
F0.5
sg1734
F0.5
ss(S'your'
p2495
g1187
tp2496
g1
(g6
tRp2497
g788
F1
ss(g1281
tp2498
g1
(g6
tRp2499
S''
F1
ss(g1386
g1389
tp2500
g1
(g6
tRp2501
g1480
F1
ss(S'These'
p2502
tp2503
g1
(g6
tRp2504
S'efforts'
p2505
F0.5
sg1530
F0.5
ss(S'vote'
p2506
S'yes'
p2507
tp2508
g1
(g6
tRp2509
g1568
F1
ss(S'And'
S'this'
p2510
tp2511
g1
(g6
tRp2512
S'is'
p2513
F1
ss(S'the'
p2514
g719
tp2515
g1
(g6
tRp2516
g720
F1
ss(g1132
g792
tp2517
g1
(g6
tRp2518
g426
F1
ss(S'States'
g1535
tp2519
g1
(g6
tRp2520
S''
F1
ss(g1959
tp2521
g1
(g6
tRp2522
S'because'
p2523
F0.5
sg1891
F0.5
ss(S'$20'
p2524
tp2525
g1
(g6
tRp2526
g2245
F1
ss(S'millionaires'
p2527
tp2528
g1
(g6
tRp2529
S'in'
p2530
F1
ss(g2213
g2216
tp2531
g1
(g6
tRp2532
S'in'
p2533
F1
ss(g1516
S'actions'
p2534
tp2535
g1
(g6
tRp2536
S'we'
p2537
F1
ss(g1492
S'down'
p2538
tp2539
g1
(g6
tRp2540
S'the'
p2541
F1
ss(g44
S'if'
p2542
tp2543
g1
(g6
tRp2544
g204
F1
ss(S'yourself'
p2545
tp2546
g1
(g6
tRp2547
S'to'
p2548
F1
ss(S'country'
S'wants'
p2549
tp2550
g1
(g6
tRp2551
S'to'
p2552
F1
ss(S"couldn't"
p2553
tp2554
g1
(g6
tRp2555
S'pass'
p2556
F1
ss(g51
S'happening'
p2557
tp2558
g1
(g6
tRp2559
S'again'
p2560
F1
ss(S'kind'
p2561
tp2562
g1
(g6
tRp2563
S'of'
p2564
F1
ss(g639
S'that'
p2565
tp2566
g1
(g6
tRp2567
g742
F1
ss(S'one'
p2568
g539
tp2569
g1
(g6
tRp2570
S'serving'
p2571
F1
ss(S'have'
p2572
S'better'
p2573
tp2574
g1
(g6
tRp2575
S'jobs'
p2576
F1
ss(S'get'
p2577
S'our'
p2578
tp2579
g1
(g6
tRp2580
S'people'
p2581
F1
ss(g2284
g2201
tp2582
g1
(g6
tRp2583
g2202
F1
ss(S'And'
g2393
tp2584
g1
(g6
tRp2585
S'a'
F1
ss(g2043
tp2586
g1
(g6
tRp2587
g2046
F0.66666666666666663
sg2047
F0.33333333333333331
ss(g575
tp2588
g1
(g6
tRp2589
S''
F1
ss(g890
tp2590
g1
(g6
tRp2591
g893
F0.5
sg894
F0.5
ss(g823
S'that'
p2592
tp2593
g1
(g6
tRp2594
g358
F1
ss(S'here'
p2595
S"who's"
p2596
tp2597
g1
(g6
tRp2598
S'had'
p2599
F1
ss(g1789
g1792
tp2600
g1
(g6
tRp2601
g1319
F0.29935720844811758
sg1493
F0.10009182736455463
sS'get'
p2602
F0.10009182736455463
sS'make'
p2603
F0.10009182736455463
sg2074
F0.10009182736455463
sg1436
F0.10009182736455463
sg2080
F0.10009182736455463
sg1714
F0.10009182736455463
ss(S'not'
p2604
g280
tp2605
g1
(g6
tRp2606
g281
F1
ss(S'when'
p2607
S'people'
p2608
tp2609
g1
(g6
tRp2610
S'wanted'
p2611
F1
ss(S'religious'
p2612
tp2613
g1
(g6
tRp2614
g865
F1
ss(g239
g242
tp2615
g1
(g6
tRp2616
S'for'
p2617
F1
ss(g1179
tp2618
g1
(g6
tRp2619
g1180
F1
ss(g542
g481
tp2620
g1
(g6
tRp2621
S'state'
p2622
F0.5
sg482
F0.5
ss(g377
g380
tp2623
g1
(g6
tRp2624
S''
F1
ss(S'Sixteen-year-old,'
p2625
g558
tp2626
g1
(g6
tRp2627
g559
F1
ss(S'of'
S'our'
p2628
tp2629
g1
(g6
tRp2630
S'nation'
p2631
F1
ss(g2433
g2436
tp2632
g1
(g6
tRp2633
S'memorized'
p2634
F1
ss(S'a'
g2048
tp2635
g1
(g6
tRp2636
g2051
F1
ss(g1420
S'down,'
p2637
tp2638
g1
(g6
tRp2639
S'not'
p2640
F1
ss(g1964
S'incredibly'
p2641
tp2642
g1
(g6
tRp2643
S'proud'
p2644
F1
ss(S'to'
p2645
g639
tp2646
g1
(g6
tRp2647
g2565
F1
ss(g1714
tp2648
g1
(g6
tRp2649
g1715
F1
ss(g325
g2527
tp2650
g1
(g6
tRp2651
g2530
F1
ss(S'this'
p2652
g1333
tp2653
g1
(g6
tRp2654
g2549
F0.33333333333333331
sg1334
F0.33333333333333331
sS'understand'
p2655
F0.33333333333333331
ss(S'been'
p2656
S'raped'
p2657
tp2658
g1
(g6
tRp2659
S'and'
p2660
F1
ss(g1297
tp2661
g1
(g6
tRp2662
g1897
F0.33333333333333331
sg900
F0.33333333333333331
sg1339
F0.33333333333333331
ss(g358
tp2663
g1
(g6
tRp2664
S'percent'
p2665
F0.5
sg359
F0.5
ss(S'taxes'
p2666
S'in'
p2667
tp2668
g1
(g6
tRp2669
S'my'
p2670
F1
ss(S'and'
p2671
g1956
tp2672
g1
(g6
tRp2673
S'held'
p2674
F1
ss(S'legislature'
p2675
S'and'
p2676
tp2677
g1
(g6
tRp2678
g1488
F1
ss(g188
g909
tp2679
g1
(g6
tRp2680
g912
F1
ss(g2571
tp2681
g1
(g6
tRp2682
S'the'
p2683
F1
ss(g1200
tp2684
g1
(g6
tRp2685
g1203
F1
ss(S'to'
p2686
g1674
tp2687
g1
(g6
tRp2688
g1675
F1
ss(g1600
tp2689
g1
(g6
tRp2690
S'years'
p2691
F1
ss(g746
tp2692
g1
(g6
tRp2693
g747
F1
ss(S'No'
p2694
tp2695
g1
(g6
tRp2696
S''
F1
ss(g645
tp2697
g1
(g6
tRp2698
g648
F0.5
sS'women'
p2699
F0.5
ss(S'but'
p2700
g1349
tp2701
g1
(g6
tRp2702
g1350
F1
ss(S'taxes'
p2703
S'any'
p2704
tp2705
g1
(g6
tRp2706
S'further,'
p2707
F1
ss(S'entire'
p2708
S'life'
p2709
tp2710
g1
(g6
tRp2711
S''
F1
ss(g1994
g1997
tp2712
g1
(g6
tRp2713
g2260
F1
ss(S'the'
p2714
g1009
tp2715
g1
(g6
tRp2716
g1010
F1
ss(g2018
S'God'
p2717
tp2718
g1
(g6
tRp2719
S''
F1
ss(g1715
g1718
tp2720
g1
(g6
tRp2721
S'to'
p2722
F1
ss(g1998
tp2723
g1
(g6
tRp2724
S'pro-life'
p2725
F0.39927685950413233
sS'pro'
p2726
F0.10020661157024795
sg208
F0.19989669421487605
sg908
F0.10020661157024795
sg2641
F0.10020661157024795
sg1999
F0.10020661157024795
ss(S'which'
p2727
S'engages'
p2728
tp2729
g1
(g6
tRp2730
S'in'
p2731
F1
ss(g2064
S'the'
p2732
tp2733
g1
(g6
tRp2734
S'father'
p2735
F1
ss(S'in'
p2736
g2495
tp2737
g1
(g6
tRp2738
g2708
F0.33333333333333331
sg1187
F0.33333333333333331
sg950
F0.33333333333333331
ss(g2657
g2660
tp2739
g1
(g6
tRp2740
g1959
F1
ss(g1173
tp2741
g1
(g6
tRp2742
S''
F1
ss(S'I'
g504
tp2743
g1
(g6
tRp2744
g507
F1
ss(g2333
tp2745
g1
(g6
tRp2746
g2336
F1
ss(S'ads'
p2747
tp2748
g1
(g6
tRp2749
g2059
F1
ss(S'you'
p2750
S'talk'
p2751
tp2752
g1
(g6
tRp2753
S'about'
p2754
F1
ss(g390
tp2755
g1
(g6
tRp2756
g391
F1
ss(S'pro-choice'
p2757
tp2758
g1
(g6
tRp2759
S'states'
p2760
F1
ss(g2691
S"we've"
p2761
tp2762
g1
(g6
tRp2763
S'de-funded'
p2764
F1
ss(g1133
S'a'
tp2765
g1
(g6
tRp2766
g234
F1
ss(g2264
S'so'
p2767
tp2768
g1
(g6
tRp2769
g1905
F1
ss(S'governor'
p2770
S'of'
p2771
tp2772
g1
(g6
tRp2773
S'a'
F0.5
sS'Ohio'
p2774
F0.5
ss(S'look'
p2775
S'--'
p2776
tp2777
g1
(g6
tRp2778
g442
F1
ss(S'and'
p2779
g1954
tp2780
g1
(g6
tRp2781
g1836
F1
ss(S'value,'
p2782
S'their'
p2783
tp2784
g1
(g6
tRp2785
S'sense'
p2786
F1
ss(S"Let's"
g154
tp2787
g1
(g6
tRp2788
S'something'
p2789
F1
ss(S'country'
g2655
tp2790
g1
(g6
tRp2791
S'anything'
p2792
F1
ss(S'just'
p2793
S'for'
p2794
tp2795
g1
(g6
tRp2796
g1284
F0.33750000000000002
sg2113
F0.66249999999999998
ss(g306
tp2797
g1
(g6
tRp2798
g2545
F1
ss(S'want'
p2799
S'to'
p2800
tp2801
g1
(g6
tRp2802
S'aspire'
p2803
F0.25
sS'do'
p2804
F0.25
sg156
F0.25
sS'tell'
p2805
F0.25
ss(g256
tp2806
g1
(g6
tRp2807
g257
F1
ss(S'term,'
p2808
S'would'
p2809
tp2810
g1
(g6
tRp2811
S'be'
p2812
F1
ss(g2491
g2494
tp2813
g1
(g6
tRp2814
S'the'
p2815
F1
ss(S'rebuild'
p2816
tp2817
g1
(g6
tRp2818
S'their'
p2819
F0.5
sS'my'
p2820
F0.5
ss(S'ago,'
p2821
S'I'
tp2822
g1
(g6
tRp2823
S'proposed'
p2824
F1
ss(g460
S'D'
tp2825
g1
(g6
tRp2826
S''
F1
ss(g1350
g1353
tp2827
g1
(g6
tRp2828
g72
F1
ss(g1729
tp2829
g1
(g6
tRp2830
g2310
F0.5
sg1732
F0.5
ss(g2276
tp2831
g1
(g6
tRp2832
g1558
F0.33333333333333331
sg735
F0.33333333333333331
sg1711
F0.33333333333333331
ss(S'opportunity'
p2833
S'to'
p2834
tp2835
g1
(g6
tRp2836
g1163
F1
ss(S'government'
p2837
S'themselves'
p2838
tp2839
g1
(g6
tRp2840
S''
F1
ss(g14
S'at'
p2841
tp2842
g1
(g6
tRp2843
S'the'
p2844
F1
ss(S'non-'
p2845
S'violent,'
p2846
tp2847
g1
(g6
tRp2848
g686
F1
ss(S'the'
p2849
g131
tp2850
g1
(g6
tRp2851
g132
F0.5
sS'is,'
p2852
F0.5
ss(g1870
S'the'
p2853
tp2854
g1
(g6
tRp2855
g932
F1
ss(S'Governor'
p2856
tp2857
g1
(g6
tRp2858
S'of'
p2859
F1
ss(S'drug'
p2860
g761
tp2861
g1
(g6
tRp2862
g762
F1
ss(g1512
g1622
tp2863
g1
(g6
tRp2864
S'our'
p2865
F1
ss(S'me'
p2866
S'and'
p2867
tp2868
g1
(g6
tRp2869
g1970
F1
ss(g275
tp2870
g1
(g6
tRp2871
g276
F0.5
sS'well'
p2872
F0.5
ss(g1883
S'in'
p2873
tp2874
g1
(g6
tRp2875
S'the'
p2876
F1
ss(S'just'
p2877
g1172
tp2878
g1
(g6
tRp2879
g1173
F1
ss(g528
g531
tp2880
g1
(g6
tRp2881
S'think'
p2882
F1
ss(g887
S'remember'
p2883
tp2884
g1
(g6
tRp2885
g20
F1
ss(S'know'
p2886
S'my'
p2887
tp2888
g1
(g6
tRp2889
S'heart'
p2890
F1
ss(g690
g1244
tp2891
g1
(g6
tRp2892
g1245
F1
ss(S'to'
p2893
S'be'
p2894
tp2895
g1
(g6
tRp2896
S'a'
F0.14285714285714288
sS'on'
p2897
F0.14285714285714288
sS'responsible'
p2898
F0.14285714285714288
sS'held'
p2899
F0.14285714285714288
sS'part'
p2900
F0.14285714285714288
sg1632
F0.14285714285714288
sg1980
F0.14285714285714288
ss(S'acted'
p2901
S'as'
p2902
tp2903
g1
(g6
tRp2904
g201
F1
ss(g154
g2789
tp2905
g1
(g6
tRp2906
g864
F1
ss(g784
tp2907
g1
(g6
tRp2908
g787
F1
ss(g1187
g788
tp2909
g1
(g6
tRp2910
g791
F1
ss(g2146
tp2911
g1
(g6
tRp2912
g2149
F1
ss(S'a'
S'lot'
p2913
tp2914
g1
(g6
tRp2915
S'more'
p2916
F1
ss(g2383
tp2917
g1
(g6
tRp2918
g2384
F0.5
sg2425
F0.5
ss(S'and'
p2919
g1961
tp2920
g1
(g6
tRp2921
g1368
F1
ss(g366
S'ago'
p2922
tp2923
g1
(g6
tRp2924
S''
F1
ss(S'a'
S'question'
p2925
tp2926
g1
(g6
tRp2927
S''
F1
ss(g2846
g686
tp2928
g1
(g6
tRp2929
g687
F1
ss(g2901
tp2930
g1
(g6
tRp2931
g2902
F1
ss(g1140
g1236
tp2932
g1
(g6
tRp2933
S'kind'
p2934
F1
ss(S'coal'
p2935
tp2936
g1
(g6
tRp2937
g2371
F1
ss(g1917
tp2938
g1
(g6
tRp2939
S'a'
F0.20138888888888887
sS'using'
p2940
F0.20138888888888887
sS'doing'
p2941
F0.59722222222222221
ss(g1683
tp2942
g1
(g6
tRp2943
g1686
F1
ss(g1279
S'but'
p2944
tp2945
g1
(g6
tRp2946
S'it'
p2947
F1
ss(g584
S'the'
p2948
tp2949
g1
(g6
tRp2950
S'fact'
p2951
F1
ss(g1955
S'employees'
p2952
tp2953
g1
(g6
tRp2954
S'than'
p2955
F1
ss(g2420
g2423
tp2956
g1
(g6
tRp2957
S'because'
p2958
F1
ss(S'county'
p2959
S'lockup,'
p2960
tp2961
g1
(g6
tRp2962
S"I'm"
p2963
F1
ss(S'issue,'
p2964
tp2965
g1
(g6
tRp2966
S'like'
p2967
F1
ss(S'a'
S'much'
p2968
tp2969
g1
(g6
tRp2970
S'different'
p2971
F1
ss(g50
g984
tp2972
g1
(g6
tRp2973
S'the'
p2974
F1
ss(S'know'
p2975
S'what'
p2976
tp2977
g1
(g6
tRp2978
g2849
F1
ss(g1999
tp2979
g1
(g6
tRp2980
g2002
F1
ss(g2197
g2200
tp2981
g1
(g6
tRp2982
g1737
F1
ss(g1607
tp2983
g1
(g6
tRp2984
S'on'
p2985
F1
ss(S'that'
p2986
S'I'
tp2987
g1
(g6
tRp2988
S'believe'
p2989
F1
ss(g61
S'done'
p2990
tp2991
g1
(g6
tRp2992
g113
F1
ss(S'3'
g2383
tp2993
g1
(g6
tRp2994
g2384
F1
ss(S'be'
g1446
tp2995
g1
(g6
tRp2996
g1449
F1
ss(S'vote'
p2997
g2006
tp2998
g1
(g6
tRp2999
g2007
F1
ss(g1784
S'never'
p3000
tp3001
g1
(g6
tRp3002
S'been'
p3003
F1
ss(S'should'
p3004
S'make'
p3005
tp3006
g1
(g6
tRp3007
S'these'
p3008
F1
ss(g576
tp3009
g1
(g6
tRp3010
g577
F1
ss(g1452
g2168
tp3011
g1
(g6
tRp3012
g1494
F0.5
sg2171
F0.5
ss(S'violate'
p3013
S'the'
p3014
tp3015
g1
(g6
tRp3016
g74
F1
ss(g994
tp3017
g1
(g6
tRp3018
g2491
F1
ss(g1616
tp3019
g1
(g6
tRp3020
g1372
F0.5
sg1456
F0.5
ss(S'that'
p3021
g1050
tp3022
g1
(g6
tRp3023
S'needs'
p3024
F1
ss(S'rights'
p3025
tp3026
g1
(g6
tRp3027
g2066
F1
ss(S'42-year-old'
p3028
S'lawyer'
p3029
tp3030
g1
(g6
tRp3031
S'who'
p3032
F1
ss(S'for'
p3033
g1275
tp3034
g1
(g6
tRp3035
g1348
F1
ss(g2876
g1525
tp3036
g1
(g6
tRp3037
g1526
F1
ss(g276
g279
tp3038
g1
(g6
tRp3039
g1609
F0.5
sS'take'
p3040
F0.5
ss(g1005
g1008
tp3041
g1
(g6
tRp3042
S''
F1
ss(g2573
g2576
tp3043
g1
(g6
tRp3044
S''
F1
ss(g1529
S'$70'
p3045
tp3046
g1
(g6
tRp3047
g2424
F1
ss(S'did,'
p3048
tp3049
g1
(g6
tRp3050
S'you'
p3051
F1
ss(S'The'
p3052
S'fact'
p3053
tp3054
g1
(g6
tRp3055
S'of'
p3056
F0.25142857142857145
sg1772
F0.25142857142857145
sS'is,'
p3057
F0.49714285714285716
ss(g710
g471
tp3058
g1
(g6
tRp3059
S'out'
p3060
F1
ss(S"don't"
p3061
tp3062
g1
(g6
tRp3063
S''
F0.25
sS'come'
p3064
F0.25
sg43
F0.25
sg44
F0.25
ss(S'evaluates'
p3065
tp3066
g1
(g6
tRp3067
g779
F1
ss(S'in'
p3068
S'New'
p3069
tp3070
g1
(g6
tRp3071
g816
F0.2225
sS'Hampshire'
p3072
F0.2225
sS'Jersey'
p3073
F0.55499999999999994
ss(S"I've"
p3074
g110
tp3075
g1
(g6
tRp3076
S''
F1
ss(g2487
tp3077
g1
(g6
tRp3078
g2488
F1
ss(S'be'
p3079
S'discriminated'
p3080
tp3081
g1
(g6
tRp3082
g1470
F1
ss(S'it'
p3083
g56
tp3084
g1
(g6
tRp3085
S'New'
p3086
F1
ss(g2596
tp3087
g1
(g6
tRp3088
g2599
F1
ss(S'women'
p3089
S'in'
p3090
tp3091
g1
(g6
tRp3092
S'this'
p3093
F0.5
sS'our'
p3094
F0.5
ss(g1569
tp3095
g1
(g6
tRp3096
g2197
F0.25
sg517
F0.25
sg1248
F0.25
sg618
F0.25
ss(g2448
g109
tp3097
g1
(g6
tRp3098
g1213
F1
ss(g2754
S'the'
p3099
tp3100
g1
(g6
tRp3101
S'Hezbollah'
p3102
F1
ss(S'permitted'
p3103
S'to'
p3104
tp3105
g1
(g6
tRp3106
S'do'
p3107
F1
ss(g632
g635
tp3108
g1
(g6
tRp3109
S'it,'
p3110
F1
ss(g509
g512
tp3111
g1
(g6
tRp3112
S'from'
p3113
F1
ss(g434
g1887
tp3114
g1
(g6
tRp3115
g1888
F1
ss(g2245
g2248
tp3116
g1
(g6
tRp3117
g2747
F1
ss(g1987
tp3118
g1
(g6
tRp3119
g699
F0.090972222222222218
sS'family'
p3120
F0.090972222222222218
sS'talking'
p3121
F0.090972222222222218
sS'advisers'
p3122
F0.090972222222222218
sS'bill'
p3123
F0.2722222222222222
sg700
F0.090972222222222218
sS'idea'
p3124
F0.090972222222222218
sg452
F0.090972222222222218
sg730
F0.090972222222222218
ss(S'chance'
p3125
S'to'
p3126
tp3127
g1
(g6
tRp3128
g1636
F1
ss(S'the'
p3129
g1023
tp3130
g1
(g6
tRp3131
g1026
F1
ss(S'more'
p3132
S'kindly'
p3133
tp3134
g1
(g6
tRp3135
S''
F1
ss(S'The'
S'shame'
p3136
tp3137
g1
(g6
tRp3138
S'is'
p3139
F1
ss(g3028
tp3140
g1
(g6
tRp3141
g3029
F1
ss(S'the'
g2959
tp3142
g1
(g6
tRp3143
g2960
F1
ss(g663
g666
tp3144
g1
(g6
tRp3145
g343
F1
ss(S'growth'
p3146
tp3147
g1
(g6
tRp3148
S'in'
p3149
F1
ss(g1633
g498
tp3150
g1
(g6
tRp3151
g499
F0.36293859649122823
sS'most'
p3152
F0.091008771929824581
sg1314
F0.091008771929824581
sS'people'
p3153
F0.091008771929824581
sg2959
F0.091008771929824581
sS'matter'
p3154
F0.091008771929824581
sg2612
F0.091008771929824581
sg2173
F0.091008771929824581
ss(S"It's"
p3155
S'a'
tp3156
g1
(g6
tRp3157
g1226
F0.5
sg2048
F0.5
ss(g2041
S'years'
p3158
tp3159
g1
(g6
tRp3160
g2821
F1
ss(g220
g1952
tp3161
g1
(g6
tRp3162
g937
F1
ss(g784
g787
tp3163
g1
(g6
tRp3164
S'solve'
p3165
F1
ss(S'Well,'
g35
tp3166
g1
(g6
tRp3167
g36
F1
ss(S'They'
S"didn't"
p3168
tp3169
g1
(g6
tRp3170
g802
F1
ss(S'record'
p3171
S'in'
p3172
tp3173
g1
(g6
tRp3174
S'there,'
p3175
F0.5
sS'New'
p3176
F0.5
ss(S'Can'
p3177
tp3178
g1
(g6
tRp3179
S'I'
F1
ss(g1393
g1960
tp3180
g1
(g6
tRp3181
S'the'
p3182
F1
ss(g394
tp3183
g1
(g6
tRp3184
g2808
F0.33750000000000002
sS'knows'
p3185
F0.66249999999999998
ss(S'why'
p3186
S"you're"
p3187
tp3188
g1
(g6
tRp3189
S'wrong'
p3190
F1
ss(S'Jersey'
g414
tp3191
g1
(g6
tRp3192
S'the'
p3193
F1
ss(S'quarantined'
p3194
S'her,'
p3195
tp3196
g1
(g6
tRp3197
S'she'
p3198
F1
ss(S'how'
p3199
tp3200
g1
(g6
tRp3201
S'to'
p3202
F0.33333333333333331
sS'great'
p3203
F0.33333333333333331
sg225
F0.33333333333333331
ss(S'ESP'
p3204
S'also'
p3205
tp3206
g1
(g6
tRp3207
S''
F1
ss(S'70'
p3208
S'days'
p3209
tp3210
g1
(g6
tRp3211
S'here'
p3212
F1
ss(g1965
S'the'
p3213
tp3214
g1
(g6
tRp3215
S'secretary'
p3216
F1
ss(g2469
tp3217
g1
(g6
tRp3218
g2470
F1
ss(g2260
tp3219
g1
(g6
tRp3220
g2261
F1
ss(S'daughters'
p3221
g2241
tp3222
g1
(g6
tRp3223
g1405
F1
ss(S'was'
p3224
S'his'
p3225
tp3226
g1
(g6
tRp3227
S'bill'
p3228
F0.5
sg3124
F0.5
ss(g2548
g1594
tp3229
g1
(g6
tRp3230
g1597
F1
ss(g2612
g865
tp3231
g1
(g6
tRp3232
g866
F1
ss(g359
S'I'
tp3233
g1
(g6
tRp3234
g2799
F1
ss(S'waiting'
p3235
S'in'
p3236
tp3237
g1
(g6
tRp3238
S'line'
p3239
F1
ss(S'government'
p3240
g2258
tp3241
g1
(g6
tRp3242
S'they'
p3243
F1
ss(g846
S'I'
tp3244
g1
(g6
tRp3245
S"can't"
p3246
F1
ss(S'When'
g164
tp3247
g1
(g6
tRp3248
g677
F1
ss(S'closed'
p3249
S'the'
p3250
tp3251
g1
(g6
tRp3252
S'state'
p3253
F0.5
sg3240
F0.5
ss(g357
g1210
tp3254
g1
(g6
tRp3255
g477
F1
ss(S'And'
S'when'
p3256
tp3257
g1
(g6
tRp3258
S'the'
p3259
F1
ss(g1719
g1722
tp3260
g1
(g6
tRp3261
S'to'
p3262
F1
ss(g1059
tp3263
g1
(g6
tRp3264
S''
F1
ss(g1833
g1839
tp3265
g1
(g6
tRp3266
S'be'
p3267
F1
ss(g473
tp3268
g1
(g6
tRp3269
S'I'
F1
ss(S'you'
p3270
S'give'
p3271
tp3272
g1
(g6
tRp3273
g1139
F1
ss(S'active'
p3274
tp3275
g1
(g6
tRp3276
g121
F1
ss(S'state'
p3277
g1623
tp3278
g1
(g6
tRp3279
g2021
F1
ss(S'the'
p3280
g918
tp3281
g1
(g6
tRp3282
S'of'
p3283
F0.66249999999999998
sg2130
F0.33750000000000002
ss(g503
S'when'
p3284
tp3285
g1
(g6
tRp3286
S"you're"
p3287
F1
ss(S'tenure,'
p3288
S'I'
tp3289
g1
(g6
tRp3290
S'fought'
p3291
F1
ss(S'goes'
p3292
tp3293
g1
(g6
tRp3294
S'to'
p3295
F1
ss(g1573
g1576
tp3296
g1
(g6
tRp3297
S'from'
p3298
F1
ss(S'She'
p3299
S'was'
p3300
tp3301
g1
(g6
tRp3302
S'showing'
p3303
F1
ss(S'What'
S'they'
p3304
tp3305
g1
(g6
tRp3306
S'need'
p3307
F1
ss(S'heard'
p3308
tp3309
g1
(g6
tRp3310
g1725
F0.5
sS'it'
p3311
F0.5
ss(S"I'm"
p3312
g2725
tp3313
g1
(g6
tRp3314
S''
F0.2533333333333333
sg706
F0.7466666666666667
ss(g1368
tp3315
g1
(g6
tRp3316
S'September'
p3317
F0.25
sg3129
F0.25
sg2021
F0.25
sS'48'
p3318
F0.25
ss(S'teacher'
p3319
tp3320
g1
(g6
tRp3321
g3288
F1
ss(g363
tp3322
g1
(g6
tRp3323
S''
F0.5
sg366
F0.5
ss(g3048
g3051
tp3324
g1
(g6
tRp3325
g2273
F1
ss(g1294
g1297
tp3326
g1
(g6
tRp3327
g1897
F1
ss(g2291
tp3328
g1
(g6
tRp3329
S''
F0.33750000000000002
sS'is'
p3330
F0.66249999999999998
ss(S'from'
p3331
S'these'
p3332
tp3333
g1
(g6
tRp3334
S'folks'
p3335
F1
ss(g2751
tp3336
g1
(g6
tRp3337
g2754
F1
ss(S'the'
p3338
S'fact'
p3339
tp3340
g1
(g6
tRp3341
g581
F0.62401795735129062
sS'when'
p3342
F0.12570145903479235
sg2125
F0.25028058361391697
ss(g2819
tp3343
g1
(g6
tRp3344
g673
F0.12522045855379188
sg166
F0.12522045855379188
sS'life'
p3345
F0.12522045855379188
sg1678
F0.12522045855379188
sg404
F0.12522045855379188
sg705
F0.37389770723104054
ss(g1317
S'get'
p3346
tp3347
g1
(g6
tRp3348
S'as'
p3349
F1
ss(g3198
g296
tp3350
g1
(g6
tRp3351
g2350
F1
ss(g169
tp3352
g1
(g6
tRp3353
g1239
F1
ss(g1210
g477
tp3354
g1
(g6
tRp3355
S''
F0.66249999999999998
sg2292
F0.33750000000000002
ss(S'back,'
p3356
S'it'
p3357
tp3358
g1
(g6
tRp3359
g61
F1
ss(S'be'
p3360
g1632
tp3361
g1
(g6
tRp3362
g1633
F1
ss(S'--'
p3363
S'closed'
p3364
tp3365
g1
(g6
tRp3366
S'a'
F1
ss(g1829
tp3367
g1
(g6
tRp3368
g1832
F1
ss(g2513
S'why'
p3369
tp3370
g1
(g6
tRp3371
S'this'
p3372
F0.5
sg3187
F0.5
ss(g3239
g3033
tp3373
g1
(g6
tRp3374
g1275
F1
ss(g3072
S'in'
p3375
tp3376
g1
(g6
tRp3377
g672
F1
ss(S'not'
p3378
S'pay'
p3379
tp3380
g1
(g6
tRp3381
g1733
F1
ss(g3029
tp3382
g1
(g6
tRp3383
g3032
F1
ss(g3045
tp3384
g1
(g6
tRp3385
g2424
F1
ss(S'is'
p3386
g2222
tp3387
g1
(g6
tRp3388
g2223
F1
ss(S'and'
p3389
g1968
tp3390
g1
(g6
tRp3391
S'a'
F1
ss(S'know'
p3392
S'how'
p3393
tp3394
g1
(g6
tRp3395
g3202
F1
ss(S'And'
g1503
tp3396
g1
(g6
tRp3397
g1504
F1
ss(S'act'
p3398
S'as'
p3399
tp3400
g1
(g6
tRp3401
g1267
F1
ss(g617
g966
tp3402
g1
(g6
tRp3403
g321
F1
ss(g816
g2237
tp3404
g1
(g6
tRp3405
S''
F1
ss(S'who'
p3406
S'was'
p3407
tp3408
g1
(g6
tRp3409
S'a'
F0.5
sg1377
F0.5
ss(S'who'
p3410
S'have'
p3411
tp3412
g1
(g6
tRp3413
S'given'
p3414
F0.5
sg2656
F0.5
ss(g1971
tp3415
g1
(g6
tRp3416
S'his'
p3417
F1
ss(g1239
g1283
tp3418
g1
(g6
tRp3419
g2012
F1
ss(S'watching'
p3420
tp3421
g1
(g6
tRp3422
S'tonight'
p3423
F1
ss(g1229
tp3424
g1
(g6
tRp3425
S"it's"
p3426
F1
ss(S'Parenthood,'
p3427
S'not'
p3428
tp3429
g1
(g6
tRp3430
S'talked'
p3431
F1
ss(S'alright'
p3432
tp3433
g1
(g6
tRp3434
S''
F1
ss(g2603
g1092
tp3435
g1
(g6
tRp3436
g1093
F1
ss(g1329
g1332
tp3437
g1
(g6
tRp3438
g2428
F1
ss(S'symptoms,'
p3439
S'and'
p3440
tp3441
g1
(g6
tRp3442
g1969
F1
ss(g1157
tp3443
g1
(g6
tRp3444
g1133
F0.33750000000000002
sS'anything'
p3445
F0.66249999999999998
ss(S'solutions'
p3446
tp3447
g1
(g6
tRp3448
S'to'
p3449
F1
ss(g3153
g2037
tp3450
g1
(g6
tRp3451
S'wrong'
p3452
F1
ss(g1960
g3182
tp3453
g1
(g6
tRp3454
S'Mets'
p3455
F1
ss(S'11th'
p3456
tp3457
g1
(g6
tRp3458
S''
F1
ss(g1645
tp3459
g1
(g6
tRp3460
g1646
F1
ss(S'whether'
p3461
S'you'
p3462
tp3463
g1
(g6
tRp3464
S'are'
p3465
F1
ss(g3024
S'to'
p3466
tp3467
g1
(g6
tRp3468
S'be'
p3469
F1
ss(g837
S'country,'
p3470
tp3471
g1
(g6
tRp3472
S'and'
p3473
F1
ss(S"Kasich's"
p3474
g2249
tp3475
g1
(g6
tRp3476
g2250
F1
ss(S"We've"
S'now'
p3477
tp3478
g1
(g6
tRp3479
g85
F1
ss(g2063
tp3480
g1
(g6
tRp3481
g2410
F1
ss(S'most'
p3482
S'radical'
p3483
tp3484
g1
(g6
tRp3485
S'type'
p3486
F1
ss(S'individual'
p3487
g2015
tp3488
g1
(g6
tRp3489
g2018
F1
ss(g1343
g326
tp3490
g1
(g6
tRp3491
g229
F1
ss(g1258
g1261
tp3492
g1
(g6
tRp3493
S''
F0.5
sg1919
F0.5
ss(S'of'
p3494
S'situations'
p3495
tp3496
g1
(g6
tRp3497
S'like'
p3498
F1
ss(S'for'
p3499
g1273
tp3500
g1
(g6
tRp3501
g1206
F1
ss(g580
g861
tp3502
g1
(g6
tRp3503
S''
F1
ss(g1248
g3292
tp3504
g1
(g6
tRp3505
g3295
F1
ss(g1132
tp3506
g1
(g6
tRp3507
g792
F1
ss(S"I've"
p3508
g1102
tp3509
g1
(g6
tRp3510
g1103
F1
ss(S'a'
tp3511
g1
(g6
tRp3512
g1524
F0.035712257991256484
sg2180
F0.017857623107334009
sS'people'
p3513
F0.017857623107334009
sg1307
F0.017857623107334009
sg645
F0.017857623107334009
sS'second'
p3514
F0.017857623107334009
sg2396
F0.035712257991256484
sg1822
F0.017857623107334009
sg2860
F0.017857623107334009
sS'governor,'
p3515
F0.017857623107334009
sg691
F0.017857623107334009
sg2048
F0.017857623107334009
sg234
F0.017857623107334009
sg1226
F0.017857623107334009
sS'law'
p3516
F0.035712257991256484
sg641
F0.017857623107334009
sg2845
F0.017857623107334009
sg2925
F0.017857623107334009
sS'state'
p3517
F0.017857623107334009
sg1616
F0.035712257991256484
sg1390
F0.017857623107334009
sg2968
F0.035712257991256484
sg2913
F0.017857623107334009
sg750
F0.017857623107334009
sg2083
F0.017857623107334009
sg238
F0.017857623107334009
sg1665
F0.017857623107334009
sg1741
F0.035712257991256484
sg2137
F0.017857623107334009
sg2837
F0.017857623107334009
sg2459
F0.035712257991256484
sg142
F0.017857623107334009
sg2433
F0.017857623107334009
sg3125
F0.017857623107334009
sS'U'
F0.017857623107334009
sS'birth'
p3518
F0.017857623107334009
sS'strong'
p3519
F0.017857623107334009
sS'former'
p3520
F0.017857623107334009
sg1222
F0.017857623107334009
sg2775
F0.017857623107334009
sg390
F0.017857623107334009
sg1797
F0.017857623107334009
sg285
F0.017857623107334009
sg1117
F0.035712257991256484
sg2770
F0.035712257991256484
sg903
F0.017857623107334009
sg1498
F0.017857623107334009
ss(g1861
g2041
tp3521
g1
(g6
tRp3522
g3158
F1
ss(g508
tp3523
g1
(g6
tRp3524
S'a'
F0.10020661157024795
sg3225
F0.19989669421487605
sg1377
F0.29958677685950419
sg509
F0.10020661157024795
sg1801
F0.19989669421487605
sS'not'
p3525
F0.10020661157024795
ss(g957
g1760
tp3526
g1
(g6
tRp3527
g3318
F1
ss(g2760
S'in'
p3528
tp3529
g1
(g6
tRp3530
S'the'
p3531
F1
ss(g3262
g2886
tp3532
g1
(g6
tRp3533
g2887
F1
ss(g1245
g1248
tp3534
g1
(g6
tRp3535
g3292
F1
ss(g1832
g338
tp3536
g1
(g6
tRp3537
g339
F1
ss(g2021
tp3538
g1
(g6
tRp3539
g2022
F1
ss(g2449
g15
tp3540
g1
(g6
tRp3541
g16
F1
ss(S'last'
p3542
g1600
tp3543
g1
(g6
tRp3544
g2691
F1
ss(S'has'
p3545
g920
tp3546
g1
(g6
tRp3547
g921
F1
ss(g591
g594
tp3548
g1
(g6
tRp3549
S'things'
p3550
F1
ss(g1926
tp3551
g1
(g6
tRp3552
g1892
F1
ss(g272
tp3553
g1
(g6
tRp3554
S''
F1
ss(g2180
tp3555
g1
(g6
tRp3556
g2181
F1
ss(S'of'
p3557
S'children'
p3558
tp3559
g1
(g6
tRp3560
S'in'
p3561
F1
ss(g1729
g1732
tp3562
g1
(g6
tRp3563
g1041
F1
ss(S'Thank'
p3564
S'you'
p3565
tp3566
g1
(g6
tRp3567
S''
F1
ss(g2877
tp3568
g1
(g6
tRp3569
g1824
F0.10009182736455463
sg2794
F0.29935720844811758
sS'that'
p3570
F0.10009182736455463
sg3048
F0.10009182736455463
sg2162
F0.10009182736455463
sg1172
F0.10009182736455463
sg3398
F0.10009182736455463
sg2161
F0.10009182736455463
ss(S'guess'
p3571
S'what'
p3572
tp3573
g1
(g6
tRp3574
S'they'
p3575
F1
ss(g185
g188
tp3576
g1
(g6
tRp3577
g909
F0.5
sS'30-second'
p3578
F0.5
ss(g2146
g2149
tp3579
g1
(g6
tRp3580
S''
F1
ss(S'the'
p3581
g2315
tp3582
g1
(g6
tRp3583
S'in'
p3584
F1
ss(S'hours,'
p3585
tp3586
g1
(g6
tRp3587
S'and'
p3588
F1
ss(g2900
S'of'
p3589
tp3590
g1
(g6
tRp3591
S'a'
F1
ss(S'any'
p3592
S'state'
p3593
tp3594
g1
(g6
tRp3595
S''
F1
ss(g3440
g1969
tp3596
g1
(g6
tRp3597
S'law'
p3598
F0.33333333333333331
sS'problems'
p3599
F0.33333333333333331
sS'fact'
p3600
F0.33333333333333331
ss(g303
g306
tp3601
g1
(g6
tRp3602
g2545
F1
ss(g246
S'for'
p3603
tp3604
g1
(g6
tRp3605
S'the'
p3606
F1
ss(g234
g237
tp3607
g1
(g6
tRp3608
S'will'
p3609
F1
ss(g2223
tp3610
g1
(g6
tRp3611
g2226
F1
ss(S'American'
p3612
S'history'
p3613
tp3614
g1
(g6
tRp3615
S''
F1
ss(g1576
g3298
tp3616
g1
(g6
tRp3617
g1702
F1
ss(g1439
g2820
tp3618
g1
(g6
tRp3619
g3277
F1
ss(S'drive-by'
p3620
g1432
tp3621
g1
(g6
tRp3622
g1435
F1
ss(g2250
tp3623
g1
(g6
tRp3624
S''
F1
ss(S''
tp3625
g1
(g6
tRp3626
S''
F0
sS"You're"
p3627
F0.0049020117133497
sS'What'
p3628
F0.019607795493963187
sS'Never'
p3629
F0.0049020117133497
sg3564
F0.0049020117133497
sg663
F0.0049020117133497
sg2694
F0.0049020117133497
sS'Hold'
p3630
F0.0049020117133497
sg3155
F0.024509723420834347
sS'There'
p3631
F0.014705867567092024
sg160
F0.019607795493963187
sS'Hey,'
p3632
F0.0098039396402208618
sS'Denver'
p3633
F0.0049020117133497
sg553
F0.0049020117133497
sS'Does'
p3634
F0.0049020117133497
sg1993
F0.024509723420834347
sg407
F0.019607795493963187
sS'You'
p3635
F0.058823218908932481
sg1761
F0.0049020117133497
sS'Ever'
p3636
F0.0049020117133497
sS"I'm"
p3637
F0.0098039396402208618
sg1816
F0.0049020117133497
sg567
F0.0049020117133497
sg895
F0.0049020117133497
sg2205
F0.034313579274576671
sS'Good'
p3638
F0.0049020117133497
sg576
F0.0049020117133497
sg3508
F0.019607795493963187
sg522
F0.0049020117133497
sS'As'
p3639
F0.0049020117133497
sS'Here'
p3640
F0.0049020117133497
sg151
F0.0098039396402208618
sg435
F0.0049020117133497
sS'3'
F0.0049020117133497
sS'Part'
p3641
F0.0049020117133497
sS"He's"
p3642
F0.014705867567092024
sg1719
F0.0049020117133497
sg395
F0.029411651347705511
sS"We've"
p3643
F0.019607795493963187
sS'Not'
p3644
F0.014705867567092024
sS'Every'
p3645
F0.0098039396402208618
sg904
F0.0049020117133497
sS'See,'
p3646
F0.0049020117133497
sg2400
F0.0049020117133497
sS'Sure'
p3647
F0.0049020117133497
sS'He'
p3648
F0.014705867567092024
sg1328
F0.014705867567092024
sS'C'
F0.0098039396402208618
sg1385
F0.0049020117133497
sg2502
F0.0098039396402208618
sS'Of'
p3649
F0.0049020117133497
sg1359
F0.029411651347705511
sg2109
F0.0049020117133497
sg3299
F0.0098039396402208618
sS'Let'
p3650
F0.0098039396402208618
sS'S'
F0.0049020117133497
sS'"'
F0.0049020117133497
sg3177
F0.0049020117133497
sg1694
F0.0098039396402208618
sS'None'
p3651
F0.0049020117133497
sg3052
F0.053921290982061325
sS'David'
p3652
F0.0098039396402208618
sg1926
F0.0049020117133497
sg445
F0.029411651347705511
sS'And'
p3653
F0.10294057025077295
sS'and'
p3654
F0.0049020117133497
sg1082
F0.0098039396402208618
sS'I'
F0.039215507201447834
sS'Listen,'
p3655
F0.0049020117133497
sS'Martha'
p3656
F0.0049020117133497
sS'Is'
p3657
F0.0049020117133497
sg2625
F0.0049020117133497
sS'It'
p3658
F0.044117435128318998
sg226
F0.0049020117133497
sS'Well,'
p3659
F0.0098039396402208618
sS'See'
p3660
F0.0049020117133497
sS"I'd"
p3661
F0.0049020117133497
sS'Attorney'
p3662
F0.0049020117133497
sS'Close'
p3663
F0.0049020117133497
sg1414
F0.0049020117133497
sS'If'
p3664
F0.014705867567092024
ss(S'we'
p3665
S'cannot'
p3666
tp3667
g1
(g6
tRp3668
S'do'
p3669
F1
ss(g933
g936
tp3670
g1
(g6
tRp3671
g1293
F1
ss(S'morning,'
p3672
tp3673
g1
(g6
tRp3674
S'when'
p3675
F1
ss(S"American's"
p3676
tp3677
g1
(g6
tRp3678
S'sovereign'
p3679
F1
ss(g3495
tp3680
g1
(g6
tRp3681
g3498
F1
ss(S'a'
g390
tp3682
g1
(g6
tRp3683
g391
F1
ss(g1526
tp3684
g1
(g6
tRp3685
g1529
F1
ss(g1962
g2328
tp3686
g1
(g6
tRp3687
g1649
F1
ss(g3152
tp3688
g1
(g6
tRp3689
g2757
F0.5
sg3483
F0.5
ss(S'show'
p3690
tp3691
g1
(g6
tRp3692
g221
F1
ss(S'a'
g2396
tp3693
g1
(g6
tRp3694
g94
F0.5
sS'has'
p3695
F0.5
ss(g3663
tp3696
g1
(g6
tRp3697
S'down'
p3698
F1
ss(g644
S'in'
p3699
tp3700
g1
(g6
tRp3701
S'dealing'
p3702
F1
ss(g1701
S'the'
p3703
tp3704
g1
(g6
tRp3705
S'people'
p3706
F1
ss(S'get'
p3707
S'a'
tp3708
g1
(g6
tRp3709
g3125
F1
ss(g3259
g917
tp3710
g1
(g6
tRp3711
g1628
F1
ss(S'bridges'
p3712
tp3713
g1
(g6
tRp3714
S''
F0.5
sg1845
F0.5
ss(g2154
S'they'
p3715
tp3716
g1
(g6
tRp3717
S'need'
p3718
F1
ss(S'five'
p3719
S'different'
p3720
tp3721
g1
(g6
tRp3722
g1679
F1
ss(g1597
g1944
tp3723
g1
(g6
tRp3724
g1953
F1
ss(g2482
S'what'
p3725
tp3726
g1
(g6
tRp3727
g2561
F1
ss(g3638
tp3728
g1
(g6
tRp3729
S'evening'
p3730
F1
ss(S'population'
p3731
S'in'
p3732
tp3733
g1
(g6
tRp3734
S'America,'
p3735
F1
ss(g66
tp3736
g1
(g6
tRp3737
g69
F1
ss(g3243
g473
tp3738
g1
(g6
tRp3739
S'I'
F1
ss(g3194
tp3740
g1
(g6
tRp3741
g3195
F1
ss(g3065
g779
tp3742
g1
(g6
tRp3743
g780
F1
ss(S'New'
p3744
g816
tp3745
g1
(g6
tRp3746
g2237
F0.5
sg2238
F0.5
ss(S'years,'
p3747
S'2015'
p3748
tp3749
g1
(g6
tRp3750
S'in'
p3751
F1
ss(g719
tp3752
g1
(g6
tRp3753
g720
F1
ss(S'States'
S'raised'
p3754
tp3755
g1
(g6
tRp3756
g2703
F1
ss(g2789
g864
tp3757
g1
(g6
tRp3758
S'clear'
p3759
F1
ss(g1368
g3129
tp3760
g1
(g6
tRp3761
g1023
F1
ss(g824
S'a'
tp3762
g1
(g6
tRp3763
g390
F1
ss(S'to'
g1714
tp3764
g1
(g6
tRp3765
g1715
F1
ss(g1052
tp3766
g1
(g6
tRp3767
g2058
F1
ss(g1701
tp3768
g1
(g6
tRp3769
g3703
F1
ss(g207
g508
tp3770
g1
(g6
tRp3771
g509
F1
ss(g3651
S'of'
p3772
tp3773
g1
(g6
tRp3774
S'that'
p3775
F1
ss(g2136
g1785
tp3776
g1
(g6
tRp3777
g1788
F1
ss(g1034
tp3778
g1
(g6
tRp3779
S'I'
F0.5
sg467
F0.5
ss(g1824
g1827
tp3780
g1
(g6
tRp3781
S'to'
p3782
F1
ss(g188
tp3783
g1
(g6
tRp3784
g909
F0.66249999999999998
sg3578
F0.33750000000000002
ss(g2074
tp3785
g1
(g6
tRp3786
S'this'
p3787
F0.25
sS'the'
p3788
F0.25
sg1270
F0.25
sg968
F0.25
ss(S'of'
p3789
S'self-defense'
p3790
tp3791
g1
(g6
tRp3792
S'by'
p3793
F1
ss(S'go'
p3794
g311
tp3795
g1
(g6
tRp3796
g1951
F1
ss(S'credit'
p3797
S'for'
p3798
tp3799
g1
(g6
tRp3800
g451
F1
ss(g2913
g2916
tp3801
g1
(g6
tRp3802
S'complicated'
p3803
F1
ss(g1908
S'over'
p3804
tp3805
g1
(g6
tRp3806
g1240
F1
ss(g44
tp3807
g1
(g6
tRp3808
g2542
F1
ss(g261
tp3809
g1
(g6
tRp3810
g264
F1
ss(g2298
g2301
tp3811
g1
(g6
tRp3812
S'governor'
p3813
F1
ss(g820
g824
tp3814
g1
(g6
tRp3815
S'a'
F1
ss(S'important'
p3816
tp3817
g1
(g6
tRp3818
S''
F1
ss(g201
g207
tp3819
g1
(g6
tRp3820
g508
F1
ss(g3193
S'second'
p3821
tp3822
g1
(g6
tRp3823
S'largest'
p3824
F1
ss(g1168
g1171
tp3825
g1
(g6
tRp3826
S'a'
F1
ss(S'failing,'
p3827
tp3828
g1
(g6
tRp3829
S"it's"
p3830
F1
ss(g1646
g622
tp3831
g1
(g6
tRp3832
g625
F1
ss(g413
tp3833
g1
(g6
tRp3834
S'spending'
p3835
F1
ss(g503
tp3836
g1
(g6
tRp3837
g1183
F0.5
sg3284
F0.5
ss(g1836
tp3838
g1
(g6
tRp3839
S'for'
p3840
F1
ss(g1116
S'his'
p3841
tp3842
g1
(g6
tRp3843
g3123
F1
ss(g446
g450
tp3844
g1
(g6
tRp3845
g1263
F1
ss(g1120
g1123
tp3846
g1
(g6
tRp3847
S'unruly'
p3848
F1
ss(g2549
g2552
tp3849
g1
(g6
tRp3850
g3794
F0.5
sS'have'
p3851
F0.5
ss(g2097
g2100
tp3852
g1
(g6
tRp3853
S'me'
p3854
F1
ss(g3644
g2088
tp3855
g1
(g6
tRp3856
g2089
F1
ss(S'union'
p3857
tp3858
g1
(g6
tRp3859
S''
F1
ss(g2100
g3854
tp3860
g1
(g6
tRp3861
S'when'
p3862
F1
ss(g2137
tp3863
g1
(g6
tRp3864
g833
F1
ss(g1838
tp3865
g1
(g6
tRp3866
S'Reagan,'
p3867
F1
ss(g2565
g742
tp3868
g1
(g6
tRp3869
g745
F1
ss(g2538
g2541
tp3870
g1
(g6
tRp3871
g2462
F0.5
sg2254
F0.5
ss(g3121
tp3872
g1
(g6
tRp3873
S'about'
p3874
F0.5
sS'points'
p3875
F0.5
ss(S'had'
p3876
tp3877
g1
(g6
tRp3878
S'a'
F0.12522045855379188
sg342
F0.24955908289241624
sS'been'
p3879
F0.12522045855379188
sg2893
F0.12522045855379188
sg229
F0.24955908289241624
sS'its'
p3880
F0.12522045855379188
ss(g2856
g2859
tp3881
g1
(g6
tRp3882
S'New'
p3883
F1
ss(S'actually'
p3884
S'elected'
p3885
tp3886
g1
(g6
tRp3887
S'me'
p3888
F1
ss(g3821
g3824
tp3889
g1
(g6
tRp3890
S'Muslim-'
p3891
F1
ss(S'our'
p3892
g3221
tp3893
g1
(g6
tRp3894
g2028
F0.5
sg2241
F0.5
ss(g1970
tp3895
g1
(g6
tRp3896
S'predecessor'
p3897
F0.062572087658592845
sg2890
F0.062572087658592845
sg1511
F0.125
sg1844
F0.062572087658592845
sg1097
F0.062572087658592845
sg1485
F0.062572087658592845
sg3171
F0.18742791234140715
sg1619
F0.37471164936562862
ss(S'to'
p3898
S'think'
p3899
tp3900
g1
(g6
tRp3901
g2093
F1
ss(g762
tp3902
g1
(g6
tRp3903
g649
F1
ss(g2316
g1159
tp3904
g1
(g6
tRp3905
g1162
F1
ss(g1972
tp3906
g1
(g6
tRp3907
g809
F1
ss(S'based'
p3908
tp3909
g1
(g6
tRp3910
g944
F1
ss(g2102
tp3911
g1
(g6
tRp3912
g754
F1
ss(g3029
g3032
tp3913
g1
(g6
tRp3914
g126
F1
ss(g3271
g1139
tp3915
g1
(g6
tRp3916
S'your'
p3917
F1
ss(g2774
tp3918
g1
(g6
tRp3919
S''
F1
ss(S'politics,'
p3920
tp3921
g1
(g6
tRp3922
S'not'
p3923
F1
ss(g2273
g2276
tp3924
g1
(g6
tRp3925
g1558
F1
ss(S'his'
g3124
tp3926
g1
(g6
tRp3927
S''
F1
ss(g3725
g2561
tp3928
g1
(g6
tRp3929
g2564
F1
ss(g3867
S'that'
p3930
tp3931
g1
(g6
tRp3932
S'we'
p3933
F1
ss(S'problems'
p3934
g3283
tp3935
g1
(g6
tRp3936
g2628
F0.5
sS'your'
p3937
F0.5
ss(g3445
g1974
tp3938
g1
(g6
tRp3939
g1975
F1
ss(g21
g24
tp3940
g1
(g6
tRp3941
S'that'
p3942
F1
ss(S'Marco'
p3943
g1913
tp3944
g1
(g6
tRp3945
g1914
F1
ss(g2051
g1998
tp3946
g1
(g6
tRp3947
g1999
F1
ss(g3311
g50
tp3948
g1
(g6
tRp3949
g984
F1
ss(S'this'
p3950
g2964
tp3951
g1
(g6
tRp3952
g2967
F1
ss(S'time'
g997
tp3953
g1
(g6
tRp3954
g738
F1
ss(g1963
g470
tp3955
g1
(g6
tRp3956
g3249
F1
ss(S'10,000'
p3957
g1828
tp3958
g1
(g6
tRp3959
g1829
F1
ss(g1686
g298
tp3960
g1
(g6
tRp3961
g299
F1
ss(S'stage'
g1262
tp3962
g1
(g6
tRp3963
g1052
F1
ss(g1071
g1047
tp3964
g1
(g6
tRp3965
S'matter'
p3966
F1
ss(g824
tp3967
g1
(g6
tRp3968
S'a'
F1
ss(g344
tp3969
g1
(g6
tRp3970
g347
F0.33750000000000002
sS'years'
p3971
F0.66249999999999998
ss(g1857
g1401
tp3972
g1
(g6
tRp3973
g563
F1
ss(S'a'
g3513
tp3974
g1
(g6
tRp3975
S'that'
p3976
F1
ss(g1083
tp3977
g1
(g6
tRp3978
g3389
F0.14322916666666669
sg535
F0.28515625000000006
sS'there'
p3979
F0.28515625000000006
sg1086
F0.14322916666666669
sg2353
F0.14322916666666669
ss(g2845
tp3980
g1
(g6
tRp3981
g2846
F1
ss(S'deal'
p3982
tp3983
g1
(g6
tRp3984
g2311
F1
ss(S'is'
S'the'
p3985
tp3986
g1
(g6
tRp3987
g3821
F0.33333333333333331
sS'difference'
p3988
F0.33333333333333331
sg2227
F0.33333333333333331
ss(S'the'
p3989
g1167
tp3990
g1
(g6
tRp3991
g1168
F1
ss(g638
S'decisions'
p3992
tp3993
g1
(g6
tRp3994
g2671
F1
ss(S'really'
S'clear'
p3995
tp3996
g1
(g6
tRp3997
g2306
F1
ss(g1091
tp3998
g1
(g6
tRp3999
S'party'
p4000
F0.25
sS'life'
p4001
F0.25
sg1338
F0.25
sg251
F0.25
ss(S'and'
p4002
g213
tp4003
g1
(g6
tRp4004
g214
F1
ss(g163
S'president'
p4005
tp4006
g1
(g6
tRp4007
S'of'
p4008
F1
ss(g2307
g2310
tp4009
g1
(g6
tRp4010
S'I'
F1
ss(g802
tp4011
g1
(g6
tRp4012
S'a'
F0.5
sS'on'
p4013
F0.5
ss(S'you'
S'why'
p4014
tp4015
g1
(g6
tRp4016
S''
F1
ss(g2284
tp4017
g1
(g6
tRp4018
g2201
F0.5
sg3486
F0.5
ss(g284
g1192
tp4019
g1
(g6
tRp4020
S'of'
p4021
F1
ss(g2660
g1959
tp4022
g1
(g6
tRp4023
g2523
F1
ss(S'North'
p4024
S'Korea,'
p4025
tp4026
g1
(g6
tRp4027
S'where'
p4028
F1
ss(g2200
g1737
tp4029
g1
(g6
tRp4030
g541
F1
ss(S'out'
p4031
g3979
tp4032
g1
(g6
tRp4033
g1563
F0.5
sg1562
F0.5
ss(S'gave'
p4034
S'him'
p4035
tp4036
g1
(g6
tRp4037
S''
F1
ss(S'will'
g174
tp4038
g1
(g6
tRp4039
g175
F1
ss(g65
tp4040
g1
(g6
tRp4041
g66
F1
ss(g2336
S'state'
p4042
tp4043
g1
(g6
tRp4044
S''
F0.5
sg1625
F0.5
ss(g413
g3835
tp4045
g1
(g6
tRp4046
S'over'
p4047
F1
ss(S'to'
g640
tp4048
g1
(g6
tRp4049
g590
F1
ss(g3979
g1563
tp4050
g1
(g6
tRp4051
S'who'
p4052
F1
ss(S'is,'
p4053
S'a'
tp4054
g1
(g6
tRp4055
g238
F1
ss(g1489
g1492
tp4056
g1
(g6
tRp4057
g2538
F1
ss(g1690
g1948
tp4058
g1
(g6
tRp4059
g3331
F1
ss(g2728
g2731
tp4060
g1
(g6
tRp4061
g116
F1
ss(g1856
g2409
tp4062
g1
(g6
tRp4063
S'the'
p4064
F1
ss(g3649
tp4065
g1
(g6
tRp4066
S'course'
p4067
F1
ss(g3187
g3190
tp4068
g1
(g6
tRp4069
S''
F1
ss(g2325
g1277
tp4070
g1
(g6
tRp4071
S'I'
F0.5
sS'they'
p4072
F0.5
ss(S'that'
p4073
g1060
tp4074
g1
(g6
tRp4075
g799
F1
ss(g702
g705
tp4076
g1
(g6
tRp4077
S'of'
p4078
F1
ss(g2916
g3803
tp4079
g1
(g6
tRp4080
S''
F1
ss(g680
tp4081
g1
(g6
tRp4082
g1812
F1
ss(g1141
g1144
tp4083
g1
(g6
tRp4084
S'the'
p4085
F1
ss(g3645
tp4086
g1
(g6
tRp4087
g3672
F0.5
sS'morning'
p4088
F0.5
ss(g2960
g2963
tp4089
g1
(g6
tRp4090
S'pro-life'
p4091
F1
ss(S'not'
p4092
g137
tp4093
g1
(g6
tRp4094
g138
F1
ss(g2776
g442
tp4095
g1
(g6
tRp4096
g54
F1
ss(g1319
g1322
tp4097
g1
(g6
tRp4098
S'what'
p4099
F1
ss(S'I'
S'won'
p4100
tp4101
g1
(g6
tRp4102
S''
F1
ss(g577
tp4103
g1
(g6
tRp4104
g580
F1
ss(g146
tp4105
g1
(g6
tRp4106
g147
F1
ss(g3330
S'this'
p4107
tp4108
g1
(g6
tRp4109
S''
F1
ss(g356
g628
tp4110
g1
(g6
tRp4111
S''
F1
ss(g648
g927
tp4112
g1
(g6
tRp4113
S'this'
p4114
F1
ss(g890
g893
tp4115
g1
(g6
tRp4116
g1087
F1
ss(S'the'
p4117
g2833
tp4118
g1
(g6
tRp4119
g2834
F1
ss(S'one'
p4120
g540
tp4121
g1
(g6
tRp4122
g1603
F1
ss(g903
tp4123
g1
(g6
tRp4124
g1343
F1
ss(g1003
g1338
tp4125
g1
(g6
tRp4126
g1339
F1
ss(g536
g542
tp4127
g1
(g6
tRp4128
S'the'
p4129
F0.66249999999999998
sg481
F0.33750000000000002
ss(S'something,'
p4130
tp4131
g1
(g6
tRp4132
S'I'
F1
ss(g389
g3074
tp4133
g1
(g6
tRp4134
g110
F1
ss(g357
tp4135
g1
(g6
tRp4136
g1210
F1
ss(g1279
tp4137
g1
(g6
tRp4138
g3432
F0.33333333333333331
sS'or'
p4139
F0.33333333333333331
sg2944
F0.33333333333333331
ss(g531
g2882
tp4140
g1
(g6
tRp4141
S'Barack'
p4142
F1
ss(g59
S'she'
p4143
tp4144
g1
(g6
tRp4145
g294
F1
ss(g729
tp4146
g1
(g6
tRp4147
S'has'
p4148
F0.5
sg3732
F0.5
ss(S'of'
S'bill'
p4149
tp4150
g1
(g6
tRp4151
S'can'
p4152
F1
ss(g3666
tp4153
g1
(g6
tRp4154
g3669
F0.5
sg2043
F0.5
ss(g2176
g3094
tp4155
g1
(g6
tRp4156
S'country'
p4157
F1
ss(g639
tp4158
g1
(g6
tRp4159
g2565
F1
ss(g459
g1410
tp4160
g1
(g6
tRp4161
S'really'
p4162
F1
ss(S'it,'
p4163
g4139
tp4164
g1
(g6
tRp4165
S'the'
p4166
F1
ss(g2332
tp4167
g1
(g6
tRp4168
g2333
F1
ss(g3469
g2900
tp4169
g1
(g6
tRp4170
g3589
F1
ss(g1497
tp4171
g1
(g6
tRp4172
S'to'
p4173
F1
ss(g3171
tp4174
g1
(g6
tRp4175
S''
F0.25142857142857145
sg455
F0.25142857142857145
sg3172
F0.49714285714285716
ss(S'is'
p4176
g823
tp4177
g1
(g6
tRp4178
g2592
F1
ss(S'ran'
p4179
S'for'
p4180
tp4181
g1
(g6
tRp4182
g1279
F1
ss(g818
tp4183
g1
(g6
tRp4184
S''
F0.33333333333333331
sg1661
F0.33333333333333331
sg3375
F0.33333333333333331
ss(g2440
g2443
tp4185
g1
(g6
tRp4186
S'the'
p4187
F1
ss(g1283
g2012
tp4188
g1
(g6
tRp4189
S'the'
p4190
F1
ss(g2051
tp4191
g1
(g6
tRp4192
g1998
F1
ss(g481
tp4193
g1
(g6
tRp4194
g2708
F0.14302884615384615
sg2622
F0.14302884615384615
sg950
F0.14302884615384615
sg1187
F0.14302884615384615
sg482
F0.14302884615384615
sg976
F0.28485576923076927
ss(S"I've"
g30
tp4195
g1
(g6
tRp4196
g31
F1
ss(g1476
g1479
tp4197
g1
(g6
tRp4198
g4031
F1
ss(g1063
S'sure'
p4199
tp4200
g1
(g6
tRp4201
S'that'
p4202
F1
ss(S'of'
p4203
g3592
tp4204
g1
(g6
tRp4205
g3593
F1
ss(g2227
g2230
tp4206
g1
(g6
tRp4207
g430
F1
ss(g1041
S'experience'
p4208
tp4209
g1
(g6
tRp4210
g967
F1
ss(g233
tp4211
g1
(g6
tRp4212
g3274
F1
ss(g1221
tp4213
g1
(g6
tRp4214
g3892
F1
ss(S'responsible'
p4215
g1230
tp4216
g1
(g6
tRp4217
g1280
F0.5
sg1231
F0.5
ss(g1966
S'and'
p4218
tp4219
g1
(g6
tRp4220
g1957
F1
ss(g1436
g1441
tp4221
g1
(g6
tRp4222
g2652
F1
ss(g1322
g4099
tp4223
g1
(g6
tRp4224
S'we'
p4225
F1
ss(g422
tp4226
g1
(g6
tRp4227
g423
F1
ss(S'public'
p4228
tp4229
g1
(g6
tRp4230
S'who'
p4231
F1
ss(g3345
S'comes'
p4232
tp4233
g1
(g6
tRp4234
S'not'
p4235
F1
ss(g769
tp4236
g1
(g6
tRp4237
S''
F1
ss(g1905
g1908
tp4238
g1
(g6
tRp4239
g3804
F1
ss(g1679
g1682
tp4240
g1
(g6
tRp4241
S'year'
p4242
F1
ss(S"don't"
p4243
g44
tp4244
g1
(g6
tRp4245
g2542
F1
ss(g2053
g45
tp4246
g1
(g6
tRp4247
S''
F1
ss(S'shame'
g2852
tp4248
g1
(g6
tRp4249
S'Marco'
p4250
F1
ss(S'years,'
p4251
g2164
tp4252
g1
(g6
tRp4253
g2165
F1
ss(S'president'
p4254
g3386
tp4255
g1
(g6
tRp4256
g2222
F1
ss(g1587
g1590
tp4257
g1
(g6
tRp4258
g2186
F1
ss(g650
g653
tp4259
g1
(g6
tRp4260
S'get'
p4261
F1
ss(g1304
tp4262
g1
(g6
tRp4263
g828
F1
ss(S'that,'
p4264
S'you'
p4265
tp4266
g1
(g6
tRp4267
g1707
F1
ss(g532
g535
tp4268
g1
(g6
tRp4269
g605
F0.5
sg1027
F0.5
ss(g1804
tp4270
g1
(g6
tRp4271
g1805
F1
ss(g2059
tp4272
g1
(g6
tRp4273
S'I'
F0.44357142857142862
sS'of'
p4274
F0.22214285714285714
sS'the'
p4275
F0.11142857142857143
sg4143
F0.11142857142857143
sg3243
F0.11142857142857143
ss(g660
g196
tp4276
g1
(g6
tRp4277
g197
F1
ss(g1975
tp4278
g1
(g6
tRp4279
g1978
F1
ss(g1221
g3892
tp4280
g1
(g6
tRp4281
g3221
F1
ss(g3515
S'you'
p4282
tp4283
g1
(g6
tRp4284
S'have'
p4285
F1
ss(g2872
tp4286
g1
(g6
tRp4287
S''
F0.66249999999999998
sg843
F0.33750000000000002
ss(S'It'
S'is'
p4288
tp4289
g1
(g6
tRp4290
S'a'
F1
ss(g2666
tp4291
g1
(g6
tRp4292
g325
F0.49714285714285716
sg2704
F0.25142857142857145
sg2667
F0.25142857142857145
ss(S'and'
p4293
g1950
tp4294
g1
(g6
tRp4295
S'these'
p4296
F1
ss(g3202
S'manage'
p4297
tp4298
g1
(g6
tRp4299
S'a'
F1
ss(g408
g415
tp4300
g1
(g6
tRp4301
g3880
F1
ss(g839
g842
tp4302
g1
(g6
tRp4303
S'under'
p4304
F1
ss(g3676
g3679
tp4305
g1
(g6
tRp4306
g3025
F1
ss(g92
g1426
tp4307
g1
(g6
tRp4308
g2607
F1
ss(g3074
tp4309
g1
(g6
tRp4310
g243
F0.16666666666666666
sS'had'
p4311
F0.16666666666666666
sg30
F0.16666666666666666
sg36
F0.16666666666666666
sg1102
F0.16666666666666666
sg110
F0.16666666666666666
ss(g3239
tp4312
g1
(g6
tRp4313
g3033
F1
ss(g3249
tp4314
g1
(g6
tRp4315
S'a'
F0.33750000000000002
sg3250
F0.66249999999999998
ss(S"we've"
p4316
S'done'
p4317
tp4318
g1
(g6
tRp4319
g115
F1
ss(S'a'
g1822
tp4320
g1
(g6
tRp4321
g3827
F1
ss(g977
S'a'
tp4322
g1
(g6
tRp4323
g1462
F1
ss(g408
tp4324
g1
(g6
tRp4325
S''
F0.45370370370370383
sg411
F0.091049382716049412
sg412
F0.091049382716049412
sg413
F0.091049382716049412
sg414
F0.091049382716049412
sg415
F0.091049382716049412
sg416
F0.091049382716049412
ss(g2564
tp4326
g1
(g6
tRp4327
S'money'
p4328
F0.015873835637019228
sg550
F0.015873835637019228
sg1750
F0.015873835637019228
sg3790
F0.015873835637019228
sS'extremist'
p4329
F0.015873835637019228
sg1933
F0.015873835637019228
sg1502
F0.015873835637019228
sg2628
F0.015873835637019228
sS'activity,'
p4330
F0.015873835637019228
sg813
F0.031745323768028841
sg3592
F0.015873835637019228
sS'what'
p4331
F0.031745323768028841
sg2747
F0.015873835637019228
sg712
F0.015873835637019228
sg3495
F0.015873835637019228
sg2782
F0.015873835637019228
sg252
F0.015873835637019228
sg1746
F0.015873835637019228
sS'their'
p4332
F0.015873835637019228
sg2465
F0.015873835637019228
sg3110
F0.031745323768028841
sg3775
F0.031745323768028841
sS'self-worth,'
p4333
F0.015873835637019228
sS'job'
p4334
F0.015873835637019228
sg1389
F0.015873835637019228
sg605
F0.015873835637019228
sS'hostage'
p4335
F0.015873835637019228
sg2774
F0.015873835637019228
sg869
F0.015873835637019228
sg770
F0.015873835637019228
sS'a'
F0.04761681189903845
sg481
F0.031745323768028841
sg1112
F0.015873835637019228
sg4149
F0.015873835637019228
sg3558
F0.015873835637019228
sg430
F0.031745323768028841
sg1027
F0.015873835637019228
sS'eight'
p4336
F0.015873835637019228
sg498
F0.17458871694711536
sg1507
F0.079359788161057682
sg1591
F0.015873835637019228
ss(g1649
g1652
tp4337
g1
(g6
tRp4338
S'believe'
p4339
F1
ss(g3516
g1128
tp4340
g1
(g6
tRp4341
g1057
F1
ss(S'work'
p4342
tp4343
g1
(g6
tRp4344
S''
F1
ss(S'And'
S'here'
p4345
tp4346
g1
(g6
tRp4347
S'is'
p4348
F1
ss(g1023
g1026
tp4349
g1
(g6
tRp4350
S'disaster'
p4351
F1
ss(g165
g4264
tp4352
g1
(g6
tRp4353
g4265
F1
ss(g3103
tp4354
g1
(g6
tRp4355
g3104
F1
ss(g3646
S'when'
p4356
tp4357
g1
(g6
tRp4358
S"you're"
p4359
F1
ss(S'to'
p4360
S'as'
p4361
tp4362
g1
(g6
tRp4363
S'president'
p4364
F1
ss(g3175
tp4365
g1
(g6
tRp4366
S'so'
p4367
F1
ss(g842
g4304
tp4368
g1
(g6
tRp4369
g3719
F1
ss(S'a'
g3517
tp4370
g1
(g6
tRp4371
g217
F1
ss(g2717
tp4372
g1
(g6
tRp4373
S''
F1
ss(S'S'
tp4374
g1
(g6
tRp4375
S''
F1
ss(g774
S'an'
p4376
tp4377
g1
(g6
tRp4378
g2102
F0.5
sg3487
F0.5
ss(g3439
tp4379
g1
(g6
tRp4380
g3440
F0.5
sg2714
F0.5
ss(g2052
tp4381
g1
(g6
tRp4382
S''
F0.25
sg2006
F0.25
sg2507
F0.25
sg2053
F0.25
ss(g486
tp4383
g1
(g6
tRp4384
g487
F0.5
sS'Clinton'
p4385
F0.5
ss(g2114
tp4386
g1
(g6
tRp4387
g2117
F1
ss(g1603
S'David,'
p4388
tp4389
g1
(g6
tRp4390
g456
F1
ss(g3308
g1725
tp4391
g1
(g6
tRp4392
g1726
F1
ss(g2133
g2136
tp4393
g1
(g6
tRp4394
g1785
F1
ss(g2025
g1964
tp4395
g1
(g6
tRp4396
g2641
F1
ss(g691
g694
tp4397
g1
(g6
tRp4398
g1056
F1
ss(g905
g908
tp4399
g1
(g6
tRp4400
S'only'
p4401
F1
ss(g2125
tp4402
g1
(g6
tRp4403
g2356
F0.125
sS'a'
F0.125
sS'we'
p4404
F0.125
sg4250
F0.125
sg2986
F0.125
sS'I'
F0.125
sS'crime'
p4405
F0.125
sg2126
F0.125
ss(S'I'
g681
tp4406
g1
(g6
tRp4407
g1671
F0.25142857142857145
sg2800
F0.49714285714285716
sg682
F0.25142857142857145
ss(g2990
g113
tp4408
g1
(g6
tRp4409
g1954
F0.5
sg272
F0.5
ss(g544
g2595
tp4410
g1
(g6
tRp4411
g2596
F1
ss(g2959
tp4412
g1
(g6
tRp4413
g2960
F1
ss(g4328
g1857
tp4414
g1
(g6
tRp4415
g1401
F1
ss(g230
tp4416
g1
(g6
tRp4417
g233
F1
ss(g2900
tp4418
g1
(g6
tRp4419
g3589
F1
ss(S'treated'
p4420
g3132
tp4421
g1
(g6
tRp4422
g3133
F1
ss(g2062
tp4423
g1
(g6
tRp4424
S'it'
p4425
F1
ss(S'people'
p4426
g2038
tp4427
g1
(g6
tRp4428
S'you'
p4429
F0.5
sg1063
F0.5
ss(g705
g4078
tp4430
g1
(g6
tRp4431
g4333
F0.33333333333333331
sS'what'
p4432
F0.33333333333333331
sg2782
F0.33333333333333331
ss(g880
g883
tp4433
g1
(g6
tRp4434
S'his'
p4435
F1
ss(g2534
g2537
tp4436
g1
(g6
tRp4437
S'need'
p4438
F1
ss(g4232
g4235
tp4439
g1
(g6
tRp4440
S'from'
p4441
F1
ss(g2631
tp4442
g1
(g6
tRp4443
S''
F1
ss(S'test'
p4444
tp4445
g1
(g6
tRp4446
g954
F1
ss(g3880
tp4447
g1
(g6
tRp4448
S'best'
p4449
F1
ss(S'you,'
p4450
tp4451
g1
(g6
tRp4452
S'they'
p4453
F1
ss(g174
tp4454
g1
(g6
tRp4455
g175
F0.5
sg2776
F0.5
ss(g3702
S'with'
p4456
tp4457
g1
(g6
tRp4458
S'types'
p4459
F1
ss(S'senator'
g3204
tp4460
g1
(g6
tRp4461
g3205
F1
ss(g870
S'I'
tp4462
g1
(g6
tRp4463
g1789
F1
ss(g3672
g3675
tp4464
g1
(g6
tRp4465
S'I'
F1
ss(g1159
g1162
tp4466
g1
(g6
tRp4467
S'we'
p4468
F1
ss(g676
g1404
tp4469
g1
(g6
tRp4470
g83
F1
ss(g61
tp4471
g1
(g6
tRp4472
g2990
F1
ss(g4265
g1707
tp4473
g1
(g6
tRp4474
g1708
F1
ss(g4345
g4348
tp4475
g1
(g6
tRp4476
g3186
F1
ss(g1531
g1534
tp4477
g1
(g6
tRp4478
g1612
F1
ss(S'year'
p4479
tp4480
g1
(g6
tRp4481
S'of'
p4482
F0.5
sg3068
F0.5
ss(g848
tp4483
g1
(g6
tRp4484
g851
F1
ss(g3246
g1645
tp4485
g1
(g6
tRp4486
g1646
F1
ss(g3643
tp4487
g1
(g6
tRp4488
g1936
F0.25
sg1364
F0.25
sg3477
F0.25
sS'heard'
p4489
F0.25
ss(g4034
tp4490
g1
(g6
tRp4491
g4035
F1
ss(g3133
tp4492
g1
(g6
tRp4493
S''
F1
ss(g261
g264
tp4494
g1
(g6
tRp4495
S''
F1
ss(g1497
g4173
tp4496
g1
(g6
tRp4497
g3982
F1
ss(g677
g680
tp4498
g1
(g6
tRp4499
g1812
F1
ss(g1819
tp4500
g1
(g6
tRp4501
S'I'
F0.5
sg456
F0.5
ss(g130
g667
tp4502
g1
(g6
tRp4503
g668
F1
ss(S'a'
g3516
tp4504
g1
(g6
tRp4505
g597
F0.5
sg1128
F0.5
ss(S'same'
p4506
g1286
tp4507
g1
(g6
tRp4508
g2244
F0.5
sg1287
F0.5
ss(g2761
g2764
tp4509
g1
(g6
tRp4510
S'Planned'
p4511
F1
ss(g4072
g478
tp4512
g1
(g6
tRp4513
S'that'
p4514
F0.5
sS'in'
p4515
F0.5
ss(S"can't"
p4516
S'just'
p4517
tp4518
g1
(g6
tRp4519
g3398
F1
ss(g2815
S'criminals'
p4520
tp4521
g1
(g6
tRp4522
S''
F1
ss(S'literally'
p4523
tp4524
g1
(g6
tRp4525
g2357
F1
ss(g783
g1303
tp4526
g1
(g6
tRp4527
S"he's"
p4528
F1
ss(g2032
tp4529
g1
(g6
tRp4530
S''
F0.071466666666666692
sg2038
F0.14275555555555558
sS'hostage'
p4531
F0.071466666666666692
sg2035
F0.14275555555555558
sg2036
F0.14275555555555558
sg653
F0.071466666666666692
sg4
F0.071466666666666692
sg1586
F0.071466666666666692
sg2151
F0.071466666666666692
sg2611
F0.071466666666666692
sg2037
F0.071466666666666692
ss(S'in'
p4532
S'law'
p4533
tp4534
g1
(g6
tRp4535
g857
F1
ss(g4514
g1038
tp4536
g1
(g6
tRp4537
S'is'
p4538
F1
ss(g3631
S'it'
p4539
tp4540
g1
(g6
tRp4541
g55
F0.66249999999999998
sg60
F0.33750000000000002
ss(g3884
tp4542
g1
(g6
tRp4543
g3885
F0.25
sS'criticize'
p4544
F0.25
sg614
F0.25
sg1833
F0.25
ss(g2192
g2195
tp4545
g1
(g6
tRp4546
g2469
F1
ss(g539
tp4547
g1
(g6
tRp4548
g2571
F1
ss(S'is'
p4549
g1983
tp4550
g1
(g6
tRp4551
g1984
F1
ss(g125
g3879
tp4552
g1
(g6
tRp4553
g2084
F1
ss(g169
g1239
tp4554
g1
(g6
tRp4555
g1283
F1
ss(g233
g3274
tp4556
g1
(g6
tRp4557
g121
F1
ss(g1180
tp4558
g1
(g6
tRp4559
S''
F1
ss(g2505
g2217
tp4560
g1
(g6
tRp4561
g1141
F1
ss(g1980
g1108
tp4562
g1
(g6
tRp4563
g1109
F1
ss(g2312
g2316
tp4564
g1
(g6
tRp4565
g1159
F1
ss(g3659
tp4566
g1
(g6
tRp4567
g35
F0.5
sS'he'
p4568
F0.5
ss(g2100
tp4569
g1
(g6
tRp4570
g3854
F1
ss(g395
tp4571
g1
(g6
tRp4572
g629
F0.16734693877551021
sg1153
F0.33265306122448973
sg3168
F0.16734693877551021
sg396
F0.33265306122448973
ss(g2821
tp4573
g1
(g6
tRp4574
S'I'
F1
ss(g1229
g3426
tp4575
g1
(g6
tRp4576
S'a'
F1
ss(g455
S'jobs'
p4577
tp4578
g1
(g6
tRp4579
S''
F1
ss(S'I'
g3246
tp4580
g1
(g6
tRp4581
g1645
F1
ss(g105
g108
tp4582
g1
(g6
tRp4583
g1979
F1
ss(g60
g2356
tp4584
g1
(g6
tRp4585
S''
F1
ss(S'the'
p4586
g3154
tp4587
g1
(g6
tRp4588
g4053
F1
ss(g700
tp4589
g1
(g6
tRp4590
S''
F1
ss(g415
g3880
tp4591
g1
(g6
tRp4592
g4449
F1
ss(g4334
g3146
tp4593
g1
(g6
tRp4594
g3149
F1
ss(S'are'
p4595
g3235
tp4596
g1
(g6
tRp4597
g3236
F1
ss(g1832
tp4598
g1
(g6
tRp4599
g338
F0.5
sS'he'
p4600
F0.5
ss(S"It's"
g1929
tp4601
g1
(g6
tRp4602
g1932
F1
ss(g3445
tp4603
g1
(g6
tRp4604
S'they'
p4605
F0.33333333333333331
sg1974
F0.33333333333333331
sS'that'
p4606
F0.33333333333333331
ss(S'believes'
p4607
tp4608
g1
(g6
tRp4609
S'that'
p4610
F1
ss(S'the'
p4611
g4506
tp4612
g1
(g6
tRp4613
g3446
F0.33750000000000002
sg1286
F0.66249999999999998
ss(g117
tp4614
g1
(g6
tRp4615
g120
F1
ss(S'after'
p4616
g3317
tp4617
g1
(g6
tRp4618
g3456
F1
ss(g58
g73
tp4619
g1
(g6
tRp4620
S'when'
p4621
F1
ss(g1718
g2722
tp4622
g1
(g6
tRp4623
g2577
F1
ss(g1018
tp4624
g1
(g6
tRp4625
g884
F0.49714285714285716
sg1019
F0.25142857142857145
sg3439
F0.25142857142857145
ss(g4610
g1055
tp4626
g1
(g6
tRp4627
g2727
F1
ss(g4297
tp4628
g1
(g6
tRp4629
S'a'
F1
ss(g3318
tp4630
g1
(g6
tRp4631
g3585
F1
ss(g3165
g3787
tp4632
g1
(g6
tRp4633
S'problem'
p4634
F1
ss(g2161
S'broadsides'
p4635
tp4636
g1
(g6
tRp4637
g2420
F1
ss(g4235
g4441
tp4638
g1
(g6
tRp4639
S'the'
p4640
F1
ss(g4100
tp4641
g1
(g6
tRp4642
S''
F1
ss(g3643
g1936
tp4643
g1
(g6
tRp4644
g1939
F1
ss(g1632
tp4645
g1
(g6
tRp4646
g1363
F0.16734693877551018
sg1633
F0.49795918367346931
sg3386
F0.16734693877551018
sg3499
F0.16734693877551018
ss(g1479
tp4647
g1
(g6
tRp4648
g4031
F1
ss(g1394
tp4649
g1
(g6
tRp4650
g1395
F0.39814814814814814
sS'talking'
p4651
F0.20061728395061729
sg784
F0.20061728395061729
sg937
F0.20061728395061729
ss(S'I'
g1152
tp4652
g1
(g6
tRp4653
g3208
F1
ss(g2853
g932
tp4654
g1
(g6
tRp4655
g933
F1
ss(S'aspire'
p4656
g4360
tp4657
g1
(g6
tRp4658
g4361
F1
ss(g2652
tp4659
g1
(g6
tRp4660
S''
F0.13038194444444448
sg200
F0.043489583333333345
sS'issue'
p4661
F0.043489583333333345
sg1858
F0.043489583333333345
sg1726
F0.08693576388888892
sg1333
F0.13038194444444448
sg2513
F0.08693576388888892
sg1428
F0.043489583333333345
sg622
F0.043489583333333345
sS'idea'
p4662
F0.043489583333333345
sg3470
F0.043489583333333345
sg4242
F0.043489583333333345
sg4254
F0.043489583333333345
sg4634
F0.043489583333333345
sg2341
F0.043489583333333345
sg2964
F0.043489583333333345
sS'stage'
p4663
F0.043489583333333345
ss(g3564
tp4664
g1
(g6
tRp4665
g3565
F1
ss(S"I've"
g243
tp4666
g1
(g6
tRp4667
g246
F1
ss(S'mosques'
p4668
g2277
tp4669
g1
(g6
tRp4670
g2280
F1
ss(S'You'
g3308
tp4671
g1
(g6
tRp4672
g1725
F1
ss(g1081
g1883
tp4673
g1
(g6
tRp4674
g2873
F1
ss(S'that'
p4675
g1051
tp4676
g1
(g6
tRp4677
g3406
F1
ss(g690
tp4678
g1
(g6
tRp4679
g2165
F0.19999999999999998
sg562
F0.19999999999999998
sS'treatment'
p4680
F0.19999999999999998
sg761
F0.19999999999999998
sg1244
F0.19999999999999998
ss(g1867
g1870
tp4681
g1
(g6
tRp4682
g2853
F1
ss(g2764
g4511
tp4683
g1
(g6
tRp4684
g3427
F1
ss(S'daughters'
p4685
g2028
tp4686
g1
(g6
tRp4687
g1973
F1
ss(g208
g211
tp4688
g1
(g6
tRp4689
g1507
F1
ss(g2216
g2533
tp4690
g1
(g6
tRp4691
S'a'
F1
ss(g97
tp4692
g1
(g6
tRp4693
S''
F1
ss(g2844
S'end'
p4694
tp4695
g1
(g6
tRp4696
g1749
F1
ss(g1524
S'States'
p4697
tp4698
g1
(g6
tRp4699
g4293
F0.14302884615384615
sS''
F0.14302884615384615
sg3754
F0.14302884615384615
sg1535
F0.14302884615384615
sg1014
F0.14302884615384615
sS'senator'
p4700
F0.28485576923076927
ss(g1093
g1058
tp4701
g1
(g6
tRp4702
g474
F0.5
sS'want'
p4703
F0.5
ss(g4435
g3121
tp4704
g1
(g6
tRp4705
g3875
F1
ss(g1479
g4031
tp4706
g1
(g6
tRp4707
g3979
F1
ss(g36
g39
tp4708
g1
(g6
tRp4709
g256
F1
ss(g1558
g1561
tp4710
g1
(g6
tRp4711
g2052
F1
ss(S'good'
p4712
g1745
tp4713
g1
(g6
tRp4714
S''
F1
ss(g1682
g4242
tp4715
g1
(g6
tRp4716
g3068
F1
ss(S'government'
p4717
g2259
tp4718
g1
(g6
tRp4719
g3392
F1
ss(g928
tp4720
g1
(g6
tRp4721
S'I'
F1
ss(g1200
g1203
tp4722
g1
(g6
tRp4723
S'the'
p4724
F1
ss(g1741
tp4725
g1
(g6
tRp4726
g2298
F0.49714285714285716
sg1744
F0.25142857142857145
sg1745
F0.25142857142857145
ss(g1608
S'this'
p4727
tp4728
g1
(g6
tRp4729
S'on'
p4730
F1
ss(S'gang'
p4731
S'of'
p4732
tp4733
g1
(g6
tRp4734
g4336
F1
ss(g943
g1400
tp4735
g1
(g6
tRp4736
S'we'
p4737
F0.5
sg1394
F0.5
ss(g1294
tp4738
g1
(g6
tRp4739
g1297
F1
ss(S'I'
g2063
tp4740
g1
(g6
tRp4741
g2410
F1
ss(g1251
S'the'
p4742
tp4743
g1
(g6
tRp4744
S'American'
p4745
F1
ss(g2129
g303
tp4746
g1
(g6
tRp4747
g306
F0.5
sg307
F0.5
ss(g705
tp4748
g1
(g6
tRp4749
g4078
F1
ss(g2058
g3185
tp4750
g1
(g6
tRp4751
S'what'
p4752
F0.5
sS'exactly'
p4753
F0.5
ss(S'It'
g3224
tp4754
g1
(g6
tRp4755
g3225
F0.5
sg1801
F0.5
ss(g1615
tp4756
g1
(g6
tRp4757
g2374
F1
ss(g3879
g2084
tp4758
g1
(g6
tRp4759
g2087
F1
ss(g4052
g4595
tp4760
g1
(g6
tRp4761
g4523
F0.5
sg3235
F0.5
ss(S"we're"
p4762
g4651
tp4763
g1
(g6
tRp4764
g3874
F1
ss(g653
g4261
tp4765
g1
(g6
tRp4766
g1687
F0.5
sg1207
F0.5
ss(g135
g2378
tp4767
g1
(g6
tRp4768
g2379
F1
ss(g590
tp4769
g1
(g6
tRp4770
S'as'
p4771
F0.33750000000000002
sg591
F0.66249999999999998
ss(g1883
tp4772
g1
(g6
tRp4773
g2873
F1
ss(g1051
g3406
tp4774
g1
(g6
tRp4775
g3407
F1
ss(g2261
tp4776
g1
(g6
tRp4777
g2264
F1
ss(g2291
g3330
tp4778
g1
(g6
tRp4779
g4107
F1
ss(S'the'
p4780
g4228
tp4781
g1
(g6
tRp4782
g4231
F1
ss(g3431
tp4783
g1
(g6
tRp4784
S'about'
p4785
F1
ss(g3550
tp4786
g1
(g6
tRp4787
S''
F1
ss(g1258
tp4788
g1
(g6
tRp4789
g1261
F0.66249999999999998
sg1262
F0.33750000000000002
ss(g502
g4293
tp4790
g1
(g6
tRp4791
g1950
F1
ss(g3923
g2329
tp4792
g1
(g6
tRp4793
g1697
F1
ss(g1975
g1978
tp4794
g1
(g6
tRp4795
g1966
F1
ss(g2935
g2371
tp4796
g1
(g6
tRp4797
S''
F1
ss(g707
g710
tp4798
g1
(g6
tRp4799
g471
F1
ss(g4700
tp4800
g1
(g6
tRp4801
g1031
F0.5
sg3204
F0.5
ss(g2109
g2112
tp4802
g1
(g6
tRp4803
g3065
F1
ss(g1525
tp4804
g1
(g6
tRp4805
g1526
F1
ss(g1466
g1833
tp4806
g1
(g6
tRp4807
g1839
F1
ss(g1784
tp4808
g1
(g6
tRp4809
g3000
F1
ss(g400
tp4810
g1
(g6
tRp4811
g403
F1
ss(g1171
tp4812
g1
(g6
tRp4813
S'a'
F0.5
sg2195
F0.5
ss(g655
g658
tp4814
g1
(g6
tRp4815
g1757
F1
ss(g594
g3550
tp4816
g1
(g6
tRp4817
S''
F1
ss(g866
g472
tp4818
g1
(g6
tRp4819
S''
F1
ss(g3287
S'a'
tp4820
g1
(g6
tRp4821
g2770
F0.5
sg3515
F0.5
ss(g4330
S'unless'
p4822
tp4823
g1
(g6
tRp4824
S'you'
p4825
F1
ss(g512
tp4826
g1
(g6
tRp4827
g3113
F1
ss(S'you'
g4130
tp4828
g1
(g6
tRp4829
S'I'
F1
ss(g3988
g1538
tp4830
g1
(g6
tRp4831
g977
F1
ss(g3431
g4785
tp4832
g1
(g6
tRp4833
S'it'
p4834
F1
ss(S'these'
p4835
g1564
tp4836
g1
(g6
tRp4837
S''
F0.66249999999999998
sg1567
F0.33750000000000002
ss(g2890
tp4838
g1
(g6
tRp4839
S''
F0.5
sg1893
F0.5
ss(g83
g3690
tp4840
g1
(g6
tRp4841
g221
F1
ss(S'that'
p4842
g1042
tp4843
g1
(g6
tRp4844
S''
F1
ss(g2216
tp4845
g1
(g6
tRp4846
g2533
F1
ss(S'act'
p4847
g3789
tp4848
g1
(g6
tRp4849
g3790
F1
ss(g2413
g2666
tp4850
g1
(g6
tRp4851
g2667
F1
ss(S'around'
p4852
tp4853
g1
(g6
tRp4854
g104
F1
ss(g3064
g289
tp4855
g1
(g6
tRp4856
S'a'
F1
ss(g4425
g49
tp4857
g1
(g6
tRp4858
S'say,'
p4859
F0.5
sg1963
F0.5
ss(g553
tp4860
g1
(g6
tRp4861
g554
F1
ss(g4444
g954
tp4862
g1
(g6
tRp4863
g957
F1
ss(S'I'
g2476
tp4864
g1
(g6
tRp4865
S'to'
p4866
F0.5
sg3356
F0.5
ss(g3107
g1325
tp4867
g1
(g6
tRp4868
S''
F1
ss(g1275
g1348
tp4869
g1
(g6
tRp4870
S'are'
p4871
F1
ss(S'way'
p4872
g182
tp4873
g1
(g6
tRp4874
S'raised'
p4875
F0.5
sg3004
F0.5
ss(g3284
g3287
tp4876
g1
(g6
tRp4877
S'a'
F1
ss(S'have'
p4878
g2212
tp4879
g1
(g6
tRp4880
g2213
F1
ss(S'We'
S'did'
p4881
tp4882
g1
(g6
tRp4883
S'it'
p4884
F1
ss(g3126
g1636
tp4885
g1
(g6
tRp4886
S''
F1
ss(g1359
tp4887
g1
(g6
tRp4888
g1360
F0.16780045351473924
sS'is'
p4889
F0.66439909297052147
sS'was'
p4890
F0.16780045351473924
ss(g1992
tp4891
g1
(g6
tRp4892
S'is'
p4893
F1
ss(g3648
tp4894
g1
(g6
tRp4895
g2901
F0.33750000000000002
sS'said'
p4896
F0.66249999999999998
ss(g4822
g4825
tp4897
g1
(g6
tRp4898
S'are'
p4899
F1
ss(g3891
S'American'
p4900
tp4901
g1
(g6
tRp4902
g3731
F1
ss(g1797
g1800
tp4903
g1
(g6
tRp4904
S''
F1
ss(g568
g571
tp4905
g1
(g6
tRp4906
S'wait'
p4907
F1
ss(g4376
g3487
tp4908
g1
(g6
tRp4909
g2015
F1
ss(g4822
tp4910
g1
(g6
tRp4911
g4825
F1
ss(g950
tp4912
g1
(g6
tRp4913
g953
F1
ss(g2476
g3356
tp4914
g1
(g6
tRp4915
g3357
F1
ss(g3274
g121
tp4916
g1
(g6
tRp4917
g122
F1
ss(g2406
g1562
tp4918
g1
(g6
tRp4919
g1427
F1
ss(S'fight'
p4920
tp4921
g1
(g6
tRp4922
g2686
F0.20238095238095236
sg695
F0.79761904761904756
ss(g2126
g2129
tp4923
g1
(g6
tRp4924
g303
F1
ss(g3515
tp4925
g1
(g6
tRp4926
g4282
F0.5
sg2003
F0.5
ss(g1631
tp4927
g1
(g6
tRp4928
g2736
F1
ss(g2556
g4013
tp4929
g1
(g6
tRp4930
S'the'
p4931
F1
ss(g1785
g1788
tp4932
g1
(g6
tRp4933
g2342
F1
ss(S'We'
S'are'
p4934
tp4935
g1
(g6
tRp4936
S'working'
p4937
F1
ss(S'--'
p4938
S'like,'
p4939
tp4940
g1
(g6
tRp4941
S'we'
p4942
F1
ss(S'one'
p4943
g546
tp4944
g1
(g6
tRp4945
S''
F1
ss(g2419
g1947
tp4946
g1
(g6
tRp4947
S'country'
p4948
F0.5
sS'understanding'
p4949
F0.5
ss(g1550
g1553
tp4950
g1
(g6
tRp4951
S'them'
p4952
F1
ss(S'tried'
p4953
g3083
tp4954
g1
(g6
tRp4955
g56
F1
ss(g3664
S'the'
p4956
tp4957
g1
(g6
tRp4958
S'United'
p4959
F1
ss(g2102
g754
tp4960
g1
(g6
tRp4961
S''
F1
ss(g4948
S'first'
p4962
tp4963
g1
(g6
tRp4964
S''
F1
ss(S'just'
p4965
g2162
tp4966
g1
(g6
tRp4967
g4938
F1
ss(g2473
S'of'
p4968
tp4969
g1
(g6
tRp4970
g4332
F1
ss(g1939
g64
tp4971
g1
(g6
tRp4972
g463
F1
ss(g3772
g3775
tp4973
g1
(g6
tRp4974
g1050
F0.5
sg1061
F0.5
ss(S'will'
p4975
S'do'
p4976
tp4977
g1
(g6
tRp4978
S'just'
p4979
F1
ss(g3426
S'a'
tp4980
g1
(g6
tRp4981
g2968
F0.33333333333333331
sS'disease'
p4982
F0.33333333333333331
sg2913
F0.33333333333333331
ss(g2728
tp4983
g1
(g6
tRp4984
g2731
F1
ss(g1276
g1904
tp4985
g1
(g6
tRp4986
S''
F1
ss(g729
g4148
tp4987
g1
(g6
tRp4988
S'gone'
p4989
F1
ss(g3203
g11
tp4990
g1
(g6
tRp4991
g14
F1
ss(g3629
g980
tp4992
g1
(g6
tRp4993
g986
F1
ss(g2133
tp4994
g1
(g6
tRp4995
g2136
F1
ss(g1045
S"hasn't"
p4996
tp4997
g1
(g6
tRp4998
S''
F1
ss(S'of'
g2782
tp4999
g1
(g6
tRp5000
g2783
F1
ss(g3470
g3473
tp5001
g1
(g6
tRp5002
g1967
F1
ss(g1521
tp5003
g1
(g6
tRp5004
S'a'
F0.062560553633217997
sg3287
F0.12498269896193773
sg2608
F0.062560553633217997
sS'I'
F0.12498269896193773
sg1784
F0.062560553633217997
sg710
F0.062560553633217997
sg2750
F0.12498269896193773
sg913
F0.24982698961937716
sg879
F0.12498269896193773
ss(g4996
tp5005
g1
(g6
tRp5006
S''
F1
ss(g1815
S'with'
p5007
tp5008
g1
(g6
tRp5009
g2524
F1
ss(g2641
g2644
tp5010
g1
(g6
tRp5011
S'to'
p5012
F1
ss(g3519
S'commander-in-chief'
p5013
tp5014
g1
(g6
tRp5015
S'who'
p5016
F1
ss(g2637
tp5017
g1
(g6
tRp5018
g2640
F1
ss(g4264
tp5019
g1
(g6
tRp5020
g4265
F0.5
sg1217
F0.5
ss(g1047
g3966
tp5021
g1
(g6
tRp5022
S''
F1
ss(g3057
g4404
tp5023
g1
(g6
tRp5024
S'need'
p5025
F1
ss(S'the'
p5026
g2612
tp5027
g1
(g6
tRp5028
g865
F1
ss(g687
tp5029
g1
(g6
tRp5030
g690
F1
ss(S'Everyone'
S'of'
p5031
tp5032
g1
(g6
tRp5033
g770
F1
ss(g1485
S'I'
tp5034
g1
(g6
tRp5035
S'would'
p5036
F1
ss(S'that'
p5037
g1046
tp5038
g1
(g6
tRp5039
S'a'
F1
ss(g3648
g4896
tp5040
g1
(g6
tRp5041
g983
F0.5
sg985
F0.5
ss(g1844
tp5042
g1
(g6
tRp5043
S'and'
p5044
F1
ss(g4047
S'$2'
p5045
tp5046
g1
(g6
tRp5047
S''
F1
ss(g2940
tp5048
g1
(g6
tRp5049
g1179
F1
ss(g3040
g1516
tp5050
g1
(g6
tRp5051
g2534
F1
ss(g1683
g1686
tp5052
g1
(g6
tRp5053
g298
F1
ss(g48
tp5054
g1
(g6
tRp5055
g3966
F0.19999999999999998
sg4342
F0.19999999999999998
sS'solve'
p5056
F0.19999999999999998
sg3392
F0.19999999999999998
sg527
F0.19999999999999998
ss(g4361
g4364
tp5057
g1
(g6
tRp5058
g3499
F1
ss(S'would'
p5059
g1823
tp5060
g1
(g6
tRp5061
g1824
F1
ss(g94
g97
tp5062
g1
(g6
tRp5063
S''
F1
ss(g1582
g1585
tp5064
g1
(g6
tRp5065
g1053
F1
ss(S'list'
p5066
S'as'
p5067
tp5068
g1
(g6
tRp5069
g536
F1
ss(g40
g43
tp5070
g1
(g6
tRp5071
S'it'
p5072
F1
ss(g2473
tp5073
g1
(g6
tRp5074
g4968
F1
ss(g4405
tp5075
g1
(g6
tRp5076
g3545
F1
ss(g997
g738
tp5077
g1
(g6
tRp5078
g84
F1
ss(S'Jersey,'
g2238
tp5079
g1
(g6
tRp5080
S'the'
p5081
F1
ss(g2261
g2264
tp5082
g1
(g6
tRp5083
g2767
F1
ss(S'a'
g2770
tp5084
g1
(g6
tRp5085
g2771
F0.5
sg1463
F0.5
ss(S'criminals'
p5086
tp5087
g1
(g6
tRp5088
S''
F0.66249999999999998
sg1513
F0.33750000000000002
ss(g2108
g875
tp5089
g1
(g6
tRp5090
g878
F1
ss(g2064
tp5091
g1
(g6
tRp5092
g2732
F1
ss(g3235
tp5093
g1
(g6
tRp5094
g3236
F1
ss(g11
g14
tp5095
g1
(g6
tRp5096
g2841
F1
ss(g2534
tp5097
g1
(g6
tRp5098
g2537
F1
ss(g1266
tp5099
g1
(g6
tRp5100
S''
F1
ss(g2433
tp5101
g1
(g6
tRp5102
S'I'
F0.33333333333333331
sg2436
F0.33333333333333331
sg385
F0.33333333333333331
ss(g3660
S'Marco'
p5103
tp5104
g1
(g6
tRp5105
S'--'
p5106
F1
ss(S'said'
g983
tp5107
g1
(g6
tRp5108
g4662
F1
ss(g2958
g4274
tp5109
g1
(g6
tRp5110
g5026
F0.5
sg4163
F0.5
ss(g3649
g4067
tp5111
g1
(g6
tRp5112
S'I'
F1
ss(g1947
g4949
tp5113
g1
(g6
tRp5114
S''
F1
ss(g1432
g1435
tp5115
g1
(g6
tRp5116
g9
F1
ss(g2883
g20
tp5117
g1
(g6
tRp5118
g21
F1
ss(g750
g753
tp5119
g1
(g6
tRp5120
S'where'
p5121
F1
ss(S'terminating'
p5122
g4842
tp5123
g1
(g6
tRp5124
g1042
F1
ss(g2425
g2332
tp5125
g1
(g6
tRp5126
g2333
F1
ss(g3646
tp5127
g1
(g6
tRp5128
g4356
F1
ss(g339
g342
tp5129
g1
(g6
tRp5130
S'I'
F0.5
sg1380
F0.5
ss(g494
g1765
tp5131
g1
(g6
tRp5132
g549
F1
ss(g2964
g2967
tp5133
g1
(g6
tRp5134
S'Senator'
p5135
F1
ss(g3609
tp5136
g1
(g6
tRp5137
g4976
F0.14302884615384615
sg174
F0.14302884615384615
sg1251
F0.14302884615384615
sg2409
F0.14302884615384615
sg3040
F0.14302884615384615
sg3378
F0.28485576923076927
ss(S'a'
g2775
tp5138
g1
(g6
tRp5139
g2776
F1
ss(g1967
S"there's"
p5140
tp5141
g1
(g6
tRp5142
g2196
F1
ss(g1488
tp5143
g1
(g6
tRp5144
g1489
F1
ss(g3474
tp5145
g1
(g6
tRp5146
g2249
F1
ss(g562
tp5147
g1
(g6
tRp5148
S'on'
p5149
F1
ss(S'proud'
g212
tp5150
g1
(g6
tRp5151
S'be'
p5152
F0.5
sS'have'
p5153
F0.5
ss(g931
g3474
tp5154
g1
(g6
tRp5155
g2249
F1
ss(g1353
g72
tp5156
g1
(g6
tRp5157
g1804
F0.33333333333333331
sg280
F0.33333333333333331
sS'have'
p5158
F0.33333333333333331
ss(S"I'm"
p5159
g2726
tp5160
g1
(g6
tRp5161
S'life'
p5162
F1
ss(g4934
g4937
tp5163
g1
(g6
tRp5164
S'with'
p5165
F1
ss(g546
tp5166
g1
(g6
tRp5167
S''
F0.66249999999999998
sg3824
F0.33750000000000002
ss(g3679
tp5168
g1
(g6
tRp5169
g3025
F1
ss(S'mentioned'
p5170
g2866
tp5171
g1
(g6
tRp5172
g2867
F1
ss(g3661
tp5173
g1
(g6
tRp5174
S'like'
p5175
F1
ss(g2960
tp5176
g1
(g6
tRp5177
g2963
F1
ss(S'them'
p5178
S'as'
p5179
tp5180
g1
(g6
tRp5181
g2856
F1
ss(g1932
g4073
tp5182
g1
(g6
tRp5183
g1060
F1
ss(g1836
g3840
tp5184
g1
(g6
tRp5185
S''
F1
ss(g2602
g2150
tp5186
g1
(g6
tRp5187
g2151
F1
ss(g4479
g4482
tp5188
g1
(g6
tRp5189
g4334
F1
ss(g550
tp5190
g1
(g6
tRp5191
S''
F0.5
sg2277
F0.5
ss(g73
tp5192
g1
(g6
tRp5193
S''
F0.25142857142857145
sg4621
F0.49714285714285716
sg4053
F0.25142857142857145
ss(g1978
g1966
tp5194
g1
(g6
tRp5195
g4218
F1
ss(S'economy'
p5196
g2919
tp5197
g1
(g6
tRp5198
g1961
F1
ss(g347
tp5199
g1
(g6
tRp5200
g3748
F0.25
sS'the'
p5201
F0.25
sg3045
F0.25
sg2164
F0.25
ss(g1626
g10
tp5202
g1
(g6
tRp5203
g2675
F1
ss(g1367
g5196
tp5204
g1
(g6
tRp5205
g2919
F1
ss(g559
g562
tp5206
g1
(g6
tRp5207
g5149
F1
ss(g1074
g1040
tp5208
g1
(g6
tRp5209
g4092
F0.33333333333333331
sS'a'
F0.33333333333333331
sS'exactly'
p5210
F0.33333333333333331
ss(g103
g3971
tp5211
g1
(g6
tRp5212
S'of'
p5213
F0.5
sS'as'
p5214
F0.5
ss(g2423
g2958
tp5215
g1
(g6
tRp5216
g4274
F1
ss(g1849
tp5217
g1
(g6
tRp5218
g1850
F1
ss(g1993
tp5219
g1
(g6
tRp5220
g1994
F0.20061728395061729
sg1068
F0.20061728395061729
sg3665
F0.39814814814814814
sg1691
F0.20061728395061729
ss(S'experience'
p5221
g965
tp5222
g1
(g6
tRp5223
g3360
F1
ss(S'incorrect'
p5224
tp5225
g1
(g6
tRp5226
S'and'
p5227
F1
ss(S'And'
g4120
tp5228
g1
(g6
tRp5229
g540
F1
ss(g2015
g2018
tp5230
g1
(g6
tRp5231
g2717
F1
ss(g1691
g1278
tp5232
g1
(g6
tRp5233
S'years'
p5234
F1
ss(g2186
g381
tp5235
g1
(g6
tRp5236
g384
F1
ss(g4544
tp5237
g1
(g6
tRp5238
S'somebody'
p5239
F1
ss(g394
g2808
tp5240
g1
(g6
tRp5241
g2809
F1
ss(g1909
tp5242
g1
(g6
tRp5243
g1910
F1
ss(g3639
tp5244
g1
(g6
tRp5245
S'a'
F1
ss(g3446
g3449
tp5246
g1
(g6
tRp5247
S'the'
p5248
F1
ss(g1513
g1517
tp5249
g1
(g6
tRp5250
g4531
F1
ss(g4544
g5239
tp5251
g1
(g6
tRp5252
S'for'
p5253
F1
ss(g1183
g1186
tp5254
g1
(g6
tRp5255
S''
F1
ss(g79
g82
tp5256
g1
(g6
tRp5257
g1955
F1
ss(g3209
tp5258
g1
(g6
tRp5259
g3212
F1
ss(g991
g994
tp5260
g1
(g6
tRp5261
g2491
F1
ss(g1038
g4538
tp5262
g1
(g6
tRp5263
S'now'
p5264
F1
ss(g3318
g3585
tp5265
g1
(g6
tRp5266
g3588
F1
ss(g5239
tp5267
g1
(g6
tRp5268
g5253
F1
ss(g4907
tp5269
g1
(g6
tRp5270
S'a'
F1
ss(g3423
tp5271
g1
(g6
tRp5272
S''
F0.49714285714285716
sg2487
F0.25142857142857145
sg1919
F0.25142857142857145
ss(g1000
tp5273
g1
(g6
tRp5274
g1003
F1
ss(g487
tp5275
g1
(g6
tRp5276
g490
F1
ss(g918
g2130
tp5277
g1
(g6
tRp5278
g1871
F1
ss(S"I'll"
p5279
S'tell'
p5280
tp5281
g1
(g6
tRp5282
S'you'
p5283
F1
ss(g1812
g1815
tp5284
g1
(g6
tRp5285
g5007
F1
ss(g734
g1178
tp5286
g1
(g6
tRp5287
g1933
F0.5
sg1746
F0.5
ss(g4511
g3427
tp5288
g1
(g6
tRp5289
g3428
F1
ss(g2083
S'and'
p5290
tp5291
g1
(g6
tRp5292
S'a'
F1
ss(g540
g1603
tp5293
g1
(g6
tRp5294
g4388
F1
ss(g1061
S'happens'
p5295
tp5296
g1
(g6
tRp5297
S'on'
p5298
F1
ss(g2036
g3884
tp5299
g1
(g6
tRp5300
g3885
F0.5
sg1833
F0.5
ss(g329
g711
tp5301
g1
(g6
tRp5302
g712
F1
ss(g1516
tp5303
g1
(g6
tRp5304
g2534
F1
ss(g3640
g4549
tp5305
g1
(g6
tRp5306
g1983
F1
ss(g237
g3609
tp5307
g1
(g6
tRp5308
g3378
F0.5
sg174
F0.5
ss(g1914
g1917
tp5309
g1
(g6
tRp5310
S'a'
F1
ss(g3659
g4568
tp5311
g1
(g6
tRp5312
S'deserves'
p5313
F1
ss(S'make'
p5314
tp5315
g1
(g6
tRp5316
g4296
F0.33285714285714285
sg4611
F0.22214285714285714
sg1092
F0.22214285714285714
sg3992
F0.11142857142857143
sg2789
F0.11142857142857143
ss(g843
g846
tp5317
g1
(g6
tRp5318
S'I'
F1
ss(g4149
tp5319
g1
(g6
tRp5320
S''
F0.59722222222222221
sg4152
F0.20138888888888887
sg2553
F0.20138888888888887
ss(g3957
tp5321
g1
(g6
tRp5322
g1828
F1
ss(g3407
S'a'
tp5323
g1
(g6
tRp5324
g2845
F1
ss(g3612
tp5325
g1
(g6
tRp5326
g3731
F0.33333333333333331
sg3613
F0.33333333333333331
sS'economy'
p5327
F0.33333333333333331
ss(S'It'
S'left'
p5328
tp5329
g1
(g6
tRp5330
S'our'
p5331
F1
ss(g3634
tp5332
g1
(g6
tRp5333
S''
F1
ss(g4468
g372
tp5334
g1
(g6
tRp5335
g373
F1
ss(S'raped,'
p5336
tp5337
g1
(g6
tRp5338
S'that'
p5339
F1
ss(g2641
tp5340
g1
(g6
tRp5341
g2644
F1
ss(g5239
g5253
tp5342
g1
(g6
tRp5343
g1018
F1
ss(S'to'
g2816
tp5344
g1
(g6
tRp5345
g2819
F1
ss(g3885
g3888
tp5346
g1
(g6
tRp5347
S''
F1
ss(g1578
g1581
tp5348
g1
(g6
tRp5349
S'wants'
p5350
F1
ss(g4232
tp5351
g1
(g6
tRp5352
g4235
F0.5
sg3298
F0.5
ss(g1544
g5224
tp5353
g1
(g6
tRp5354
g5227
F1
ss(g760
tp5355
g1
(g6
tRp5356
S'he'
p5357
F1
ss(g3364
S'a'
tp5358
g1
(g6
tRp5359
g3517
F1
ss(g1009
tp5360
g1
(g6
tRp5361
g1010
F1
ss(g265
tp5362
g1
(g6
tRp5363
g266
F1
ss(g3992
tp5364
g1
(g6
tRp5365
g2671
F0.33333333333333331
sS''
F0.33333333333333331
sg3908
F0.33333333333333331
ss(g2955
g4600
tp5366
g1
(g6
tRp5367
S'had'
p5368
F1
ss(g852
S'I'
tp5369
g1
(g6
tRp5370
S'would'
p5371
F1
ss(g214
tp5372
g1
(g6
tRp5373
S'a'
F1
ss(g1594
g1597
tp5374
g1
(g6
tRp5375
g1944
F1
ss(g3655
g330
tp5376
g1
(g6
tRp5377
g333
F1
ss(g1608
tp5378
g1
(g6
tRp5379
g4727
F1
ss(g2088
tp5380
g1
(g6
tRp5381
g2089
F1
ss(S"didn't"
p5382
g91
tp5383
g1
(g6
tRp5384
S''
F1
ss(g3185
g4753
tp5385
g1
(g6
tRp5386
S'what'
p5387
F1
ss(g2482
tp5388
g1
(g6
tRp5389
g1214
F0.10004349717268378
sg3725
F0.19965202261852982
sg2094
F0.10004349717268378
sg4834
F0.10004349717268378
sg3199
F0.10004349717268378
sg3920
F0.10004349717268378
sS'in'
p5390
F0.10004349717268378
sg3099
F0.10004349717268378
sg1697
F0.10004349717268378
ss(g3782
g439
tp5391
g1
(g6
tRp5392
g192
F1
ss(g4600
g5368
tp5393
g1
(g6
tRp5394
S'when'
p5395
F1
ss(g3013
tp5396
g1
(g6
tRp5397
g3014
F0.5
sg3676
F0.5
ss(g563
g566
tp5398
g1
(g6
tRp5399
S'that'
p5400
F1
ss(g4771
g2270
tp5401
g1
(g6
tRp5402
S''
F1
ss(g1494
g1497
tp5403
g1
(g6
tRp5404
g4173
F1
ss(g2277
g2280
tp5405
g1
(g6
tRp5406
S'state'
p5407
F1
ss(g1741
g1744
tp5408
g1
(g6
tRp5409
g2700
F1
ss(g1293
tp5410
g1
(g6
tRp5411
g1294
F1
ss(g4785
g4834
tp5412
g1
(g6
tRp5413
g52
F1
ss(S'open'
p5414
g1992
tp5415
g1
(g6
tRp5416
g4893
F1
ss(S'Sanctions'
p5417
g1582
tp5418
g1
(g6
tRp5419
g1585
F1
ss(g2288
g2291
tp5420
g1
(g6
tRp5421
g3330
F1
ss(g2414
g3319
tp5422
g1
(g6
tRp5423
g3288
F1
ss(g334
tp5424
g1
(g6
tRp5425
g337
F1
ss(g2816
g2819
tp5426
g1
(g6
tRp5427
g404
F1
ss(g1063
tp5428
g1
(g6
tRp5429
g4199
F1
ss(g852
tp5430
g1
(g6
tRp5431
S'I'
F1
ss(S'bill'
p5432
g2553
tp5433
g1
(g6
tRp5434
g2556
F1
ss(g62
tp5435
g1
(g6
tRp5436
S'is,'
p5437
F0.25
sg24
F0.25
sS'in'
p5438
F0.25
sg532
F0.25
ss(S'to'
p5439
g265
tp5440
g1
(g6
tRp5441
g266
F1
ss(g4697
tp5442
g1
(g6
tRp5443
g4293
F0.14302884615384615
sS''
F0.14302884615384615
sg3754
F0.14302884615384615
sg1535
F0.14302884615384615
sg1014
F0.14302884615384615
sg4700
F0.28485576923076927
ss(g1411
g5170
tp5444
g1
(g6
tRp5445
g2866
F1
ss(S'serve'
p5446
tp5447
g1
(g6
tRp5448
S''
F0.5
sg1164
F0.5
ss(S'Americans'
p5449
tp5450
g1
(g6
tRp5451
g4852
F1
ss(S"We've"
g1364
tp5452
g1
(g6
tRp5453
g1367
F1
ss(g3897
tp5454
g1
(g6
tRp5455
S''
F1
ss(g1483
g2073
tp5456
g1
(g6
tRp5457
S''
F1
ss(g4304
tp5458
g1
(g6
tRp5459
g3719
F1
ss(g2168
g2171
tp5460
g1
(g6
tRp5461
S'a'
F1
ss(g1744
tp5462
g1
(g6
tRp5463
g2700
F1
ss(S'a'
g1616
tp5464
g1
(g6
tRp5465
g1372
F0.5
sg1456
F0.5
ss(g450
tp5466
g1
(g6
tRp5467
g1263
F1
ss(g1837
g5336
tp5468
g1
(g6
tRp5469
g5339
F1
ss(S'It'
S'happened'
p5470
tp5471
g1
(g6
tRp5472
g5438
F1
ss(g2596
g2599
tp5473
g1
(g6
tRp5474
S'a'
F1
ss(S'of'
p5475
g2774
tp5476
g1
(g6
tRp5477
S''
F1
ss(g1038
tp5478
g1
(g6
tRp5479
g4538
F1
ss(g1417
g2122
tp5480
g1
(g6
tRp5481
S'not'
p5482
F1
ss(g1140
tp5483
g1
(g6
tRp5484
g3461
F0.25
sg1236
F0.25
sg4166
F0.25
sg1569
F0.25
ss(g2527
g2530
tp5485
g1
(g6
tRp5486
S'my'
p5487
F1
ss(g1055
tp5488
g1
(g6
tRp5489
g2727
F1
ss(g1307
tp5490
g1
(g6
tRp5491
g1308
F1
ss(g2625
tp5492
g1
(g6
tRp5493
g558
F1
ss(g2803
S'to,'
p5494
tp5495
g1
(g6
tRp5496
S'they'
p5497
F1
ss(S'I'
g4975
tp5498
g1
(g6
tRp5499
g4976
F1
ss(g3080
g1470
tp5500
g1
(g6
tRp5501
g1471
F1
ss(S'the'
p5502
S'beginning,'
p5503
tp5504
g1
(g6
tRp5505
g701
F1
ss(g8
tp5506
g1
(g6
tRp5507
g3898
F0.33333333333333331
sg1587
F0.33333333333333331
sg3420
F0.33333333333333331
ss(g1154
g1157
tp5508
g1
(g6
tRp5509
g3445
F1
ss(g2599
S'a'
tp5510
g1
(g6
tRp5511
g596
F1
ss(g2035
g813
tp5512
g1
(g6
tRp5513
S'Jersey'
p5514
F0.5
sg818
F0.5
ss(S'governor,'
p5515
g2003
tp5516
g1
(g6
tRp5517
g795
F1
ss(g1567
g2108
tp5518
g1
(g6
tRp5519
g838
F0.090972222222222218
sg3857
F0.090972222222222218
sg1443
F0.18159722222222219
sg1525
F0.090972222222222218
sg2935
F0.090972222222222218
sg117
F0.090972222222222218
sg890
F0.18159722222222219
sg875
F0.090972222222222218
sg4228
F0.090972222222222218
ss(g3651
tp5520
g1
(g6
tRp5521
g3772
F1
ss(S'she'
p5522
g295
tp5523
g1
(g6
tRp5524
S'the'
p5525
F1
ss(g4506
tp5526
g1
(g6
tRp5527
g3446
F0.33750000000000002
sg1286
F0.66249999999999998
ss(g3630
tp5528
g1
(g6
tRp5529
S'on'
p5530
F1
ss(g2505
tp5531
g1
(g6
tRp5532
g2217
F1
ss(g368
g371
tp5533
g1
(g6
tRp5534
g4328
F1
ss(g4459
g3494
tp5535
g1
(g6
tRp5536
g3495
F1
ss(g2440
tp5537
g1
(g6
tRp5538
g2443
F1
ss(S'Every'
g3672
tp5539
g1
(g6
tRp5540
g3675
F1
ss(g2181
S'a'
tp5541
g1
(g6
tRp5542
g1390
F1
ss(g179
g183
tp5543
g1
(g6
tRp5544
g4835
F1
ss(g668
g671
tp5545
g1
(g6
tRp5546
S'out'
p5547
F1
ss(g521
tp5548
g1
(g6
tRp5549
g4468
F0.11111111111111113
sg1975
F0.11111111111111113
sg1777
F0.11111111111111113
sg2947
F0.11111111111111113
sg2186
F0.11111111111111113
sg1701
F0.11111111111111113
sg2260
F0.11111111111111113
sg1576
F0.11111111111111113
sg1349
F0.11111111111111113
ss(g3003
g4215
tp5550
g1
(g6
tRp5551
g1230
F1
ss(g1349
tp5552
g1
(g6
tRp5553
g5368
F0.10004349717268378
sg799
F0.19965202261852982
sg1381
F0.10004349717268378
sg4920
F0.10004349717268378
sg5313
F0.10004349717268378
sg1350
F0.10004349717268378
sg5170
F0.10004349717268378
sg880
F0.10004349717268378
sg508
F0.10004349717268378
ss(g3824
tp5554
g1
(g6
tRp5555
g3891
F1
ss(g1503
tp5556
g1
(g6
tRp5557
g1504
F0.33333333333333331
sg5122
F0.33333333333333331
sS'my'
p5558
F0.33333333333333331
ss(g4296
tp5559
g1
(g6
tRp5560
g1564
F0.37416904083570751
sg3550
F0.12535612535612536
sS'decision'
p5561
F0.12535612535612536
sg1657
F0.12535612535612536
sS'decisions'
p5562
F0.24976258309591642
ss(g3787
g4634
tp5563
g1
(g6
tRp5564
S'in'
p5565
F1
ss(g3199
g3203
tp5566
g1
(g6
tRp5567
g11
F1
ss(g391
tp5568
g1
(g6
tRp5569
g394
F1
ss(g5437
g4405
tp5570
g1
(g6
tRp5571
g3545
F1
ss(g1678
S'she'
p5572
tp5573
g1
(g6
tRp5574
g297
F1
ss(g4130
S'I'
tp5575
g1
(g6
tRp5576
g4243
F1
ss(g252
tp5577
g1
(g6
tRp5578
g253
F1
ss(g1992
g4893
tp5579
g1
(g6
tRp5580
g2101
F1
ss(g1410
g4162
tp5581
g1
(g6
tRp5582
g3816
F1
ss(S'The'
S'68'
p5583
tp5584
g1
(g6
tRp5585
g2665
F1
ss(g3122
g4034
tp5586
g1
(g6
tRp5587
g4035
F1
ss(S'doing'
g1354
tp5588
g1
(g6
tRp5589
g1355
F1
ss(g998
S'four'
p5590
tp5591
g1
(g6
tRp5592
g4251
F1
ss(g86
g4847
tp5593
g1
(g6
tRp5594
g3789
F1
ss(S'can'
p5595
S'do'
p5596
tp5597
g1
(g6
tRp5598
S''
F1
ss(S'life'
g1607
tp5599
g1
(g6
tRp5600
g2985
F1
ss(g4976
g4979
tp5601
g1
(g6
tRp5602
g3570
F1
ss(g2834
g1163
tp5603
g1
(g6
tRp5604
g1164
F1
ss(g5314
g4611
tp5605
g1
(g6
tRp5606
g4506
F1
ss(g1718
tp5607
g1
(g6
tRp5608
g2722
F0.5
sS'one'
p5609
F0.5
ss(g2241
g1405
tp5610
g1
(g6
tRp5611
g5502
F1
ss(g317
tp5612
g1
(g6
tRp5613
g3793
F0.5
sg320
F0.5
ss(g1578
tp5614
g1
(g6
tRp5615
g1581
F1
ss(S'the'
p5616
g3253
tp5617
g1
(g6
tRp5618
g1624
F0.5
sg1627
F0.5
ss(g629
g312
tp5619
g1
(g6
tRp5620
S'mandatory,'
p5621
F1
ss(g3632
tp5622
g1
(g6
tRp5623
S'David'
p5624
F1
ss(g718
g4872
tp5625
g1
(g6
tRp5626
g182
F1
ss(g1511
g1608
tp5627
g1
(g6
tRp5628
g4727
F1
ss(g1722
tp5629
g1
(g6
tRp5630
g3262
F1
ss(g937
g806
tp5631
g1
(g6
tRp5632
g63
F1
ss(g1936
g1939
tp5633
g1
(g6
tRp5634
g64
F1
ss(S'community'
p5635
tp5636
g1
(g6
tRp5637
g4532
F1
ss(g1961
g1368
tp5638
g1
(g6
tRp5639
g3129
F1
ss(g2083
tp5640
g1
(g6
tRp5641
g5290
F0.5
sS'is'
p5642
F0.5
ss(g917
tp5643
g1
(g6
tRp5644
g1628
F1
ss(g2007
S'I'
tp5645
g1
(g6
tRp5646
g4975
F1
ss(g2533
tp5647
g1
(g6
tRp5648
S''
F0.038461898783983803
sg3702
F0.019233291487886675
sg612
F0.019233291487886675
sg3735
F0.019233291487886675
sg3094
F0.019233291487886675
sg3069
F0.17306214985666368
sg2495
F0.057690506080080924
sg3175
F0.019233291487886675
sg1872
F0.019233291487886675
sg2332
F0.019233291487886675
sg672
F0.019233291487886675
sg2592
F0.019233291487886675
sg3612
F0.019233291487886675
sg4024
F0.019233291487886675
sg3239
F0.019233291487886675
sg4533
F0.019233291487886675
sg1005
F0.019233291487886675
sS'a'
F0.038461898783983803
sg5590
F0.019233291487886675
sg2652
F0.076919113376178058
sg19
F0.019233291487886675
sg2108
F0.21151936444885791
sg2670
F0.076919113376178058
sg2192
F0.019233291487886675
ss(g238
tp5649
g1
(g6
tRp5650
g239
F1
ss(S'state'
p5651
g1624
tp5652
g1
(g6
tRp5653
g1518
F1
ss(g3346
g3349
tp5654
g1
(g6
tRp5655
S'a'
F1
ss(g1711
tp5656
g1
(g6
tRp5657
S''
F0.19999999999999998
sg3803
F0.19999999999999998
sg2952
F0.19999999999999998
sg5449
F0.19999999999999998
sg3133
F0.19999999999999998
ss(g3775
g1061
tp5658
g1
(g6
tRp5659
g5295
F1
ss(g4190
g5414
tp5660
g1
(g6
tRp5661
g1992
F1
ss(g479
g2482
tp5662
g1
(g6
tRp5663
g2094
F0.33750000000000002
sg3725
F0.66249999999999998
ss(g566
g5400
tp5664
g1
(g6
tRp5665
S'is'
p5666
F1
ss(g3205
tp5667
g1
(g6
tRp5668
S''
F0.33333333333333331
sg373
F0.33333333333333331
sg3024
F0.33333333333333331
ss(S'When'
g165
tp5669
g1
(g6
tRp5670
g4264
F1
ss(S'and'
S'I'
tp5671
g1
(g6
tRp5672
g4100
F0.5
sg1218
F0.5
ss(g1816
g1819
tp5673
g1
(g6
tRp5674
S'I'
F1
ss(g4331
S'to'
p5675
tp5676
g1
(g6
tRp5677
g2506
F1
ss(g2390
g1862
tp5678
g1
(g6
tRp5679
g1863
F0.5
sg3995
F0.5
ss(g74
tp5680
g1
(g6
tRp5681
g75
F0.16697588126159554
sS''
F0.16697588126159554
sg597
F0.33209647495361783
sg1612
F0.16697588126159554
sg1128
F0.16697588126159554
ss(g5122
tp5682
g1
(g6
tRp5683
g4842
F1
ss(S'of'
p5684
g4335
tp5685
g1
(g6
tRp5686
S'taking'
p5687
F1
ss(g2232
g314
tp5688
g1
(g6
tRp5689
S''
F1
ss(g4920
g695
tp5690
g1
(g6
tRp5691
S'the'
p5692
F0.25142857142857145
sg696
F0.25142857142857145
sg1277
F0.49714285714285716
ss(g1404
g83
tp5693
g1
(g6
tRp5694
g3690
F1
ss(g788
g791
tp5695
g1
(g6
tRp5696
g4450
F1
ss(g3307
g2292
tp5697
g1
(g6
tRp5698
g2293
F1
ss(g1342
S'State'
p5699
tp5700
g1
(g6
tRp5701
S'of'
p5702
F1
ss(g3639
S'a'
tp5703
g1
(g6
tRp5704
g3520
F1
ss(g4067
S'I'
tp5705
g1
(g6
tRp5706
S'would'
p5707
F1
ss(S'States'
p5708
g1014
tp5709
g1
(g6
tRp5710
g1017
F1
ss(g2363
tp5711
g1
(g6
tRp5712
g2364
F1
ss(g2244
tp5713
g1
(g6
tRp5714
S''
F1
ss(g2628
g2631
tp5715
g1
(g6
tRp5716
S''
F1
ss(g2328
tp5717
g1
(g6
tRp5718
g1649
F1
ss(g3102
tp5719
g1
(g6
tRp5720
g5417
F1
ss(g2043
g2047
tp5721
g1
(g6
tRp5722
g2281
F1
ss(g5313
tp5723
g1
(g6
tRp5724
g3797
F1
ss(g3146
g3149
tp5725
g1
(g6
tRp5726
S'the'
p5727
F1
ss(g3650
S'New'
p5728
tp5729
g1
(g6
tRp5730
S'Jersey'
p5731
F1
ss(g659
tp5732
g1
(g6
tRp5733
g660
F1
ss(g2735
g1298
tp5734
g1
(g6
tRp5735
g252
F1
ss(g4339
S'they'
p5736
tp5737
g1
(g6
tRp5738
g475
F1
ss(S'has'
p5739
g1840
tp5740
g1
(g6
tRp5741
g5437
F1
ss(g3102
g5417
tp5742
g1
(g6
tRp5743
g1582
F1
ss(g1625
g308
tp5744
g1
(g6
tRp5745
g311
F0.5
sg313
F0.5
ss(g1082
tp5746
g1
(g6
tRp5747
g5031
F0.5
sg1083
F0.5
ss(g4517
g3398
tp5748
g1
(g6
tRp5749
g3399
F1
ss(S'I'
g2989
tp5750
g1
(g6
tRp5751
g5037
F1
ss(g2747
g2059
tp5752
g1
(g6
tRp5753
S'I'
F1
ss(g1750
g48
tp5754
g1
(g6
tRp5755
g5056
F1
ss(g5179
g2856
tp5756
g1
(g6
tRp5757
g2859
F1
ss(g3638
g3730
tp5758
g1
(g6
tRp5759
S''
F1
ss(g311
g1951
tp5760
g1
(g6
tRp5761
g2686
F1
ss(g478
g4515
tp5762
g1
(g6
tRp5763
S''
F1
ss(S'I'
g2062
tp5764
g1
(g6
tRp5765
g4425
F1
ss(g2301
g3813
tp5766
g1
(g6
tRp5767
g5475
F1
ss(g3339
tp5768
g1
(g6
tRp5769
g3056
F0.08357988165680473
sg581
F0.49963017751479288
sg3342
F0.08357988165680473
sg2125
F0.33321005917159763
ss(g69
g527
tp5770
g1
(g6
tRp5771
g528
F1
ss(g3874
g5390
tp5772
g1
(g6
tRp5773
g4024
F1
ss(g2557
tp5774
g1
(g6
tRp5775
g2560
F1
ss(S'will'
p5776
g3040
tp5777
g1
(g6
tRp5778
g1516
F1
ss(g1157
g3445
tp5779
g1
(g6
tRp5780
g4605
F0.5
sg1974
F0.5
ss(g1149
S'need'
p5781
tp5782
g1
(g6
tRp5783
g1318
F1
ss(g4662
tp5784
g1
(g6
tRp5785
S''
F0.33333333333333331
sS"doesn't"
p5786
F0.33333333333333331
sg1457
F0.33333333333333331
ss(g2462
S'I'
tp5787
g1
(g6
tRp5788
g504
F1
ss(g2872
g843
tp5789
g1
(g6
tRp5790
g846
F1
ss(S'that'
p5791
g1039
tp5792
g1
(g6
tRp5793
g1856
F1
ss(g3627
g1064
tp5794
g1
(g6
tRp5795
S''
F1
ss(g4680
tp5796
g1
(g6
tRp5797
S''
F0.5
sg3715
F0.5
ss(S'for'
p5798
g1280
tp5799
g1
(g6
tRp5800
g4002
F1
ss(g10
tp5801
g1
(g6
tRp5802
g2675
F1
ss(g3531
g3857
tp5803
g1
(g6
tRp5804
S''
F1
ss(g1098
tp5805
g1
(g6
tRp5806
g1101
F1
ss(g584
tp5807
g1
(g6
tRp5808
g2948
F0.058829031051253269
sg4099
F0.058829031051253269
sg2883
F0.058829031051253269
sS'can'
p5809
F0.11756453423120089
sg2302
F0.058829031051253269
sg4939
F0.058829031051253269
sg2607
F0.058829031051253269
sg442
F0.058829031051253269
sg1997
F0.058829031051253269
sg1740
F0.058829031051253269
sg2041
F0.058829031051253269
sg3364
F0.058829031051253269
sg2287
F0.058829031051253269
sg2378
F0.058829031051253269
sS"I'm"
p5810
F0.058829031051253269
sg4907
F0.058829031051253269
ss(g5470
g5438
tp5811
g1
(g6
tRp5812
S'my'
p5813
F1
ss(g5642
S'on'
p5814
tp5815
g1
(g6
tRp5816
S'this'
p5817
F1
ss(g4367
S'I'
tp5818
g1
(g6
tRp5819
S'think'
p5820
F1
ss(g3578
tp5821
g1
(g6
tRp5822
S'speech'
p5823
F1
ss(S'walked'
p5824
tp5825
g1
(g6
tRp5826
S'in'
p5827
F1
ss(g4317
g115
tp5828
g1
(g6
tRp5829
g3744
F1
ss(S'a'
g2083
tp5830
g1
(g6
tRp5831
g5290
F1
ss(g4332
g166
tp5832
g1
(g6
tRp5833
g169
F1
ss(g1665
tp5834
g1
(g6
tRp5835
S''
F0.5
sg775
F0.5
ss(g839
tp5836
g1
(g6
tRp5837
g842
F1
ss(g2414
tp5838
g1
(g6
tRp5839
g3319
F1
ss(g4489
g3311
tp5840
g1
(g6
tRp5841
g50
F1
ss(g4635
g2420
tp5842
g1
(g6
tRp5843
g2423
F1
ss(g632
tp5844
g1
(g6
tRp5845
g635
F1
ss(g1845
g1848
tp5846
g1
(g6
tRp5847
g5635
F1
ss(g1800
tp5848
g1
(g6
tRp5849
S''
F1
ss(S"I'll"
g2363
tp5850
g1
(g6
tRp5851
g2364
F1
ss(g677
tp5852
g1
(g6
tRp5853
g680
F1
ss(g760
g5357
tp5854
g1
(g6
tRp5855
g4920
F1
ss(g39
tp5856
g1
(g6
tRp5857
g256
F1
ss(g5621
tp5858
g1
(g6
tRp5859
g1768
F1
ss(g5702
g1591
tp5860
g1
(g6
tRp5861
S''
F1
ss(g1780
tp5862
g1
(g6
tRp5863
g997
F0.33333333333333331
sg1781
F0.33333333333333331
sg998
F0.33333333333333331
ss(g1517
g4531
tp5864
g1
(g6
tRp5865
S''
F1
ss(g3558
tp5866
g1
(g6
tRp5867
g3561
F1
ss(g4275
g65
tp5868
g1
(g6
tRp5869
g66
F1
ss(g297
S'be'
p5870
tp5871
g1
(g6
tRp5872
g3080
F0.33333333333333331
sg1446
F0.33333333333333331
sg3103
F0.33333333333333331
ss(g1252
tp5873
g1
(g6
tRp5874
g1863
F0.20061728395061729
sg1253
F0.39814814814814814
sg3995
F0.20061728395061729
sg3816
F0.20061728395061729
ss(g1091
g4001
tp5875
g1
(g6
tRp5876
S''
F1
ss(g156
g159
tp5877
g1
(g6
tRp5878
g491
F1
ss(g2670
g1619
tp5879
g1
(g6
tRp5880
S''
F0.33209647495361788
sS'to'
p5881
F0.16697588126159557
sg1622
F0.16697588126159557
sg1623
F0.16697588126159557
sg1626
F0.16697588126159557
ss(g4208
g967
tp5882
g1
(g6
tRp5883
S'matters'
p5884
F1
ss(g5494
g5497
tp5885
g1
(g6
tRp5886
g5595
F1
ss(g1960
tp5887
g1
(g6
tRp5888
g3182
F1
ss(S'prison'
p5889
S'in'
p5890
tp5891
g1
(g6
tRp5892
S'New'
p5893
F1
ss(g4694
tp5894
g1
(g6
tRp5895
g1749
F1
ss(g4429
g5446
tp5896
g1
(g6
tRp5897
S''
F1
ss(g3414
S'me'
p5898
tp5899
g1
(g6
tRp5900
g4117
F1
ss(g2541
g2462
tp5901
g1
(g6
tRp5902
S'I'
F1
ss(S'failed'
p5903
g1372
tp5904
g1
(g6
tRp5905
g1373
F1
ss(g312
g5621
tp5906
g1
(g6
tRp5907
g1768
F1
ss(g5881
S'build'
p5908
tp5909
g1
(g6
tRp5910
g3712
F1
ss(g2165
tp5911
g1
(g6
tRp5912
g170
F1
ss(g3203
tp5913
g1
(g6
tRp5914
g11
F1
ss(g913
g916
tp5915
g1
(g6
tRp5916
g3061
F1
ss(g742
g745
tp5917
g1
(g6
tRp5918
g206
F1
ss(S'United'
g503
tp5919
g1
(g6
tRp5920
g1183
F0.5
sg3284
F0.5
ss(g3080
tp5921
g1
(g6
tRp5922
g1470
F1
ss(g2809
g2812
tp5923
g1
(g6
tRp5924
S'even'
p5925
F0.5
sg4420
F0.5
ss(g1627
g3363
tp5926
g1
(g6
tRp5927
g3364
F1
ss(g4028
g5086
tp5928
g1
(g6
tRp5929
g1513
F1
ss(g1657
tp5930
g1
(g6
tRp5931
g1658
F1
ss(S'You'
S'make'
p5932
tp5933
g1
(g6
tRp5934
S'these'
p5935
F1
ss(S'3'
tp5936
g1
(g6
tRp5937
g2383
F1
ss(g2065
tp5938
g1
(g6
tRp5939
S'strong'
p5940
F1
ss(g5153
g1439
tp5941
g1
(g6
tRp5942
g2820
F1
ss(g1061
tp5943
g1
(g6
tRp5944
g5295
F1
ss(g908
g4401
tp5945
g1
(g6
tRp5946
g5609
F1
ss(g347
g5201
tp5947
g1
(g6
tRp5948
g2483
F1
ss(g5283
S'something'
p5949
tp5950
g1
(g6
tRp5951
S''
F1
ss(g4881
g4884
tp5952
g1
(g6
tRp5953
g59
F1
ss(g870
tp5954
g1
(g6
tRp5955
g4264
F0.05883487654320986
sS''
F0.11757330246913579
sg4979
F0.05883487654320986
sS'that'
p5956
F0.05883487654320986
sS'I'
F0.05883487654320986
sg1323
F0.05883487654320986
sg1324
F0.05883487654320986
sS'it'
p5957
F0.05883487654320986
sg1322
F0.05883487654320986
sg1325
F0.05883487654320986
sg16
F0.05883487654320986
sg1154
F0.11757330246913579
sg531
F0.05883487654320986
sg1326
F0.05883487654320986
sg1327
F0.05883487654320986
ss(g766
tp5958
g1
(g6
tRp5959
g769
F1
ss(g2542
g204
tp5960
g1
(g6
tRp5961
S'are'
p5962
F1
ss(g3298
g1702
tp5963
g1
(g6
tRp5964
S''
F1
ss(g3417
g3120
tp5965
g1
(g6
tRp5966
S'--'
p5967
F1
ss(g1848
g5635
tp5968
g1
(g6
tRp5969
g4532
F1
ss(g5967
g5810
tp5970
g1
(g6
tRp5971
S'pro-life'
p5972
F1
ss(g4662
g5786
tp5973
g1
(g6
tRp5974
g4342
F1
ss(S'She'
g4607
tp5975
g1
(g6
tRp5976
g4610
F1
ss(g3942
g1059
tp5977
g1
(g6
tRp5978
S''
F1
ss(g5121
tp5979
g1
(g6
tRp5980
S'you'
p5981
F0.49714285714285716
sg5086
F0.25142857142857145
sS'it'
p5982
F0.25142857142857145
ss(g1253
g1256
tp5983
g1
(g6
tRp5984
g1729
F1
ss(g452
g455
tp5985
g1
(g6
tRp5986
g4577
F1
ss(g4024
tp5987
g1
(g6
tRp5988
g4025
F0.5
sg1159
F0.5
ss(g2367
g3446
tp5989
g1
(g6
tRp5990
g3449
F1
ss(g1987
g3122
tp5991
g1
(g6
tRp5992
g4034
F1
ss(g1162
g4468
tp5993
g1
(g6
tRp5994
g372
F1
ss(g1323
g1452
tp5995
g1
(g6
tRp5996
g2168
F0.5
sg1554
F0.5
ss(g3473
g1967
tp5997
g1
(g6
tRp5998
g5140
F1
ss(g959
g900
tp5999
g1
(g6
tRp6000
S'a'
F1
ss(g1768
g1771
tp6001
g1
(g6
tRp6002
g4680
F1
ss(g3122
tp6003
g1
(g6
tRp6004
g4034
F1
ss(g4577
tp6005
g1
(g6
tRp6006
S''
F1
ss(S'be'
p6007
g4420
tp6008
g1
(g6
tRp6009
g3132
F1
ss(S'need'
p6010
S'a'
tp6011
g1
(g6
tRp6012
g3519
F1
ss(g5106
g2287
tp6013
g1
(g6
tRp6014
g2288
F1
ss(g2944
g2947
tp6015
g1
(g6
tRp6016
S'does'
p6017
F1
ss(g490
g1116
tp6018
g1
(g6
tRp6019
g3841
F1
ss(g1997
g2260
tp6020
g1
(g6
tRp6021
g2261
F1
ss(g472
tp6022
g1
(g6
tRp6023
S''
F1
ss(S'The'
S'question'
p6024
tp6025
g1
(g6
tRp6026
g757
F1
ss(g1744
g2700
tp6027
g1
(g6
tRp6028
g1349
F1
ss(S'do'
p6029
g5956
tp6030
g1
(g6
tRp6031
S''
F1
ss(g2808
tp6032
g1
(g6
tRp6033
g2809
F1
ss(S'to'
g352
tp6034
g1
(g6
tRp6035
g2578
F0.33333333333333331
sg353
F0.33333333333333331
sg2150
F0.33333333333333331
ss(g2676
g1488
tp6036
g1
(g6
tRp6037
g1489
F1
ss(g4937
g5165
tp6038
g1
(g6
tRp6039
g3581
F0.5
sg5178
F0.5
ss(g648
tp6040
g1
(g6
tRp6041
g94
F0.25
sg2122
F0.25
sg3695
F0.25
sg927
F0.25
ss(g5530
g4943
tp6042
g1
(g6
tRp6043
g539
F0.5
sg546
F0.5
ss(g1034
g467
tp6044
g1
(g6
tRp6045
g479
F1
ss(g1027
g1030
tp6046
g1
(g6
tRp6047
g1971
F1
ss(g73
g4621
tp6048
g1
(g6
tRp6049
g25
F0.5
sg913
F0.5
ss(g4697
g4700
tp6050
g1
(g6
tRp6051
g1031
F0.5
sg3204
F0.5
ss(g2757
g2760
tp6052
g1
(g6
tRp6053
g3528
F1
ss(g1231
g1043
tp6054
g1
(g6
tRp6055
S'your'
p6056
F1
ss(g2494
g2815
tp6057
g1
(g6
tRp6058
S'pro-life'
p6059
F0.16697588126159554
sS'country'
p6060
F0.16697588126159554
sg5699
F0.16697588126159554
sg4520
F0.33209647495361783
sg1167
F0.16697588126159554
ss(g4333
tp6061
g1
(g6
tRp6062
S'their'
p6063
F1
ss(g3662
g4616
tp6064
g1
(g6
tRp6065
g3317
F1
ss(S'streets'
p6066
tp6067
g1
(g6
tRp6068
S'of'
p6069
F1
ss(g2409
g4064
tp6070
g1
(g6
tRp6071
S'United'
p6072
F1
ss(g435
tp6073
g1
(g6
tRp6074
g436
F1
ss(S'anything'
p6075
g4606
tp6076
g1
(g6
tRp6077
S'they'
p6078
F1
ss(g137
tp6079
g1
(g6
tRp6080
g138
F1
ss(g2976
g2849
tp6081
g1
(g6
tRp6082
g131
F1
ss(g3641
tp6083
g1
(g6
tRp6084
S'of'
p6085
F1
ss(S"I'll"
S'say'
p6086
tp6087
g1
(g6
tRp6088
g2079
F1
ss(g3880
g4449
tp6089
g1
(g6
tRp6090
g4479
F1
ss(S'on'
p6091
g3950
tp6092
g1
(g6
tRp6093
g2964
F0.33333333333333331
sg4661
F0.33333333333333331
sg4663
F0.33333333333333331
ss(g3642
tp6094
g1
(g6
tRp6095
S'a'
F0.33750000000000002
sS'done'
p6096
F0.66249999999999998
ss(g1581
g5350
tp6097
g1
(g6
tRp6098
S'to'
p6099
F1
ss(g2657
tp6100
g1
(g6
tRp6101
g2660
F1
ss(g4405
g3545
tp6102
g1
(g6
tRp6103
g920
F1
ss(g2767
g1905
tp6104
g1
(g6
tRp6105
g1908
F1
ss(g5621
g1768
tp6106
g1
(g6
tRp6107
g1771
F1
ss(g864
g3759
tp6108
g1
(g6
tRp6109
S''
F1
ss(g2254
tp6110
g1
(g6
tRp6111
S''
F0.16666666666666666
sg2259
F0.16666666666666666
sg2258
F0.16666666666666666
sg2257
F0.16666666666666666
sg2838
F0.16666666666666666
sg79
F0.16666666666666666
ss(g1223
g79
tp6112
g1
(g6
tRp6113
g82
F1
ss(g4149
g4152
tp6114
g1
(g6
tRp6115
S'I'
F1
ss(g1125
g367
tp6116
g1
(g6
tRp6117
g368
F1
ss(g1760
g3318
tp6118
g1
(g6
tRp6119
g3585
F1
ss(g4949
tp6120
g1
(g6
tRp6121
S''
F1
ss(g2940
g1179
tp6122
g1
(g6
tRp6123
g1180
F1
ss(g3891
tp6124
g1
(g6
tRp6125
g4900
F1
ss(g3835
tp6126
g1
(g6
tRp6127
g4047
F1
ss(g747
g486
tp6128
g1
(g6
tRp6129
g487
F1
ss(g3295
g5889
tp6130
g1
(g6
tRp6131
g5890
F1
ss(g2230
g430
tp6132
g1
(g6
tRp6133
g433
F0.5
sg434
F0.5
ss(g1117
tp6134
g1
(g6
tRp6135
S''
F1
ss(S'is,'
g2986
tp6136
g1
(g6
tRp6137
S'I'
F1
ss(g4939
g4942
tp6138
g1
(g6
tRp6139
g602
F1
ss(S'to'
p6140
g2413
tp6141
g1
(g6
tRp6142
g2666
F1
ss(S"didn't"
g803
tp6143
g1
(g6
tRp6144
S'for'
p6145
F1
ss(S'a'
g750
tp6146
g1
(g6
tRp6147
g753
F1
ss(g1326
S'their'
p6148
tp6149
g1
(g6
tRp6150
g3345
F1
ss(g601
tp6151
g1
(g6
tRp6152
g827
F1
ss(g1585
g1053
tp6153
g1
(g6
tRp6154
g5446
F0.33333333333333331
sg5066
F0.33333333333333331
sg2453
F0.33333333333333331
ss(g4420
tp6155
g1
(g6
tRp6156
g3132
F1
ss(g362
tp6157
g1
(g6
tRp6158
g363
F1
ss(g4724
g2935
tp6159
g1
(g6
tRp6160
g2371
F1
ss(g5336
g5339
tp6161
g1
(g6
tRp6162
S'is'
p6163
F1
ss(g5031
g770
tp6164
g1
(g6
tRp6165
g771
F1
ss(g944
tp6166
g1
(g6
tRp6167
g945
F1
ss(S'The'
S'memorized'
p6168
tp6169
g1
(g6
tRp6170
S'25-second'
p6171
F1
ss(g2112
g3065
tp6172
g1
(g6
tRp6173
g779
F1
ss(g1989
g2941
tp6174
g1
(g6
tRp6175
S''
F0.66249999999999998
sg1354
F0.33750000000000002
ss(g848
g851
tp6176
g1
(g6
tRp6177
S'snow'
p6178
F1
ss(g5140
g2196
tp6179
g1
(g6
tRp6180
g2197
F1
ss(g1400
g1394
tp6181
g1
(g6
tRp6182
g1395
F1
ss(g3426
tp6183
g1
(g6
tRp6184
S'a'
F0.7466666666666667
sg1376
F0.2533333333333333
ss(S'to'
g2803
tp6185
g1
(g6
tRp6186
g5494
F1
ss(g601
g827
tp6187
g1
(g6
tRp6188
S'a'
F1
ss(g3629
tp6189
g1
(g6
tRp6190
g980
F1
ss(g4979
g3570
tp6191
g1
(g6
tRp6192
S''
F1
ss(g2882
g4142
tp6193
g1
(g6
tRp6194
S'Obama'
p6195
F1
ss(S"won't"
p6196
tp6197
g1
(g6
tRp6198
g2572
F1
ss(g2151
g2154
tp6199
g1
(g6
tRp6200
g3715
F1
ss(S'of'
p6201
g1027
tp6202
g1
(g6
tRp6203
g1030
F1
ss(g1044
g3089
tp6204
g1
(g6
tRp6205
g3090
F1
ss(g761
tp6206
g1
(g6
tRp6207
g762
F1
ss(g2707
tp6208
g1
(g6
tRp6209
g5791
F1
ss(g1959
g2523
tp6210
g1
(g6
tRp6211
S'of'
p6212
F1
ss(S'I'
g3707
tp6213
g1
(g6
tRp6214
S'a'
F1
ss(g3099
g3102
tp6215
g1
(g6
tRp6216
g5417
F1
ss(S'I'
S'drop'
p6217
tp6218
g1
(g6
tRp6219
S''
F1
ss(g2833
tp6220
g1
(g6
tRp6221
g2834
F1
ss(g1797
tp6222
g1
(g6
tRp6223
g1800
F1
ss(g5417
tp6224
g1
(g6
tRp6225
g1582
F1
ss(g1624
tp6226
g1
(g6
tRp6227
g1518
F1
ss(S'You'
g2975
tp6228
g1
(g6
tRp6229
g2976
F1
ss(S'And'
g5279
tp6230
g1
(g6
tRp6231
g5280
F1
ss(g230
g233
tp6232
g1
(g6
tRp6233
g3274
F1
ss(g3369
g3372
tp6234
g1
(g6
tRp6235
g4254
F1
ss(g5503
g701
tp6236
g1
(g6
tRp6237
g702
F1
ss(g2117
S'in'
p6238
tp6239
g1
(g6
tRp6240
g889
F1
ss(g1829
g1832
tp6241
g1
(g6
tRp6242
g338
F0.5
sg4600
F0.5
ss(g205
g62
tp6243
g1
(g6
tRp6244
g532
F1
ss(g5152
g2897
tp6245
g1
(g6
tRp6246
S'this'
p6247
F1
ss(g160
g163
tp6248
g1
(g6
tRp6249
g4005
F1
ss(g4884
g59
tp6250
g1
(g6
tRp6251
g4143
F1
ss(S'of'
p6252
g4331
tp6253
g1
(g6
tRp6254
g5675
F0.5
sS'they'
p6255
F0.5
ss(S'We'
g6196
tp6256
g1
(g6
tRp6257
g2572
F1
ss(g5823
S'where'
p6258
tp6259
g1
(g6
tRp6260
S'you'
p6261
F1
ss(g2782
tp6262
g1
(g6
tRp6263
g2783
F1
ss(S'I'
S'like'
p6264
tp6265
g1
(g6
tRp6266
g3943
F0.5
sg3474
F0.5
ss(g4218
g1957
tp6267
g1
(g6
tRp6268
S'need'
p6269
F0.25
sg5776
F0.25
sS'have'
p6270
F0.25
sg1000
F0.25
ss(S'in'
g3612
tp6271
g1
(g6
tRp6272
g3613
F1
ss(g2867
g1970
tp6273
g1
(g6
tRp6274
g3171
F1
ss(g3253
g1627
tp6275
g1
(g6
tRp6276
g3363
F1
ss(g320
g1282
tp6277
g1
(g6
tRp6278
g3410
F1
ss(S'This'
g4890
tp6279
g1
(g6
tRp6280
g3525
F1
ss(g1171
S'a'
tp6281
g1
(g6
tRp6282
g2180
F1
ss(S'the'
p6283
S'bill'
p6284
tp6285
g1
(g6
tRp6286
S''
F1
ss(g625
g2397
tp6287
g1
(g6
tRp6288
S''
F1
ss(S'a'
g1665
tp6289
g1
(g6
tRp6290
g775
F1
ss(S'They'
g1153
tp6291
g1
(g6
tRp6292
g1154
F1
ss(g817
tp6293
g1
(g6
tRp6294
S'I'
F1
ss(g896
g899
tp6295
g1
(g6
tRp6296
S'the'
p6297
F1
ss(g1125
tp6298
g1
(g6
tRp6299
g367
F1
ss(g385
tp6300
g1
(g6
tRp6301
S'I'
F0.25
sg386
F0.25
sg2269
F0.25
sg2728
F0.25
ss(g1541
g1544
tp6302
g1
(g6
tRp6303
g5224
F1
ss(g321
tp6304
g1
(g6
tRp6305
g322
F1
ss(g2114
g2117
tp6306
g1
(g6
tRp6307
g6238
F1
ss(g973
g976
tp6308
g1
(g6
tRp6309
S''
F0.5
sg2006
F0.5
ss(g1958
g730
tp6310
g1
(g6
tRp6311
g734
F1
ss(g3061
g3064
tp6312
g1
(g6
tRp6313
g289
F1
ss(S'Because'
g3312
tp6314
g1
(g6
tRp6315
g2725
F1
ss(g5280
g5283
tp6316
g1
(g6
tRp6317
g5949
F0.19999999999999998
sg4130
F0.19999999999999998
sS'what'
p6318
F0.19999999999999998
sg2232
F0.19999999999999998
sg4014
F0.19999999999999998
ss(g2202
g765
tp6319
g1
(g6
tRp6320
g766
F1
ss(g3803
tp6321
g1
(g6
tRp6322
S''
F1
ss(S'I'
g2065
tp6323
g1
(g6
tRp6324
g5940
F1
ss(g6086
g2079
tp6325
g1
(g6
tRp6326
g547
F1
ss(S'last'
p6327
g1602
tp6328
g1
(g6
tRp6329
S'is'
p6330
F1
ss(g521
g1777
tp6331
g1
(g6
tRp6332
g3280
F1
ss(g1951
g2686
tp6333
g1
(g6
tRp6334
g1674
F1
ss(g1600
g2691
tp6335
g1
(g6
tRp6336
g2761
F0.5
sS'as'
p6337
F0.5
ss(g1841
g1844
tp6338
g1
(g6
tRp6339
g5044
F1
ss(g3349
S'a'
tp6340
g1
(g6
tRp6341
g641
F0.33333333333333331
sS'United'
p6342
F0.33333333333333331
sS'U'
F0.33333333333333331
ss(g3636
tp6343
g1
(g6
tRp6344
S''
F1
ss(S'Jersey'
g413
tp6345
g1
(g6
tRp6346
g3835
F1
ss(g3177
S'I'
tp6347
g1
(g6
tRp6348
S'--'
p6349
F1
ss(g4568
g5313
tp6350
g1
(g6
tRp6351
g3797
F1
ss(g445
tp6352
g1
(g6
tRp6353
g446
F0.33265306122448973
sg495
F0.33265306122448973
sg2189
F0.16734693877551021
sg1653
F0.16734693877551021
ss(g3759
tp6354
g1
(g6
tRp6355
S''
F0.25142857142857145
sg2306
F0.25142857142857145
sg4073
F0.49714285714285716
ss(g226
S'I'
tp6356
g1
(g6
tRp6357
S'want'
p6358
F1
ss(g2041
tp6359
g1
(g6
tRp6360
g3747
F0.5
sg3158
F0.5
ss(g3578
g5823
tp6361
g1
(g6
tRp6362
g6258
F1
ss(S'showing'
p6363
g3439
tp6364
g1
(g6
tRp6365
g3440
F1
ss(g1822
tp6366
g1
(g6
tRp6367
g3827
F1
ss(g10
g2675
tp6368
g1
(g6
tRp6369
g2676
F1
ss(g1328
tp6370
g1
(g6
tRp6371
g2363
F0.19999999999999998
sg6086
F0.19999999999999998
sg2397
F0.19999999999999998
sg5280
F0.19999999999999998
sg1329
F0.19999999999999998
ss(g5820
S'I'
tp6372
g1
(g6
tRp6373
g3707
F1
ss(g3375
g672
tp6374
g1
(g6
tRp6375
g673
F1
ss(g3657
g417
tp6376
g1
(g6
tRp6377
g418
F1
ss(g860
S'can'
p6378
tp6379
g1
(g6
tRp6380
S'get'
p6381
F1
ss(g4859
g2872
tp6382
g1
(g6
tRp6383
g843
F1
ss(g2488
g1062
tp6384
g1
(g6
tRp6385
S''
F1
ss(g1698
g1701
tp6386
g1
(g6
tRp6387
g3703
F1
ss(g924
tp6388
g1
(g6
tRp6389
g1923
F1
ss(g3875
tp6390
g1
(g6
tRp6391
S''
F1
ss(S'about'
g3199
tp6392
g1
(g6
tRp6393
g3203
F1
ss(g2162
g4938
tp6394
g1
(g6
tRp6395
g4939
F1
ss(g1057
g1132
tp6396
g1
(g6
tRp6397
g792
F1
ss(S'should'
p6398
g4656
tp6399
g1
(g6
tRp6400
g4360
F1
ss(g512
g3113
tp6401
g1
(g6
tRp6402
g6283
F1
ss(S'I'
g3291
tp6403
g1
(g6
tRp6404
g1549
F1
ss(g2409
tp6405
g1
(g6
tRp6406
g4064
F1
ss(g1167
tp6407
g1
(g6
tRp6408
g1168
F1
ss(g2899
tp6409
g1
(g6
tRp6410
g2368
F1
ss(g5227
g1972
tp6411
g1
(g6
tRp6412
g809
F1
ss(g3487
tp6413
g1
(g6
tRp6414
g2015
F1
ss(g4742
g4745
tp6415
g1
(g6
tRp6416
g5327
F1
ss(g4000
g5642
tp6417
g1
(g6
tRp6418
g5814
F1
ss(g2951
g3342
tp6419
g1
(g6
tRp6420
g2750
F1
ss(g635
g3110
tp6421
g1
(g6
tRp6422
g3432
F0.5
sg4139
F0.5
ss(g2205
tp6423
g1
(g6
tRp6424
g4953
F0.14285714285714288
sg4881
F0.14285714285714288
sg3194
F0.14285714285714288
sg2042
F0.14285714285714288
sg6196
F0.14285714285714288
sg4934
F0.14285714285714288
sg2206
F0.14285714285714288
ss(g6264
tp6425
g1
(g6
tRp6426
g3943
F0.14285714285714288
sg3474
F0.14285714285714288
sg5439
F0.14285714285714288
sg4762
F0.14285714285714288
sg2449
F0.14285714285714288
sg5135
F0.14285714285714288
sg1827
F0.14285714285714288
ss(S'a'
g234
tp6427
g1
(g6
tRp6428
g237
F1
ss(g2453
tp6429
g1
(g6
tRp6430
S''
F0.24955908289241627
sg2812
F0.24955908289241627
sg1823
F0.12522045855379191
sg6029
F0.12522045855379191
sg2456
F0.12522045855379191
sg2322
F0.12522045855379191
ss(g883
g4435
tp6431
g1
(g6
tRp6432
g3121
F1
ss(S'If'
g5522
tp6433
g1
(g6
tRp6434
g295
F1
ss(g2037
g3452
tp6435
g1
(g6
tRp6436
g1067
F1
ss(g1355
g1358
tp6437
g1
(g6
tRp6438
g4717
F1
ss(g4367
tp6439
g1
(g6
tRp6440
S''
F0.125
sg860
F0.125
sg1905
F0.125
sg650
F0.125
sS'I'
F0.125
sg2223
F0.125
sg571
F0.125
sg5140
F0.125
ss(g4376
tp6441
g1
(g6
tRp6442
g2102
F0.33333333333333331
sg3487
F0.33333333333333331
sg4847
F0.33333333333333331
ss(S'solve'
p6443
g3788
tp6444
g1
(g6
tRp6445
g3934
F1
ss(g3627
tp6446
g1
(g6
tRp6447
g1064
F1
ss(g1139
g3917
tp6448
g1
(g6
tRp6449
g2997
F1
ss(g4035
tp6450
g1
(g6
tRp6451
S''
F0.5
sg780
F0.5
ss(g6066
g6069
tp6452
g1
(g6
tRp6453
g1484
F1
ss(g1240
g1243
tp6454
g1
(g6
tRp6455
g2940
F1
ss(g5925
g735
tp6456
g1
(g6
tRp6457
S''
F1
ss(g3824
g3891
tp6458
g1
(g6
tRp6459
g4900
F1
ss(g5635
g4532
tp6460
g1
(g6
tRp6461
g4533
F1
ss(g5692
S'legislation'
p6462
tp6463
g1
(g6
tRp6464
S''
F1
ss(g1722
g3262
tp6465
g1
(g6
tRp6466
g2886
F1
ss(g3797
tp6467
g1
(g6
tRp6468
g3798
F1
ss(g1282
g3410
tp6469
g1
(g6
tRp6470
g3411
F1
ss(g3299
tp6471
g1
(g6
tRp6472
g3300
F0.5
sg4607
F0.5
ss(g2470
g2473
tp6473
g1
(g6
tRp6474
g4968
F1
ss(g3920
g3923
tp6475
g1
(g6
tRp6476
g2329
F1
ss(S'for'
g1091
tp6477
g1
(g6
tRp6478
g4001
F1
ss(g5264
g86
tp6479
g1
(g6
tRp6480
g4847
F1
ss(g3943
tp6481
g1
(g6
tRp6482
g5106
F0.33333333333333331
sS''
F0.33333333333333331
sg1913
F0.33333333333333331
ss(g3154
g4053
tp6483
g1
(g6
tRp6484
S'a'
F1
ss(g1561
g2052
tp6485
g1
(g6
tRp6486
g2507
F0.5
sg2053
F0.5
ss(g1051
tp6487
g1
(g6
tRp6488
g3406
F1
ss(g802
S'a'
tp6489
g1
(g6
tRp6490
g1307
F1
ss(g3236
g3239
tp6491
g1
(g6
tRp6492
g3033
F1
ss(g72
g5158
tp6493
g1
(g6
tRp6494
g2645
F0.5
sS'the'
p6495
F0.5
ss(g762
g649
tp6496
g1
(g6
tRp6497
g650
F1
ss(g971
g1274
tp6498
g1
(g6
tRp6499
g545
F1
ss(g3848
S'when'
p6500
tp6501
g1
(g6
tRp6502
g879
F1
ss(g640
g590
tp6503
g1
(g6
tRp6504
g4771
F0.33750000000000002
sg591
F0.66249999999999998
ss(g694
g1056
tp6505
g1
(g6
tRp6506
S'should'
p6507
F1
ss(g2592
g358
tp6508
g1
(g6
tRp6509
g359
F1
ss(S'D'
tp6510
g1
(g6
tRp6511
S''
F1
ss(g4180
g1279
tp6512
g1
(g6
tRp6513
g2944
F1
ss(g4538
g5264
tp6514
g1
(g6
tRp6515
g86
F1
ss(g3025
g2066
tp6516
g1
(g6
tRp6517
g2067
F1
ss(g3000
tp6518
g1
(g6
tRp6519
g994
F0.49714285714285716
sg3249
F0.25142857142857145
sg3003
F0.25142857142857145
ss(g1193
tp6520
g1
(g6
tRp6521
g1196
F0.33333333333333331
sg31
F0.33333333333333331
sg3208
F0.33333333333333331
ss(g1376
tp6522
g1
(g6
tRp6523
g2177
F1
ss(S'He'
g2901
tp6524
g1
(g6
tRp6525
g2902
F1
ss(g581
g584
tp6526
g1
(g6
tRp6527
g2948
F0.5
sg2378
F0.5
ss(g1120
tp6528
g1
(g6
tRp6529
g1123
F0.5
sg883
F0.5
ss(g865
tp6530
g1
(g6
tRp6531
g866
F1
ss(g5583
g2665
tp6532
g1
(g6
tRp6533
S'of'
p6534
F1
ss(g2165
g170
tp6535
g1
(g6
tRp6536
g173
F1
ss(g214
S'a'
tp6537
g1
(g6
tRp6538
g2925
F1
ss(g4939
tp6539
g1
(g6
tRp6540
g4942
F1
ss(g918
tp6541
g1
(g6
tRp6542
g4002
F0.25142857142857145
sg3283
F0.49714285714285716
sg2130
F0.25142857142857145
ss(g63
S'a'
tp6543
g1
(g6
tRp6544
g2860
F1
ss(g509
tp6545
g1
(g6
tRp6546
g512
F1
ss(g48
g5056
tp6547
g1
(g6
tRp6548
g968
F1
ss(g1603
tp6549
g1
(g6
tRp6550
g4388
F1
ss(g2007
tp6551
g1
(g6
tRp6552
S'I'
F1
ss(g3735
g4203
tp6553
g1
(g6
tRp6554
g3592
F1
ss(g715
g5178
tp6555
g1
(g6
tRp6556
g5179
F1
ss(g2507
tp6557
g1
(g6
tRp6558
g1568
F1
ss(g1601
g3747
tp6559
g1
(g6
tRp6560
g3748
F1
ss(g953
g618
tp6561
g1
(g6
tRp6562
g543
F1
ss(g1364
g1367
tp6563
g1
(g6
tRp6564
g5196
F1
ss(g791
tp6565
g1
(g6
tRp6566
g4450
F1
ss(g3483
g3486
tp6567
g1
(g6
tRp6568
S'of'
p6569
F1
ss(g191
g6318
tp6570
g1
(g6
tRp6571
g4316
F1
ss(g4651
g3874
tp6572
g1
(g6
tRp6573
g5390
F1
ss(g2726
tp6574
g1
(g6
tRp6575
g5162
F1
ss(g1983
tp6576
g1
(g6
tRp6577
g1984
F1
ss(g3152
g2757
tp6578
g1
(g6
tRp6579
g2760
F1
ss(g5295
g5298
tp6580
g1
(g6
tRp6581
g2439
F1
ss(g2466
tp6582
g1
(g6
tRp6583
S'dream,'
p6584
F0.10020661157024793
sg3013
F0.10020661157024793
sg5596
F0.10020661157024793
sg4261
F0.19989669421487602
sS'I'
F0.39927685950413228
sg2100
F0.10020661157024793
ss(g3342
g2750
tp6585
g1
(g6
tRp6586
g26
F0.5
sg2751
F0.5
ss(g5103
g5106
tp6587
g1
(g6
tRp6588
g2287
F1
ss(g6500
g879
tp6589
g1
(g6
tRp6590
g880
F0.5
sg1381
F0.5
ss(g3000
g3003
tp6591
g1
(g6
tRp6592
g4215
F1
ss(g2665
tp6593
g1
(g6
tRp6594
S''
F0.33333333333333331
sg6534
F0.33333333333333331
sg1004
F0.33333333333333331
ss(g1178
g1933
tp6595
g1
(g6
tRp6596
g654
F1
ss(S'I'
g2824
tp6597
g1
(g6
tRp6598
S'a'
F1
ss(g539
g2571
tp6599
g1
(g6
tRp6600
g2683
F1
ss(S'a'
g2459
tp6601
g1
(g6
tRp6602
g2297
F1
ss(g1922
g1657
tp6603
g1
(g6
tRp6604
g1658
F1
ss(g1671
g466
tp6605
g1
(g6
tRp6606
g4780
F1
ss(g666
g343
tp6607
g1
(g6
tRp6608
g344
F0.16666666666666666
sg839
F0.16666666666666666
sg1600
F0.16666666666666666
sg1601
F0.16666666666666666
sg1602
F0.16666666666666666
sg400
F0.16666666666666666
ss(g1152
g3208
tp6609
g1
(g6
tRp6610
g3209
F1
ss(S'to'
p6611
g5314
tp6612
g1
(g6
tRp6613
g4611
F0.25142857142857145
sg1092
F0.49714285714285716
sg3992
F0.25142857142857145
ss(g3571
tp6614
g1
(g6
tRp6615
g3572
F1
ss(g4531
tp6616
g1
(g6
tRp6617
S''
F0.66249999999999998
sg5687
F0.33750000000000002
ss(g2852
g4250
tp6618
g1
(g6
tRp6619
S''
F1
ss(g753
g5121
tp6620
g1
(g6
tRp6621
g5981
F1
ss(g353
g356
tp6622
g1
(g6
tRp6623
g628
F1
ss(g1789
tp6624
g1
(g6
tRp6625
S'a'
F0.066796875000000006
sg1792
F0.66621093750000004
sg2292
F0.066796875000000006
sg4635
F0.066796875000000006
sS''
F0.13339843749999999
ss(g4640
g1572
tp6626
g1
(g6
tRp6627
g1573
F1
ss(g1149
tp6628
g1
(g6
tRp6629
g4875
F0.041684210526315789
sg362
F0.041684210526315789
sg602
F0.041684210526315789
sg1000
F0.041684210526315789
sg339
F0.041684210526315789
sg1132
F0.041684210526315789
sg1883
F0.041684210526315789
sg279
F0.083326315789473679
sg372
F0.041684210526315789
sg3666
F0.041684210526315789
sg6378
F0.041684210526315789
sg6270
F0.12496842105263159
sg5781
F0.29153684210526315
sg3004
F0.083326315789473679
ss(g2341
g5684
tp6630
g1
(g6
tRp6631
g4335
F0.33333333333333331
sg4330
F0.33333333333333331
sg4329
F0.33333333333333331
ss(g1587
tp6632
g1
(g6
tRp6633
g1590
F1
ss(S'a'
g1307
tp6634
g1
(g6
tRp6635
g1308
F1
ss(S'symptoms'
g888
tp6636
g1
(g6
tRp6637
g958
F1
ss(g3876
g2893
tp6638
g1
(g6
tRp6639
g2894
F1
ss(g2456
g4544
tp6640
g1
(g6
tRp6641
g5239
F1
ss(g3644
tp6642
g1
(g6
tRp6643
g2088
F0.33333333333333331
sS'about'
p6644
F0.33333333333333331
sg2793
F0.33333333333333331
ss(g2770
tp6645
g1
(g6
tRp6646
S''
F0.25142857142857145
sg2771
F0.49714285714285716
sg1463
F0.25142857142857145
ss(g117
g120
tp6647
g1
(g6
tRp6648
g3557
F1
ss(g1068
g1071
tp6649
g1
(g6
tRp6650
g1047
F1
ss(g2922
tp6651
g1
(g6
tRp6652
S''
F1
ss(g1844
g5044
tp6653
g1
(g6
tRp6654
S'I'
F1
ss(g1563
tp6655
g1
(g6
tRp6656
g4052
F1
ss(g3208
tp6657
g1
(g6
tRp6658
g3209
F1
ss(g3357
g61
tp6659
g1
(g6
tRp6660
g2990
F1
ss(g2507
g1568
tp6661
g1
(g6
tRp6662
g1569
F1
ss(g1840
g5437
tp6663
g1
(g6
tRp6664
g4405
F1
ss(g3995
g2306
tp6665
g1
(g6
tRp6666
g2307
F1
ss(g2237
tp6667
g1
(g6
tRp6668
S''
F1
ss(g5514
g416
tp6669
g1
(g6
tRp6670
S'well'
p6671
F1
ss(S'a'
g3518
tp6672
g1
(g6
tRp6673
S'and'
p6674
F1
ss(g3121
g3875
tp6675
g1
(g6
tRp6676
S''
F1
ss(g602
g247
tp6677
g1
(g6
tRp6678
g248
F1
ss(g2794
g1284
tp6679
g1
(g6
tRp6680
g1858
F1
ss(g3635
g4878
tp6681
g1
(g6
tRp6682
g2212
F1
ss(g1050
g3024
tp6683
g1
(g6
tRp6684
g3466
F1
ss(g1337
g6611
tp6685
g1
(g6
tRp6686
g5314
F1
ss(g2640
S'up'
p6687
tp6688
g1
(g6
tRp6689
S''
F1
ss(S'not'
g449
tp6690
g1
(g6
tRp6691
g2146
F1
ss(g1526
g1529
tp6692
g1
(g6
tRp6693
g3045
F0.5
sg2164
F0.5
ss(g16
g19
tp6694
g1
(g6
tRp6695
S'D'
F1
ss(g2819
g404
tp6696
g1
(g6
tRp6697
g385
F1
ss(S"He's"
S'a'
tp6698
g1
(g6
tRp6699
g4712
F1
ss(g1933
tp6700
g1
(g6
tRp6701
g5702
F0.5
sg654
F0.5
ss(g1694
tp6702
g1
(g6
tRp6703
S'I'
F0.5
sg3312
F0.5
ss(g3702
tp6704
g1
(g6
tRp6705
g4456
F1
ss(g1746
g819
tp6706
g1
(g6
tRp6707
g820
F1
ss(g3631
tp6708
g1
(g6
tRp6709
g4539
F1
ss(g1244
tp6710
g1
(g6
tRp6711
g1245
F1
ss(g3356
tp6712
g1
(g6
tRp6713
g3357
F1
ss(g141
g1324
tp6714
g1
(g6
tRp6715
g1577
F1
ss(g1658
tp6716
g1
(g6
tRp6717
g972
F1
ss(g916
g3061
tp6718
g1
(g6
tRp6719
g3064
F1
ss(g5898
g4117
tp6720
g1
(g6
tRp6721
g2833
F1
ss(S'a'
g3520
tp6722
g1
(g6
tRp6723
g733
F1
ss(g526
g412
tp6724
g1
(g6
tRp6725
g1644
F1
ss(S'a'
g3514
tp6726
g1
(g6
tRp6727
S''
F1
ss(g3657
tp6728
g1
(g6
tRp6729
g417
F1
ss(g3428
g3431
tp6730
g1
(g6
tRp6731
g4785
F1
ss(g1708
g1711
tp6732
g1
(g6
tRp6733
g5449
F1
ss(g1819
S'I'
tp6734
g1
(g6
tRp6735
g5059
F1
ss(g163
tp6736
g1
(g6
tRp6737
S'a'
F0.49714285714285716
sg4005
F0.25142857142857145
sg3190
F0.25142857142857145
ss(g430
g433
tp6738
g1
(g6
tRp6739
g2302
F1
ss(g3645
g4088
tp6740
g1
(g6
tRp6741
g1521
F1
ss(g3060
g3389
tp6742
g1
(g6
tRp6743
g1968
F1
ss(g3848
tp6744
g1
(g6
tRp6745
g6500
F1
ss(S'a'
g3515
tp6746
g1
(g6
tRp6747
g4282
F1
ss(g3888
tp6748
g1
(g6
tRp6749
S''
F0.19980554205153134
sg2867
F0.10014584346135148
sg3862
F0.10014584346135148
sg3917
F0.10014584346135148
sg4117
F0.10014584346135148
sg5007
F0.10014584346135148
sg150
F0.29946524064171121
ss(g1531
tp6750
g1
(g6
tRp6751
g1534
F1
ss(g3662
tp6752
g1
(g6
tRp6753
g4616
F1
ss(g5036
g6029
tp6754
g1
(g6
tRp6755
g5956
F1
ss(S'think'
g1411
tp6756
g1
(g6
tRp6757
g5170
F1
ss(g644
tp6758
g1
(g6
tRp6759
g3699
F1
ss(g2578
g2581
tp6760
g1
(g6
tRp6761
g1586
F1
ss(g2413
tp6762
g1
(g6
tRp6763
g2666
F1
ss(g1624
g1518
tp6764
g1
(g6
tRp6765
g1124
F1
ss(g57
g1251
tp6766
g1
(g6
tRp6767
g4742
F1
ss(g4025
tp6768
g1
(g6
tRp6769
g4028
F1
ss(g1896
g1554
tp6770
g1
(g6
tRp6771
g1557
F1
ss(S'just'
p6772
g3048
tp6773
g1
(g6
tRp6774
g3051
F1
ss(g2913
tp6775
g1
(g6
tRp6776
g2916
F1
ss(g308
g313
tp6777
g1
(g6
tRp6778
g5982
F1
ss(g1277
S'I'
tp6779
g1
(g6
tRp6780
g261
F1
ss(g1123
g3848
tp6781
g1
(g6
tRp6782
g6500
F1
ss(g3699
g3702
tp6783
g1
(g6
tRp6784
g4456
F1
ss(g3518
g6674
tp6785
g1
(g6
tRp6786
S'a'
F1
ss(g504
g507
tp6787
g1
(g6
tRp6788
S'fine'
p6789
F1
ss(g1949
g4000
tp6790
g1
(g6
tRp6791
g5642
F1
ss(g1948
g3331
tp6792
g1
(g6
tRp6793
g3332
F1
ss(g3520
g733
tp6794
g1
(g6
tRp6795
g5708
F1
ss(g3125
tp6796
g1
(g6
tRp6797
g3126
F1
ss(g2571
g2683
tp6798
g1
(g6
tRp6799
S'people'
p6800
F1
ss(g3003
tp6801
g1
(g6
tRp6802
g2084
F0.125
sg1888
F0.125
sg4215
F0.125
sg2657
F0.125
sg2767
F0.125
sg39
F0.125
sg5336
F0.125
sg563
F0.125
ss(g4453
g480
tp6803
g1
(g6
tRp6804
S'you'
p6805
F1
ss(g3719
tp6806
g1
(g6
tRp6807
g3720
F1
ss(S'You'
g6010
tp6808
g1
(g6
tRp6809
S'a'
F1
ss(g685
g4
tp6810
g1
(g6
tRp6811
g8
F1
ss(g1792
tp6812
g1
(g6
tRp6813
g1636
F0.013699223731289695
sg2469
F0.013699223731289695
sg3982
F0.013699223731289695
sg3690
F0.013699223731289695
sg4668
F0.013699223731289695
sg4297
F0.013699223731289695
sg1369
F0.013699223731289695
sg308
F0.027396899877431255
sg4361
F0.013699223731289695
sg1436
F0.041094576023572818
sg2052
F0.027396899877431255
sg1492
F0.013699223731289695
sg1674
F0.013699223731289695
sg1554
F0.013699223731289695
sg848
F0.013699223731289695
sg1867
F0.013699223731289695
sg2413
F0.013699223731289695
sg2414
F0.013699223731289695
sg5314
F0.054792252169714374
sg156
F0.013699223731289695
sg5908
F0.013699223731289695
sg5889
F0.013699223731289695
sg4444
F0.013699223731289695
sg2805
F0.013699223731289695
sg640
F0.027396899877431255
sg439
F0.013699223731289695
sg1319
F0.082187604461997493
sg352
F0.041094576023572818
sg1163
F0.013699223731289695
sg381
F0.013699223731289695
sg639
F0.013699223731289695
sg2803
F0.013699223731289695
sg2886
F0.013699223731289695
sg265
F0.013699223731289695
sg486
F0.013699223731289695
sg2894
F0.095885280608139056
sg1714
F0.013699223731289695
sg2168
F0.027396899877431255
sg5621
F0.013699223731289695
sg3899
F0.013699223731289695
sg2074
F0.027396899877431255
sg1594
F0.013699223731289695
sg2815
F0.082187604461997493
sg2816
F0.013699223731289695
sg2067
F0.013699223731289695
ss(g1897
g1780
tp6814
g1
(g6
tRp6815
g1781
F1
ss(g1697
tp6816
g1
(g6
tRp6817
g1698
F1
ss(g547
g1292
tp6818
g1
(g6
tRp6819
S''
F1
ss(S'down'
g422
tp6820
g1
(g6
tRp6821
g423
F1
ss(g6056
g2708
tp6822
g1
(g6
tRp6823
g2709
F1
ss(S'a'
g2845
tp6824
g1
(g6
tRp6825
g2846
F1
ss(g5870
g3103
tp6826
g1
(g6
tRp6827
g3104
F1
ss(S'I'
g613
tp6828
g1
(g6
tRp6829
g614
F1
ss(g3851
g1440
tp6830
g1
(g6
tRp6831
g2779
F1
ss(g994
g2491
tp6832
g1
(g6
tRp6833
g2494
F0.66249999999999998
sg1734
F0.33750000000000002
ss(g895
tp6834
g1
(g6
tRp6835
g896
F1
ss(g4401
g5609
tp6836
g1
(g6
tRp6837
g544
F1
ss(g142
g145
tp6838
g1
(g6
tRp6839
g3461
F1
ss(g940
g943
tp6840
g1
(g6
tRp6841
g1400
F1
ss(g2902
g201
tp6842
g1
(g6
tRp6843
g205
F0.5
sg207
F0.5
ss(g348
g351
tp6844
g1
(g6
tRp6845
S''
F1
ss(g64
g463
tp6846
g1
(g6
tRp6847
S''
F1
ss(g1828
tp6848
g1
(g6
tRp6849
g1829
F1
ss(S'I'
g5824
tp6850
g1
(g6
tRp6851
g5827
F1
ss(g541
g1740
tp6852
g1
(g6
tRp6853
g2699
F1
ss(g622
g625
tp6854
g1
(g6
tRp6855
g2397
F1
ss(g2667
g2670
tp6856
g1
(g6
tRp6857
g1619
F0.7466666666666667
sg1097
F0.2533333333333333
ss(g4834
g52
tp6858
g1
(g6
tRp6859
g2449
F1
ss(g1055
g2727
tp6860
g1
(g6
tRp6861
g2728
F1
ss(g306
g2545
tp6862
g1
(g6
tRp6863
g2548
F1
ss(g5572
g297
tp6864
g1
(g6
tRp6865
g5870
F1
ss(g2036
tp6866
g1
(g6
tRp6867
g820
F0.18740484429065743
sg1193
F0.062560553633217997
sg3884
F0.12498269896193773
sg3609
F0.12498269896193773
sg4595
F0.12498269896193773
sg3411
F0.12498269896193773
sg3065
F0.062560553633217997
sg4339
F0.062560553633217997
sg3407
F0.12498269896193773
ss(S'the'
g3152
tp6868
g1
(g6
tRp6869
g2757
F0.5
sg3483
F0.5
ss(g2197
tp6870
g1
(g6
tRp6871
g2200
F1
ss(g1363
g1958
tp6872
g1
(g6
tRp6873
g730
F1
ss(g4523
g2357
tp6874
g1
(g6
tRp6875
g2360
F1
ss(g2002
g4179
tp6876
g1
(g6
tRp6877
g4180
F1
ss(g1971
g3417
tp6878
g1
(g6
tRp6879
g3120
F1
ss(g5357
g4920
tp6880
g1
(g6
tRp6881
g695
F1
ss(g1888
g1891
tp6882
g1
(g6
tRp6883
S'it'
p6884
F1
ss(g4296
g5562
tp6885
g1
(g6
tRp6886
S''
F0.5
sg3908
F0.5
ss(g780
g783
tp6887
g1
(g6
tRp6888
g1303
F1
ss(g2360
g4275
tp6889
g1
(g6
tRp6890
g65
F1
ss(g771
tp6891
g1
(g6
tRp6892
g774
F1
ss(g2502
g2505
tp6893
g1
(g6
tRp6894
g2217
F1
ss(g2899
g2368
tp6895
g1
(g6
tRp6896
S''
F0.5
sg377
F0.5
ss(g1732
g1041
tp6897
g1
(g6
tRp6898
g4208
F1
ss(g2581
g1586
tp6899
g1
(g6
tRp6900
g1587
F1
ss(g1041
tp6901
g1
(g6
tRp6902
g4208
F1
ss(g1048
g1149
tp6903
g1
(g6
tRp6904
g5781
F0.66249999999999998
sg6398
F0.33750000000000002
ss(g3976
g1063
tp6905
g1
(g6
tRp6906
g4199
F1
ss(g1966
tp6907
g1
(g6
tRp6908
g4218
F1
ss(g2846
tp6909
g1
(g6
tRp6910
g686
F1
ss(g4025
g4028
tp6911
g1
(g6
tRp6912
g5086
F1
ss(g2709
tp6913
g1
(g6
tRp6914
S''
F0.42708333333333337
sg2157
F0.14322916666666669
sg1607
F0.14322916666666669
sg4232
F0.14322916666666669
sg1608
F0.14322916666666669
ss(g3369
tp6915
g1
(g6
tRp6916
g3372
F0.19999999999999998
sg3187
F0.19999999999999998
sg3213
F0.19999999999999998
sS''
F0.19999999999999998
sg1737
F0.19999999999999998
ss(g4215
tp6917
g1
(g6
tRp6918
g1230
F1
ss(S'went'
g4866
tp6919
g1
(g6
tRp6920
g4668
F1
ss(S'The'
g3028
tp6921
g1
(g6
tRp6922
g3029
F1
ss(g5067
tp6923
g1
(g6
tRp6924
S'a'
F0.21407407407407403
sg1186
F0.14277777777777775
sg3813
F0.071481481481481465
sg536
F0.071481481481481465
sg201
F0.14277777777777775
sg2856
F0.071481481481481465
sg5515
F0.071481481481481465
sg4364
F0.071481481481481465
sg2342
F0.071481481481481465
sg2270
F0.071481481481481465
ss(g3609
g3378
tp6925
g1
(g6
tRp6926
g659
F0.5
sg3379
F0.5
ss(g266
g269
tp6927
g1
(g6
tRp6928
g1476
F1
ss(g1913
tp6929
g1
(g6
tRp6930
g1914
F1
ss(g2122
g5482
tp6931
g1
(g6
tRp6932
S'have'
p6933
F1
ss(g4549
tp6934
g1
(g6
tRp6935
S''
F0.10415616300225784
sg586
F0.020835616738639606
sg4376
F0.041665753304544161
sg2841
F0.020835616738639606
sg823
F0.020835616738639606
sg2293
F0.020835616738639606
sg4162
F0.020835616738639606
sg389
F0.020835616738639606
sg621
F0.020835616738639606
sg1452
F0.041665753304544161
sg783
F0.020835616738639606
sg587
F0.08332602643635327
sg1983
F0.041665753304544161
sg1483
F0.020835616738639606
sS'unacceptable'
p6936
F0.020835616738639606
sg1337
F0.062495889870448726
sg5264
F0.020835616738639606
sg3369
F0.041665753304544161
sS'a'
F0.08332602643635327
sg5814
F0.020835616738639606
sg584
F0.041665753304544161
sg127
F0.020835616738639606
sg1729
F0.020835616738639606
sg4107
F0.041665753304544161
sg2222
F0.020835616738639606
sg824
F0.020835616738639606
sg3985
F0.062495889870448726
sg585
F0.020835616738639606
ss(g4942
g602
tp6937
g1
(g6
tRp6938
g247
F1
ss(S'state'
g1625
tp6939
g1
(g6
tRp6940
g308
F0.5
sg5908
F0.5
ss(g1597
tp6941
g1
(g6
tRp6942
g1944
F1
ss(g2212
tp6943
g1
(g6
tRp6944
S'a'
F0.079978132235657348
sg2213
F0.040005145356315941
sg449
F0.040005145356315941
sg351
F0.040005145356315941
sg4441
F0.040005145356315941
sg2158
F0.11995111911499876
sg280
F0.040005145356315941
sg3431
F0.040005145356315941
sg1804
F0.040005145356315941
sg3379
F0.040005145356315941
sg899
F0.040005145356315941
sg214
F0.040005145356315941
sg450
F0.040005145356315941
sg6687
F0.040005145356315941
sg6611
F0.040005145356315941
sg1718
F0.040005145356315941
sg137
F0.040005145356315941
sg1157
F0.040005145356315941
sg5158
F0.079978132235657348
sg659
F0.040005145356315941
sg2329
F0.040005145356315941
ss(g490
tp6945
g1
(g6
tRp6946
g1116
F1
ss(g3695
g1837
tp6947
g1
(g6
tRp6948
g5336
F1
ss(g1544
tp6949
g1
(g6
tRp6950
g5224
F0.071452991452991457
sg2312
F0.14273504273504276
sg5178
F0.071452991452991457
sg3942
F0.071452991452991457
sg197
F0.071452991452991457
sg2524
F0.071452991452991457
sg6148
F0.071452991452991457
sg4835
F0.14273504273504276
sg321
F0.071452991452991457
sS'you'
p6951
F0.071452991452991457
sg766
F0.071452991452991457
sg4459
F0.071452991452991457
ss(g473
S'I'
tp6952
g1
(g6
tRp6953
g2321
F1
ss(g1441
g2652
tp6954
g1
(g6
tRp6955
g1333
F0.7466666666666667
sg3470
F0.2533333333333333
ss(g4459
tp6956
g1
(g6
tRp6957
g3494
F1
ss(g2989
g5037
tp6958
g1
(g6
tRp6959
g1038
F0.5
sg1046
F0.5
ss(S'I'
g6349
tp6960
g1
(g6
tRp6961
g5809
F1
ss(g2117
tp6962
g1
(g6
tRp6963
g6238
F1
ss(g3110
g3432
tp6964
g1
(g6
tRp6965
S''
F1
ss(g3992
g2671
tp6966
g1
(g6
tRp6967
g1956
F1
ss(g3707
tp6968
g1
(g6
tRp6969
S'a'
F0.090972222222222218
sg2150
F0.090972222222222218
sg1687
F0.090972222222222218
sg3349
F0.090972222222222218
sS'something'
p6970
F0.090972222222222218
sg1332
F0.090972222222222218
sg2578
F0.090972222222222218
sg353
F0.18159722222222219
sg3060
F0.18159722222222219
ss(S"shouldn't"
p6971
g307
tp6972
g1
(g6
tRp6973
g940
F1
ss(g884
g887
tp6974
g1
(g6
tRp6975
g2883
F1
ss(S'We'
g2042
tp6976
g1
(g6
tRp6977
g2043
F1
ss(g2549
tp6978
g1
(g6
tRp6979
g2552
F1
ss(g3155
tp6980
g1
(g6
tRp6981
S'a'
F0.39930555555555558
sg1453
F0.2013888888888889
sg1929
F0.39930555555555558
ss(g1423
g3420
tp6982
g1
(g6
tRp6983
g3423
F1
ss(g3653
tp6984
g1
(g6
tRp6985
g5279
F0.047638724911452171
sg3338
F0.33311688311688298
sg3571
F0.047638724911452171
sg2510
F0.047638724911452171
sg3256
F0.047638724911452171
sg1683
F0.047638724911452171
sg4345
F0.047638724911452171
sg4120
F0.047638724911452171
sS'I'
F0.047638724911452171
sg1545
F0.047638724911452171
sg146
F0.09521841794569065
sg5159
F0.047638724911452171
sg1503
F0.047638724911452171
sg2393
F0.047638724911452171
ss(g2557
g2560
tp6986
g1
(g6
tRp6987
S''
F1
ss(g6936
tp6988
g1
(g6
tRp6989
S''
F1
ss(g3291
tp6990
g1
(g6
tRp6991
g1549
F1
ss(S'was'
g1377
tp6992
g1
(g6
tRp6993
g884
F0.66249999999999998
sg3439
F0.33750000000000002
ss(g4635
tp6994
g1
(g6
tRp6995
g2420
F1
ss(g4088
g1521
tp6996
g1
(g6
tRp6997
S'a'
F1
ss(g5962
S'a'
tp6998
g1
(g6
tRp6999
g142
F1
ss(g1426
g2607
tp7000
g1
(g6
tRp7001
g2608
F1
ss(g1443
tp7002
g1
(g6
tRp7003
S''
F1
ss(g4297
S'a'
tp7004
g1
(g6
tRp7005
g2837
F1
ss(g75
g78
tp7006
g1
(g6
tRp7007
g3676
F1
ss(g1253
tp7008
g1
(g6
tRp7009
S''
F0.5
sg1256
F0.5
ss(g6059
g608
tp7010
g1
(g6
tRp7011
g609
F1
ss(g2732
g2735
tp7012
g1
(g6
tRp7013
g1298
F1
ss(g2637
g2640
tp7014
g1
(g6
tRp7015
g6687
F1
ss(g3120
tp7016
g1
(g6
tRp7017
g5967
F1
ss(g429
g2269
tp7018
g1
(g6
tRp7019
g4675
F1
ss(g810
g184
tp7020
g1
(g6
tRp7021
g185
F1
ss(g1972
g809
tp7022
g1
(g6
tRp7023
g810
F1
ss(g3465
S'in'
p7024
tp7025
g1
(g6
tRp7026
g949
F1
ss(g507
tp7027
g1
(g6
tRp7028
g6789
F1
ss(g8
g3898
tp7029
g1
(g6
tRp7030
g3899
F1
ss(g3585
g3588
tp7031
g1
(g6
tRp7032
g999
F1
ss(g2400
tp7033
g1
(g6
tRp7034
g2401
F1
ss(S"I've"
g4311
tp7035
g1
(g6
tRp7036
S'the'
p7037
F1
ss(S'"'
tp7038
g1
(g6
tRp7039
S''
F1
ss(g1581
tp7040
g1
(g6
tRp7041
g5350
F0.5
sS'and'
p7042
F0.5
ss(g2357
g2360
tp7043
g1
(g6
tRp7044
g4275
F1
ss(g1954
g1836
tp7045
g1
(g6
tRp7046
g3840
F1
ss(g5817
g4661
tp7047
g1
(g6
tRp7048
S''
F1
ss(g1193
g1196
tp7049
g1
(g6
tRp7050
S'years'
p7051
F1
ss(g78
g3676
tp7052
g1
(g6
tRp7053
g3679
F1
ss(S'We'
g4953
tp7054
g1
(g6
tRp7055
g3083
F1
ss(g3690
g221
tp7056
g1
(g6
tRp7057
g222
F1
ss(g5224
g5227
tp7058
g1
(g6
tRp7059
g1972
F1
ss(g184
tp7060
g1
(g6
tRp7061
g185
F1
ss(g412
g1644
tp7062
g1
(g6
tRp7063
g1077
F0.5
sg2704
F0.5
ss(g1276
tp7064
g1
(g6
tRp7065
g1904
F0.33333333333333331
sg3593
F0.33333333333333331
sg2707
F0.33333333333333331
ss(g1280
g4002
tp7066
g1
(g6
tRp7067
g213
F1
ss(S'different'
g179
tp7068
g1
(g6
tRp7069
g183
F1
ss(g791
g4450
tp7070
g1
(g6
tRp7071
g4453
F1
ss(g1612
tp7072
g1
(g6
tRp7073
g1615
F1
ss(g3885
tp7074
g1
(g6
tRp7075
g3888
F1
ss(g1563
g4052
tp7076
g1
(g6
tRp7077
g4595
F1
ss(S'And'
g3571
tp7078
g1
(g6
tRp7079
g3572
F1
ss(g1098
g1101
tp7080
g1
(g6
tRp7081
g3989
F1
ss(S'do'
g1327
tp7082
g1
(g6
tRp7083
S''
F1
ss(g1765
g549
tp7084
g1
(g6
tRp7085
g550
F1
ss(g3655
tp7086
g1
(g6
tRp7087
g330
F1
ss(g5067
g536
tp7088
g1
(g6
tRp7089
g542
F1
ss(g1112
g2341
tp7090
g1
(g6
tRp7091
g5684
F1
ss(g3246
tp7092
g1
(g6
tRp7093
g1645
F0.33333333333333331
sg4517
F0.33333333333333331
sg671
F0.33333333333333331
ss(g1872
tp7094
g1
(g6
tRp7095
S'a'
F0.091049382716049385
sg2557
F0.091049382716049385
sg513
F0.091049382716049385
sg3332
F0.091049382716049385
sg2717
F0.091049382716049385
sg1702
F0.091049382716049385
sg1875
F0.45370370370370372
ss(g2333
g2336
tp7096
g1
(g6
tRp7097
g4042
F1
ss(g313
g5982
tp7098
g1
(g6
tRp7099
g53
F1
ss(g1929
g1932
tp7100
g1
(g6
tRp7101
g4073
F1
ss(g5170
tp7102
g1
(g6
tRp7103
g2866
F1
ss(g4388
g456
tp7104
g1
(g6
tRp7105
S'I'
F1
ss(g1781
g1784
tp7106
g1
(g6
tRp7107
g3000
F1
ss(g1999
g2002
tp7108
g1
(g6
tRp7109
g4179
F1
ss(g1435
g9
tp7110
g1
(g6
tRp7111
g4694
F0.5
sg1541
F0.5
ss(g921
g924
tp7112
g1
(g6
tRp7113
g1923
F1
ss(g2751
g2754
tp7114
g1
(g6
tRp7115
g3199
F0.5
sg3099
F0.5
ss(g3339
g2125
tp7116
g1
(g6
tRp7117
g2126
F0.25
sS'I'
F0.25
sg4404
F0.25
sg2986
F0.25
ss(g239
tp7118
g1
(g6
tRp7119
g242
F1
ss(g3291
g1549
tp7120
g1
(g6
tRp7121
g1550
F1
ss(g6644
g3920
tp7122
g1
(g6
tRp7123
g3923
F1
ss(g3024
tp7124
g1
(g6
tRp7125
g3466
F1
ss(g1053
g5066
tp7126
g1
(g6
tRp7127
g5067
F1
ss(g1172
tp7128
g1
(g6
tRp7129
g1353
F0.5
sg1173
F0.5
ss(g3630
g5530
tp7130
g1
(g6
tRp7131
g4943
F1
ss(g1052
g2058
tp7132
g1
(g6
tRp7133
g3185
F1
ss(g1214
g1217
tp7134
g1
(g6
tRp7135
g57
F1
ss(S'not'
p7136
g1804
tp7137
g1
(g6
tRp7138
g1805
F1
ss(g2257
tp7139
g1
(g6
tRp7140
S''
F1
ss(g1045
tp7141
g1
(g6
tRp7142
g1762
F0.5
sg4996
F0.5
ss(g4539
g55
tp7143
g1
(g6
tRp7144
S''
F1
ss(g1097
tp7145
g1
(g6
tRp7146
g1098
F1
ss(g6264
g3943
tp7147
g1
(g6
tRp7148
g1913
F1
ss(g3052
tp7149
g1
(g6
tRp7150
g3620
F0.091008771929824553
sg6168
F0.091008771929824553
sg3028
F0.091008771929824553
sg6024
F0.091008771929824553
sg3136
F0.091008771929824553
sg726
F0.091008771929824553
sg5583
F0.091008771929824553
sg3053
F0.36293859649122812
ss(S'Not'
g2793
tp7151
g1
(g6
tRp7152
g2794
F1
ss(g1607
g2985
tp7153
g1
(g6
tRp7154
g2568
F1
ss(g3008
g5561
tp7155
g1
(g6
tRp7156
S''
F1
ss(S'the'
g6066
tp7157
g1
(g6
tRp7158
g6069
F1
ss(g2887
g2890
tp7159
g1
(g6
tRp7160
S''
F1
ss(g2803
tp7161
g1
(g6
tRp7162
g4360
F0.5
sg5494
F0.5
ss(g49
g1963
tp7163
g1
(g6
tRp7164
g470
F1
ss(g3669
g5957
tp7165
g1
(g6
tRp7166
S''
F1
ss(g5248
g6060
tp7167
g1
(g6
tRp7168
S''
F1
ss(g1822
g3827
tp7169
g1
(g6
tRp7170
g3830
F1
ss(S"That's"
g495
tp7171
g1
(g6
tRp7172
g460
F0.5
sg1909
F0.5
ss(S'a'
g2180
tp7173
g1
(g6
tRp7174
g2181
F1
ss(g2087
tp7175
g1
(g6
tRp7176
S''
F1
ss(g5824
g5827
tp7177
g1
(g6
tRp7178
g1442
F1
ss(g4345
tp7179
g1
(g6
tRp7180
g2073
F0.25
sg4348
F0.25
sg2596
F0.25
sS'with'
p7181
F0.25
ss(g286
S'a'
tp7182
g1
(g6
tRp7183
g1498
F0.33333333333333331
sg2137
F0.33333333333333331
sg2433
F0.33333333333333331
ss(g3641
g6085
tp7184
g1
(g6
tRp7185
g3021
F1
ss(g5007
g2524
tp7186
g1
(g6
tRp7187
g2245
F1
ss(g2223
g2226
tp7188
g1
(g6
tRp7189
g1965
F1
ss(S'a'
g2837
tp7190
g1
(g6
tRp7191
g2838
F1
ss(g4228
g4231
tp7192
g1
(g6
tRp7193
g4176
F1
ss(g5081
g987
tp7194
g1
(g6
tRp7195
g990
F1
ss(g6569
g4329
tp7196
g1
(g6
tRp7197
g6091
F1
ss(g609
g612
tp7198
g1
(g6
tRp7199
S'of'
p7200
F1
ss(g3632
g5624
tp7201
g1
(g6
tRp7202
S''
F1
ss(g1675
g1678
tp7203
g1
(g6
tRp7204
g5572
F1
ss(g3212
g7181
tp7205
g1
(g6
tRp7206
g6951
F1
ss(g2975
tp7207
g1
(g6
tRp7208
g3393
F0.25142857142857145
sg2976
F0.49714285714285716
sg2887
F0.25142857142857145
ss(g2675
tp7209
g1
(g6
tRp7210
g2676
F0.5
sg676
F0.5
ss(g384
g1962
tp7211
g1
(g6
tRp7212
g2328
F1
ss(g4179
tp7213
g1
(g6
tRp7214
g4180
F1
ss(g1628
tp7215
g1
(g6
tRp7216
g1631
F1
ss(g3804
tp7217
g1
(g6
tRp7218
g1240
F0.25
sg1125
F0.25
sg4085
F0.25
sg5045
F0.25
ss(g813
g818
tp7219
g1
(g6
tRp7220
S''
F0.33333333333333331
sg1661
F0.33333333333333331
sg3375
F0.33333333333333331
ss(g3620
tp7221
g1
(g6
tRp7222
g1432
F1
ss(g82
g1955
tp7223
g1
(g6
tRp7224
g2952
F1
ss(g4745
g5327
tp7225
g1
(g6
tRp7226
S''
F1
ss(g3652
tp7227
g1
(g6
tRp7228
S''
F1
ss(g1062
tp7229
g1
(g6
tRp7230
S''
F1
ss(g4450
g4453
tp7231
g1
(g6
tRp7232
g480
F1
ss(S'fact'
g3056
tp7233
g1
(g6
tRp7234
g4586
F1
ss(g197
g200
tp7235
g1
(g6
tRp7236
S'we'
p7237
F1
ss(g1092
tp7238
g1
(g6
tRp7239
g1093
F1
ss(g3841
g3123
tp7240
g1
(g6
tRp7241
S''
F0.66249999999999998
sg2553
F0.33750000000000002
ss(g1333
tp7242
g1
(g6
tRp7243
S''
F0.33209647495361788
sg2549
F0.16697588126159557
sg1334
F0.16697588126159557
sg2655
F0.16697588126159557
sg4962
F0.16697588126159557
ss(g4937
tp7244
g1
(g6
tRp7245
g5165
F0.66249999999999998
sg2377
F0.33750000000000002
ss(g2195
g2469
tp7246
g1
(g6
tRp7247
g2470
F1
ss(g3827
g3830
tp7248
g1
(g6
tRp7249
S'a'
F1
ss(g3168
g802
tp7250
g1
(g6
tRp7251
S'a'
F1
ss(g1502
tp7252
g1
(g6
tRp7253
g6252
F1
ss(g1661
tp7254
g1
(g6
tRp7255
S'a'
F0.10000000000000002
sg655
F0.10000000000000002
sg4937
F0.10000000000000002
sg4523
F0.10000000000000002
sg3235
F0.10000000000000002
sg3452
F0.10000000000000002
sg7024
F0.10000000000000002
sS'the'
p7256
F0.10000000000000002
sg1531
F0.10000000000000002
sg1662
F0.10000000000000002
ss(S'And'
g5159
tp7257
g1
(g6
tRp7258
g2726
F1
ss(g3209
g3212
tp7259
g1
(g6
tRp7260
g7181
F1
ss(g1226
tp7261
g1
(g6
tRp7262
g1679
F0.25
sg1229
F0.25
sg179
F0.25
sg962
F0.25
ss(g368
tp7263
g1
(g6
tRp7264
g371
F1
ss(g4866
g4668
tp7265
g1
(g6
tRp7266
g2277
F1
ss(g2510
g2513
tp7267
g1
(g6
tRp7268
S'not'
p7269
F0.5
sg3369
F0.5
ss(g359
tp7270
g1
(g6
tRp7271
S'I'
F1
ss(g3172
g3175
tp7272
g1
(g6
tRp7273
g4367
F1
ss(g4890
g3525
tp7274
g1
(g6
tRp7275
g4965
F1
ss(g771
g774
tp7276
g1
(g6
tRp7277
g4376
F1
ss(S'knows'
p7278
g4752
tp7279
g1
(g6
tRp7280
S"he's"
p7281
F1
ss(g5387
g1989
tp7282
g1
(g6
tRp7283
g2941
F1
ss(g543
g621
tp7284
g1
(g6
tRp7285
S'that'
p7286
F1
ss(g4339
tp7287
g1
(g6
tRp7288
g5037
F0.49714285714285716
sg5736
F0.25142857142857145
sg4515
F0.25142857142857145
ss(g4456
g4459
tp7289
g1
(g6
tRp7290
g3494
F1
ss(g920
tp7291
g1
(g6
tRp7292
g921
F0.66249999999999998
sg2637
F0.33750000000000002
ss(g5908
g3712
tp7293
g1
(g6
tRp7294
S''
F0.5
sg1845
F0.5
ss(g54
tp7295
g1
(g6
tRp7296
g348
F0.5
sg4884
F0.5
ss(g1524
tp7297
g1
(g6
tRp7298
g4697
F0.77727272727272723
sg503
F0.22272727272727275
ss(g4449
tp7299
g1
(g6
tRp7300
g4479
F1
ss(g1952
g937
tp7301
g1
(g6
tRp7302
g806
F1
ss(g2538
tp7303
g1
(g6
tRp7304
g422
F0.25142857142857145
sg2541
F0.49714285714285716
sg924
F0.25142857142857145
ss(g6584
g6075
tp7305
g1
(g6
tRp7306
g4606
F1
ss(S"We've"
g4489
tp7307
g1
(g6
tRp7308
g3311
F1
ss(g878
g275
tp7309
g1
(g6
tRp7310
g276
F0.5
sg2872
F0.5
ss(g1502
g6252
tp7311
g1
(g6
tRp7312
g4331
F1
ss(g371
g4328
tp7313
g1
(g6
tRp7314
g1857
F1
ss(g585
g718
tp7315
g1
(g6
tRp7316
g4872
F1
ss(g7042
g1949
tp7317
g1
(g6
tRp7318
g4000
F1
ss(S'decisions'
g3908
tp7319
g1
(g6
tRp7320
g944
F1
ss(S'If'
g3270
tp7321
g1
(g6
tRp7322
g3271
F1
ss(g3748
g3751
tp7323
g1
(g6
tRp7324
S'New'
p7325
F1
ss(g919
g2257
tp7326
g1
(g6
tRp7327
S''
F1
ss(S'We'
g3194
tp7328
g1
(g6
tRp7329
g3195
F1
ss(g5162
g2157
tp7330
g1
(g6
tRp7331
g2158
F1
ss(g3633
tp7332
g1
(g6
tRp7333
S''
F1
ss(g2465
tp7334
g1
(g6
tRp7335
S''
F0.25
sg6258
F0.25
sg2466
F0.25
sg1074
F0.25
ss(S'Not'
g6644
tp7336
g1
(g6
tRp7337
g3920
F1
ss(S'Let'
S'me'
p7338
tp7339
g1
(g6
tRp7340
S'tell'
p7341
F1
ss(g4129
g1314
tp7342
g1
(g6
tRp7343
g1317
F1
ss(g322
g325
tp7344
g1
(g6
tRp7345
g2527
F0.5
sg1078
F0.5
ss(g1711
g5449
tp7346
g1
(g6
tRp7347
g4852
F1
ss(g2298
tp7348
g1
(g6
tRp7349
S''
F0.33333333333333331
sg2301
F0.33333333333333331
sg3146
F0.33333333333333331
ss(g173
g1420
tp7350
g1
(g6
tRp7351
g2637
F1
ss(g3640
tp7352
g1
(g6
tRp7353
g4549
F1
ss(g2533
S'a'
tp7354
g1
(g6
tRp7355
g750
F0.5
sS'much'
p7356
F0.5
ss(g4385
g7042
tp7357
g1
(g6
tRp7358
g1949
F1
ss(g3120
g5967
tp7359
g1
(g6
tRp7360
g5810
F1
ss(g260
g6059
tp7361
g1
(g6
tRp7362
g608
F1
ss(g1123
tp7363
g1
(g6
tRp7364
g3759
F0.25142857142857145
sg2297
F0.49714285714285716
sg3848
F0.25142857142857145
ss(g1226
g1229
tp7365
g1
(g6
tRp7366
g3426
F1
ss(g3427
tp7367
g1
(g6
tRp7368
g3428
F1
ss(g6096
S'a'
tp7369
g1
(g6
tRp7370
g2459
F1
ss(g1334
g1337
tp7371
g1
(g6
tRp7372
S'a'
F0.33333333333333331
sg6611
F0.33333333333333331
sg137
F0.33333333333333331
ss(S'What'
g5739
tp7373
g1
(g6
tRp7374
g1840
F1
ss(S'I'
g1136
tp7375
g1
(g6
tRp7376
g1140
F1
ss(g5687
S'and'
p7377
tp7378
g1
(g6
tRp7379
g572
F1
ss(g3495
g3498
tp7380
g1
(g6
tRp7381
g4762
F1
ss(S'nix'
g2046
tp7382
g1
(g6
tRp7383
S'radical'
p7384
F1
ss(g507
g6789
tp7385
g1
(g6
tRp7386
S''
F1
ss(g1058
g474
tp7387
g1
(g6
tRp7388
g1133
F1
ss(g5908
tp7389
g1
(g6
tRp7390
g3712
F1
ss(g66
g69
tp7391
g1
(g6
tRp7392
g527
F1
ss(g5494
tp7393
g1
(g6
tRp7394
g5497
F1
ss(g3452
g1067
tp7395
g1
(g6
tRp7396
g1214
F1
ss(g4078
g4333
tp7397
g1
(g6
tRp7398
g6063
F1
ss(g4304
g3719
tp7399
g1
(g6
tRp7400
g3720
F1
ss(g4900
g3731
tp7401
g1
(g6
tRp7402
g3732
F1
ss(g3637
g208
tp7403
g1
(g6
tRp7404
g211
F0.5
sg212
F0.5
ss(g3288
tp7405
g1
(g6
tRp7406
S'I'
F1
ss(g6270
g3957
tp7407
g1
(g6
tRp7408
g1828
F1
ss(g2824
tp7409
g1
(g6
tRp7410
S'a'
F1
ss(g2341
tp7411
g1
(g6
tRp7412
g5684
F1
ss(g1504
g928
tp7413
g1
(g6
tRp7414
S'I'
F1
ss(g5525
g2227
tp7415
g1
(g6
tRp7416
g2230
F1
ss(g3647
tp7417
g1
(g6
tRp7418
S''
F1
ss(g4202
g1044
tp7419
g1
(g6
tRp7420
g3089
F1
ss(g2967
g5135
tp7421
g1
(g6
tRp7422
g4385
F1
ss(g2573
tp7423
g1
(g6
tRp7424
g2576
F1
ss(g775
tp7425
g1
(g6
tRp7426
g776
F0.5
sS''
F0.5
ss(g296
tp7427
g1
(g6
tRp7428
g2350
F1
ss(g2249
tp7429
g1
(g6
tRp7430
g2250
F1
ss(g1950
g4296
tp7431
g1
(g6
tRp7432
g5561
F0.33750000000000002
sg5562
F0.66249999999999998
ss(g932
tp7433
g1
(g6
tRp7434
g933
F1
ss(g983
g4662
tp7435
g1
(g6
tRp7436
g5786
F1
ss(g2561
g2564
tp7437
g1
(g6
tRp7438
g869
F0.33333333333333331
sg4149
F0.33333333333333331
sg2465
F0.33333333333333331
ss(g1541
tp7439
g1
(g6
tRp7440
g1544
F1
ss(S'a'
g3125
tp7441
g1
(g6
tRp7442
g3126
F1
ss(g127
g130
tp7443
g1
(g6
tRp7444
g667
F1
ss(g1674
tp7445
g1
(g6
tRp7446
g1675
F1
ss(g3185
tp7447
g1
(g6
tRp7448
g1427
F0.33333333333333331
sg4752
F0.33333333333333331
sg4753
F0.33333333333333331
ss(g3572
g3575
tp7449
g1
(g6
tRp7450
g478
F0.33333333333333331
sg5382
F0.33333333333333331
sg476
F0.33333333333333331
ss(g6217
tp7451
g1
(g6
tRp7452
S''
F1
ss(g1030
g1971
tp7453
g1
(g6
tRp7454
g3417
F1
ss(g980
g986
tp7455
g1
(g6
tRp7456
g1051
F0.5
sg1045
F0.5
ss(g1619
g1626
tp7457
g1
(g6
tRp7458
g10
F1
ss(g3666
g3669
tp7459
g1
(g6
tRp7460
g5957
F1
ss(S'responsibility'
g4771
tp7461
g1
(g6
tRp7462
g2270
F1
ss(g1274
g545
tp7463
g1
(g6
tRp7464
S''
F1
ss(g1285
tp7465
g1
(g6
tRp7466
g2462
F0.0076336786380774655
sg499
F0.045800749429781691
sg3102
F0.0076336786380774655
sg1200
F0.0076336786380774655
sg4731
F0.0076336786380774655
sg2227
F0.0076336786380774655
sg2612
F0.0076336786380774655
sg2735
F0.0076336786380774655
sg4401
F0.0076336786380774655
sg2154
F0.0076336786380774655
sg2315
F0.0076336786380774655
sg1476
F0.0076336786380774655
sg2254
F0.030533921113099997
sg917
F0.0076336786380774655
sg356
F0.0076336786380774655
sg105
F0.015267092796418308
sg3988
F0.0076336786380774655
sg1314
F0.0076336786380774655
sg314
F0.0076336786380774655
sg3216
F0.0076336786380774655
sg932
F0.0076336786380774655
sg2032
F0.05343416358812253
sg6066
F0.0076336786380774655
sg948
F0.0076336786380774655
sg916
F0.0076336786380774655
sg5699
F0.0076336786380774655
sg1108
F0.015267092796418308
sg357
F0.0076336786380774655
sg3253
F0.015267092796418308
sg230
F0.0076336786380774655
sg1765
F0.0076336786380774655
sg4228
F0.0076336786380774655
sg719
F0.0076336786380774655
sg890
F0.015267092796418308
sg875
F0.0076336786380774655
sg1541
F0.0076336786380774655
sg1023
F0.0076336786380774655
sg1258
F0.015267092796418308
sg3455
F0.0076336786380774655
sg343
F0.045800749429781691
sg1497
F0.0076336786380774655
sg188
F0.015267092796418308
sg6060
F0.0076336786380774655
sg5221
F0.015267092796418308
sg2291
F0.0076336786380774655
sg632
F0.0076336786380774655
sg928
F0.0076336786380774655
sg987
F0.015267092796418308
sg2284
F0.0076336786380774655
sg2959
F0.0076336786380774655
sg5414
F0.0076336786380774655
sg4520
F0.015267092796418308
sg2316
F0.0076336786380774655
sg3857
F0.0076336786380774655
sg6462
F0.0076336786380774655
sg1525
F0.0076336786380774655
sg4872
F0.015267092796418308
sg1009
F0.0076336786380774655
sg1443
F0.015267092796418308
sg4745
F0.0076336786380774655
sg117
F0.0076336786380774655
sg2173
F0.0076336786380774655
sg6059
F0.0076336786380774655
sg6284
F0.0076336786380774655
sg3821
F0.0076336786380774655
sg2473
F0.0076336786380774655
sg3154
F0.0076336786380774655
sg2114
F0.0076336786380774655
sg677
F0.0076336786380774655
sg1572
F0.0076336786380774655
sg1167
F0.0076336786380774655
sg131
F0.015267092796418308
sg5503
F0.0076336786380774655
sg65
F0.0076336786380774655
sg4694
F0.0076336786380774655
sg2440
F0.015267092796418308
sg6178
F0.0076336786380774655
sg4506
F0.022900506954759155
sg5196
F0.0076336786380774655
sg918
F0.022900506954759155
sg3152
F0.015267092796418308
sg74
F0.015267092796418308
sg2833
F0.0076336786380774655
sg2935
F0.0076336786380774655
sg1293
F0.0076336786380774655
sg3339
F0.061067577746463382
ss(g567
tp7467
g1
(g6
tRp7468
g568
F1
ss(g562
g5149
tp7469
g1
(g6
tRp7470
S'the'
p7471
F1
ss(g1113
g434
tp7472
g1
(g6
tRp7473
g1887
F1
ss(g3725
tp7474
g1
(g6
tRp7475
g1149
F0.11108534322820035
sg1987
F0.037047773654916509
sg1909
F0.037047773654916509
sg3074
F0.037047773654916509
sS'I'
F0.037047773654916509
sg4316
F0.037047773654916509
sg1989
F0.11108534322820035
sg2561
F0.11108534322820035
sg5675
F0.037047773654916509
sg1578
F0.037047773654916509
sg2146
F0.037047773654916509
sg460
F0.037047773654916509
sg3575
F0.11108534322820035
sg2849
F0.074066558441558433
sg21
F0.037047773654916509
sg298
F0.037047773654916509
sg1394
F0.074066558441558433
ss(S'I'
tp7476
g1
(g6
tRp7477
g1218
F0.021278349156118152
sg2824
F0.021278349156118152
sg1136
F0.021278349156118152
sg2064
F0.021278349156118152
sg681
F0.085096914556962069
sg1789
F0.021278349156118152
sg2062
F0.021278349156118152
sg2989
F0.021278349156118152
sg5059
F0.1063697696905767
sg40
F0.063824059423347429
sg613
F0.021278349156118152
sg4100
F0.021278349156118152
sS'take'
p7478
F0.021278349156118152
sg3291
F0.021278349156118152
sg100
F0.021278349156118152
sg504
F0.021278349156118152
sg2390
F0.042551204289732782
sg746
F0.021278349156118152
sg3707
F0.021278349156118152
sg2065
F0.021278349156118152
sg334
F0.021278349156118152
sg2063
F0.021278349156118152
sg6264
F0.042551204289732782
sg6349
F0.021278349156118152
sg6217
F0.021278349156118152
sg1152
F0.021278349156118152
sg5824
F0.021278349156118152
sg4975
F0.021278349156118152
sg261
F0.021278349156118152
sg2476
F0.042551204289732782
sg1406
F0.085096914556962069
sg3246
F0.021278349156118152
ss(g3661
g5175
tp7479
g1
(g6
tRp7480
g5439
F1
ss(g5196
tp7481
g1
(g6
tRp7482
g2919
F0.5
sS''
F0.5
ss(g3558
g3561
tp7483
g1
(g6
tRp7484
S'the'
p7485
F1
ss(g1158
g2161
tp7486
g1
(g6
tRp7487
g4635
F1
ss(S'I'
g5059
tp7488
g1
(g6
tRp7489
S''
F0.39814814814814814
sg6029
F0.20061728395061729
sg1823
F0.20061728395061729
sg2322
F0.20061728395061729
ss(g1923
g1004
tp7490
g1
(g6
tRp7491
g1005
F1
ss(g1390
g1393
tp7492
g1
(g6
tRp7493
g1960
F1
ss(g1499
g1502
tp7494
g1
(g6
tRp7495
g6252
F1
ss(g3653
g3338
tp7496
g1
(g6
tRp7497
g6327
F0.14409722222222221
sg3339
F0.85590277777777779
ss(g2699
S'should'
p7498
tp7499
g1
(g6
tRp7500
g3079
F1
ss(g380
tp7501
g1
(g6
tRp7502
S''
F0.22199999999999998
sg1550
F0.33266666666666667
sg2958
F0.11133333333333333
sg1480
F0.11133333333333333
sg222
F0.11133333333333333
sg5179
F0.11133333333333333
ss(g3461
tp7503
g1
(g6
tRp7504
g3462
F1
ss(g1014
g1017
tp7505
g1
(g6
tRp7506
g1193
F1
ss(g3423
g2487
tp7507
g1
(g6
tRp7508
g2488
F1
ss(g4316
tp7509
g1
(g6
tRp7510
g1141
F0.33333333333333331
sg2764
F0.33333333333333331
sg4317
F0.33333333333333331
ss(g19
S'D'
tp7511
g1
(g6
tRp7512
S''
F1
ss(g2202
tp7513
g1
(g6
tRp7514
g765
F1
ss(g120
g3557
tp7515
g1
(g6
tRp7516
g3558
F1
ss(g571
g4907
tp7517
g1
(g6
tRp7518
S'a'
F1
ss(g5066
tp7519
g1
(g6
tRp7520
g286
F0.5
sg5067
F0.5
ss(g4482
g4334
tp7521
g1
(g6
tRp7522
g3146
F1
ss(g3393
g3202
tp7523
g1
(g6
tRp7524
g4297
F1
ss(g2726
g5162
tp7525
g1
(g6
tRp7526
g2157
F1
ss(g4511
tp7527
g1
(g6
tRp7528
g795
F0.5
sg3427
F0.5
ss(g155
g6970
tp7529
g1
(g6
tRp7530
S''
F1
ss(g681
tp7531
g1
(g6
tRp7532
g1426
F0.14346590909090909
sg1671
F0.14346590909090909
sg682
F0.14346590909090909
sg2800
F0.56960227272727271
ss(g1273
g1206
tp7533
g1
(g6
tRp7534
g2172
F1
ss(g608
tp7535
g1
(g6
tRp7536
g609
F1
ss(g1612
g1615
tp7537
g1
(g6
tRp7538
g2374
F1
ss(S'a'
g2860
tp7539
g1
(g6
tRp7540
g761
F1
ss(S'a'
g1524
tp7541
g1
(g6
tRp7542
g4697
F1
ss(g2189
tp7543
g1
(g6
tRp7544
S''
F1
ss(g2387
g6270
tp7545
g1
(g6
tRp7546
g3957
F0.33333333333333331
sg317
F0.33333333333333331
sg2133
F0.33333333333333331
ss(g2032
g2036
tp7547
g1
(g6
tRp7548
S'have'
p7549
F0.5
sg3884
F0.5
ss(g2792
g4605
tp7550
g1
(g6
tRp7551
S'can'
p7552
F1
ss(g2971
g962
tp7553
g1
(g6
tRp7554
S''
F1
ss(S'of'
p7555
g1746
tp7556
g1
(g6
tRp7557
g819
F1
ss(g577
g580
tp7558
g1
(g6
tRp7559
g861
F1
ss(g183
g4835
tp7560
g1
(g6
tRp7561
g1564
F0.5
sg1657
F0.5
ss(g4329
g6091
tp7562
g1
(g6
tRp7563
g3950
F1
ss(g2062
g4425
tp7564
g1
(g6
tRp7565
g49
F1
ss(g3398
tp7566
g1
(g6
tRp7567
g3789
F0.5
sg3399
F0.5
ss(g4242
g3068
tp7568
g1
(g6
tRp7569
g3069
F1
ss(g869
tp7570
g1
(g6
tRp7571
g870
F0.33333333333333331
sg971
F0.33333333333333331
sg5565
F0.33333333333333331
ss(g3175
g4367
tp7572
g1
(g6
tRp7573
S'I'
F1
ss(g600
g860
tp7574
g1
(g6
tRp7575
g6378
F1
ss(g730
g734
tp7576
g1
(g6
tRp7577
g1178
F1
ss(g6148
g3345
tp7578
g1
(g6
tRp7579
g4232
F1
ss(S'C'
tp7580
g1
(g6
tRp7581
S''
F1
ss(g687
g690
tp7582
g1
(g6
tRp7583
g1244
F1
ss(g280
tp7584
g1
(g6
tRp7585
g281
F1
ss(g933
tp7586
g1
(g6
tRp7587
g936
F1
ss(g5121
g5981
tp7588
g1
(g6
tRp7589
g3876
F0.5
sS'talk'
p7590
F0.5
ss(g795
g798
tp7591
g1
(g6
tRp7592
g7136
F1
ss(g2707
g5791
tp7593
g1
(g6
tRp7594
g1039
F1
ss(g3642
g6096
tp7595
g1
(g6
tRp7596
S'a'
F1
ss(g5609
g544
tp7597
g1
(g6
tRp7598
g2595
F1
ss(g1631
g2736
tp7599
g1
(g6
tRp7600
g3612
F0.5
sg2495
F0.5
ss(g1658
g972
tp7601
g1
(g6
tRp7602
g973
F1
ss(S'I'
g2064
tp7603
g1
(g6
tRp7604
g2732
F1
ss(g5940
g1849
tp7605
g1
(g6
tRp7606
g1850
F1
ss(g344
g347
tp7607
g1
(g6
tRp7608
g5201
F1
ss(g2350
g2353
tp7609
g1
(g6
tRp7610
g4444
F1
ss(g2296
g2419
tp7611
g1
(g6
tRp7612
g1947
F1
ss(g1652
g4339
tp7613
g1
(g6
tRp7614
g5736
F1
ss(g2699
tp7615
g1
(g6
tRp7616
g3410
F0.25142857142857145
sg3090
F0.49714285714285716
sg7498
F0.25142857142857145
ss(g4607
g4610
tp7617
g1
(g6
tRp7618
g1055
F1
ss(g6196
g2572
tp7619
g1
(g6
tRp7620
g2573
F1
ss(g809
tp7621
g1
(g6
tRp7622
g810
F0.5
sg3331
F0.5
ss(S'we'
g4875
tp7623
g1
(g6
tRp7624
g1643
F1
ss(g439
tp7625
g1
(g6
tRp7626
g192
F1
ss(g7286
g1054
tp7627
g1
(g6
tRp7628
S'of'
p7629
F1
ss(g3854
g3862
tp7630
g1
(g6
tRp7631
S'the'
p7632
F1
ss(g1019
tp7633
g1
(g6
tRp7634
S''
F0.16666666666666666
sg3603
F0.16666666666666666
sg248
F0.16666666666666666
sg2595
F0.16666666666666666
sg1022
F0.16666666666666666
sg196
F0.16666666666666666
ss(g5503
tp7635
g1
(g6
tRp7636
g701
F1
ss(g3982
g2311
tp7637
g1
(g6
tRp7638
g2312
F1
ss(g204
g5962
tp7639
g1
(g6
tRp7640
S'a'
F0.33333333333333331
sg7256
F0.33333333333333331
sg7024
F0.33333333333333331
ss(g2022
tp7641
g1
(g6
tRp7642
g2025
F1
ss(g3628
tp7643
g1
(g6
tRp7644
g5739
F0.25
sg1841
F0.25
sg3304
F0.25
sg1252
F0.25
ss(g5158
g6495
tp7645
g1
(g6
tRp7646
g5221
F1
ss(g2067
tp7647
g1
(g6
tRp7648
g2070
F1
ss(g2353
g4444
tp7649
g1
(g6
tRp7650
g954
F1
ss(g3679
g3025
tp7651
g1
(g6
tRp7652
g2066
F1
ss(g4852
g104
tp7653
g1
(g6
tRp7654
g105
F1
ss(g5449
g4852
tp7655
g1
(g6
tRp7656
g104
F1
ss(S'U'
tp7657
g1
(g6
tRp7658
S''
F1
ss(g566
tp7659
g1
(g6
tRp7660
g5400
F1
ss(g3985
g3988
tp7661
g1
(g6
tRp7662
g1538
F1
ss(g4896
g985
tp7663
g1
(g6
tRp7664
g5432
F1
ss(g5135
g4385
tp7665
g1
(g6
tRp7666
g7042
F1
ss(g4449
g4479
tp7667
g1
(g6
tRp7668
g4482
F1
ss(g2162
tp7669
g1
(g6
tRp7670
g4938
F1
ss(S'These'
g1530
tp7671
g1
(g6
tRp7672
g1531
F1
ss(g1218
g1221
tp7673
g1
(g6
tRp7674
g3892
F1
ss(g580
tp7675
g1
(g6
tRp7676
g20
F0.5
sg861
F0.5
ss(g39
g256
tp7677
g1
(g6
tRp7678
g257
F1
ss(g7051
g5213
tp7679
g1
(g6
tRp7680
g1604
F1
ss(g7629
g4330
tp7681
g1
(g6
tRp7682
g4822
F1
ss(g4330
tp7683
g1
(g6
tRp7684
g4822
F1
ss(g1623
g2021
tp7685
g1
(g6
tRp7686
g2022
F1
ss(g3635
tp7687
g1
(g6
tRp7688
g852
F0.083354772317983022
sg2877
F0.083354772317983022
sg5932
F0.083354772317983022
sg991
F0.1664522768201698
sg3308
F0.083354772317983022
sg2975
F0.083354772317983022
sg4878
F0.083354772317983022
sg6010
F0.083354772317983022
sg1304
F0.083354772317983022
sg4516
F0.083354772317983022
sg2097
F0.083354772317983022
ss(g2401
S'a'
tp7689
g1
(g6
tRp7690
g2775
F1
ss(g3735
tp7691
g1
(g6
tRp7692
g4203
F1
ss(g2048
g2051
tp7693
g1
(g6
tRp7694
g1998
F1
ss(g3414
tp7695
g1
(g6
tRp7696
g5898
F1
ss(g1838
g3867
tp7697
g1
(g6
tRp7698
g3930
F1
ss(g945
g948
tp7699
g1
(g6
tRp7700
g2714
F1
ss(g2545
g2548
tp7701
g1
(g6
tRp7702
g1594
F1
ss(g5731
g411
tp7703
g1
(g6
tRp7704
g1199
F1
ss(g658
g1757
tp7705
g1
(g6
tRp7706
g1467
F1
ss(g1000
g1003
tp7707
g1
(g6
tRp7708
g1338
F1
ss(g2047
tp7709
g1
(g6
tRp7710
g2281
F1
ss(g4700
g1031
tp7711
g1
(g6
tRp7712
g1034
F1
ss(g2084
g2087
tp7713
g1
(g6
tRp7714
S''
F1
ss(g2665
g6534
tp7715
g1
(g6
tRp7716
S'the'
p7717
F1
ss(g3420
g3423
tp7718
g1
(g6
tRp7719
g2487
F1
ss(g7377
g572
tp7720
g1
(g6
tRp7721
g575
F1
ss(g1390
tp7722
g1
(g6
tRp7723
g1393
F1
ss(g1270
g1285
tp7724
g1
(g6
tRp7725
g3542
F0.12510288065843622
sg719
F0.12510288065843622
sg2032
F0.12510288065843622
sg6462
F0.12510288065843622
sg632
F0.12510288065843622
sg2114
F0.12510288065843622
sg987
F0.24938271604938272
ss(g1376
g2177
tp7726
g1
(g6
tRp7727
S''
F1
ss(g2259
g3392
tp7728
g1
(g6
tRp7729
g3393
F1
ss(g4732
g4336
tp7730
g1
(g6
tRp7731
S''
F1
ss(g3517
g217
tp7732
g1
(g6
tRp7733
g220
F1
ss(g5045
tp7734
g1
(g6
tRp7735
S''
F1
ss(g4634
g5565
tp7736
g1
(g6
tRp7737
S'New'
p7738
F1
ss(g3720
g1679
tp7739
g1
(g6
tRp7740
g1682
F1
ss(S'what'
g1909
tp7741
g1
(g6
tRp7742
g1910
F1
ss(g2065
g5940
tp7743
g1
(g6
tRp7744
g1849
F1
ss(g1108
tp7745
g1
(g6
tRp7746
g1109
F1
ss(g4953
tp7747
g1
(g6
tRp7748
g3083
F1
ss(S'You'
g4516
tp7749
g1
(g6
tRp7750
g4517
F1
ss(g399
g847
tp7751
g1
(g6
tRp7752
g439
F0.25
sg848
F0.25
sg2816
F0.25
sg352
F0.25
ss(S'And'
S'I'
tp7753
g1
(g6
tRp7754
g1670
F1
ss(g2226
g1965
tp7755
g1
(g6
tRp7756
g3213
F1
ss(g3477
g85
tp7757
g1
(g6
tRp7758
g5616
F1
ss(g2476
tp7759
g1
(g6
tRp7760
g4866
F0.5
sg3356
F0.5
ss(g4731
tp7761
g1
(g6
tRp7762
g4732
F1
ss(g5295
tp7763
g1
(g6
tRp7764
g5298
F1
ss(g4329
tp7765
g1
(g6
tRp7766
g6091
F1
ss(g2608
g2611
tp7767
g1
(g6
tRp7768
g6140
F1
ss(g4364
g3499
tp7769
g1
(g6
tRp7770
g1273
F1
ss(g1792
g2074
tp7771
g1
(g6
tRp7772
g3787
F0.5
sg1270
F0.5
ss(S'a'
g285
tp7773
g1
(g6
tRp7774
g286
F1
ss(g2524
g2245
tp7775
g1
(g6
tRp7776
g2248
F1
ss(g471
g3060
tp7777
g1
(g6
tRp7778
g3389
F0.5
sg6201
F0.5
ss(g5558
g3897
tp7779
g1
(g6
tRp7780
S''
F1
ss(g4288
S'a'
tp7781
g1
(g6
tRp7782
g1616
F0.25
sg93
F0.25
sg1117
F0.25
sg3518
F0.25
ss(g1308
tp7783
g1
(g6
tRp7784
g1311
F1
ss(g5786
g4342
tp7785
g1
(g6
tRp7786
S''
F1
ss(g888
g958
tp7787
g1
(g6
tRp7788
g959
F1
ss(g6337
g5515
tp7789
g1
(g6
tRp7790
g2003
F1
ss(g3195
g3198
tp7791
g1
(g6
tRp7792
g296
F1
ss(g3182
g3455
tp7793
g1
(g6
tRp7794
S''
F1
ss(g6255
g476
tp7795
g1
(g6
tRp7796
S'to'
p7797
F1
ss(g691
tp7798
g1
(g6
tRp7799
S''
F0.5
sg694
F0.5
ss(g482
g485
tp7800
g1
(g6
tRp7801
g6772
F1
ss(g513
g516
tp7802
g1
(g6
tRp7803
g2514
F1
ss(g3051
g2273
tp7804
g1
(g6
tRp7805
g2276
F1
ss(g3748
tp7806
g1
(g6
tRp7807
g3751
F1
ss(g243
g246
tp7808
g1
(g6
tRp7809
g3603
F1
ss(g2296
tp7810
g1
(g6
tRp7811
g2419
F1
ss(g916
tp7812
g1
(g6
tRp7813
g3061
F1
ss(g105
tp7814
g1
(g6
tRp7815
g108
F0.5
sg109
F0.5
ss(g2800
g2805
tp7816
g1
(g6
tRp7817
g2231
F1
ss(g363
g366
tp7818
g1
(g6
tRp7819
g2922
F1
ss(g485
g6772
tp7820
g1
(g6
tRp7821
g3048
F1
ss(g875
g878
tp7822
g1
(g6
tRp7823
g275
F1
ss(S'a'
g1498
tp7824
g1
(g6
tRp7825
g1499
F1
ss(g3908
g944
tp7826
g1
(g6
tRp7827
g945
F1
ss(g2374
g2377
tp7828
g1
(g6
tRp7829
S''
F1
ss(g131
tp7830
g1
(g6
tRp7831
g132
F0.66249999999999998
sg2852
F0.33750000000000002
ss(g958
tp7832
g1
(g6
tRp7833
g959
F1
ss(g479
tp7834
g1
(g6
tRp7835
g2482
F0.37389770723104065
sS'I'
F0.12522045855379191
sg1410
F0.12522045855379191
sg5072
F0.12522045855379191
sg4142
F0.12522045855379191
sg1411
F0.12522045855379191
ss(g2735
tp7836
g1
(g6
tRp7837
g1298
F1
ss(g4335
g5687
tp7838
g1
(g6
tRp7839
g7377
F1
ss(g680
g1812
tp7840
g1
(g6
tRp7841
g1815
F1
ss(g641
g644
tp7842
g1
(g6
tRp7843
g3699
F1
ss(g2968
g2971
tp7844
g1
(g6
tRp7845
g179
F0.5
sg962
F0.5
ss(g5699
g5702
tp7846
g1
(g6
tRp7847
g1591
F1
ss(g130
tp7848
g1
(g6
tRp7849
g667
F1
ss(g851
g6178
tp7850
g1
(g6
tRp7851
S''
F1
ss(g2126
tp7852
g1
(g6
tRp7853
g2129
F0.5
sg2288
F0.5
ss(g2578
tp7854
g1
(g6
tRp7855
g2581
F0.083403775711468009
sg4157
F0.16652578191039732
sg5635
F0.083403775711468009
sg4949
F0.083403775711468009
sg4042
F0.16652578191039732
sg2296
F0.083403775711468009
sg2631
F0.083403775711468009
sg3221
F0.16652578191039732
sg3089
F0.083403775711468009
ss(g3663
g3698
tp7856
g1
(g6
tRp7857
g2253
F1
ss(g904
tp7858
g1
(g6
tRp7859
g905
F1
ss(g2764
tp7860
g1
(g6
tRp7861
g4511
F1
ss(g6318
g4316
tp7862
g1
(g6
tRp7863
g4317
F1
ss(g3064
tp7864
g1
(g6
tRp7865
g289
F0.5
sg1871
F0.5
ss(g4694
g1749
tp7866
g1
(g6
tRp7867
g1750
F1
ss(g2824
S'a'
tp7868
g1
(g6
tRp7869
g3516
F1
ss(g5982
g53
tp7870
g1
(g6
tRp7871
g6007
F1
ss(g1373
g1376
tp7872
g1
(g6
tRp7873
g2177
F1
ss(g2276
g1558
tp7874
g1
(g6
tRp7875
g1561
F1
ss(g1554
g1557
tp7876
g1
(g6
tRp7877
g6443
F1
ss(S'womb,'
g894
tp7878
g1
(g6
tRp7879
g2192
F1
ss(g2925
tp7880
g1
(g6
tRp7881
S''
F0.5
sg757
F0.5
ss(S'The'
g3620
tp7882
g1
(g6
tRp7883
g1432
F1
ss(g1771
g4680
tp7884
g1
(g6
tRp7885
S''
F1
ss(g753
tp7886
g1
(g6
tRp7887
S''
F0.5
sg5121
F0.5
ss(S'a'
g3519
tp7888
g1
(g6
tRp7889
g5013
F1
ss(g957
tp7890
g1
(g6
tRp7891
g1760
F1
ss(g5280
tp7892
g1
(g6
tRp7893
g5283
F1
ss(g5253
g1018
tp7894
g1
(g6
tRp7895
g1019
F1
ss(g3867
tp7896
g1
(g6
tRp7897
g3930
F1
ss(g2342
g1838
tp7898
g1
(g6
tRp7899
g3867
F1
ss(g3319
g3288
tp7900
g1
(g6
tRp7901
S'I'
F1
ss(g182
g3004
tp7902
g1
(g6
tRp7903
g4656
F0.5
sg3005
F0.5
ss(g100
g103
tp7904
g1
(g6
tRp7905
g3971
F1
ss(g1133
tp7906
g1
(g6
tRp7907
S'a'
F0.5
sg2196
F0.5
ss(g3518
tp7908
g1
(g6
tRp7909
g6674
F1
ss(g366
tp7910
g1
(g6
tRp7911
g2922
F0.11125
sS''
F0.11125
sg2761
F0.11125
sg2821
F0.11125
sg5213
F0.22187499999999999
sg5214
F0.22187499999999999
sg4304
F0.11125
ss(g597
tp7912
g1
(g6
tRp7913
g600
F0.5
sg601
F0.5
ss(g3988
tp7914
g1
(g6
tRp7915
g1538
F1
ss(g3455
tp7916
g1
(g6
tRp7917
S''
F1
ss(g1870
tp7918
g1
(g6
tRp7919
g2853
F1
ss(S'last'
p7920
g1601
tp7921
g1
(g6
tRp7922
g3747
F1
ss(g2281
g2284
tp7923
g1
(g6
tRp7924
g2201
F1
ss(g1446
g1449
tp7925
g1
(g6
tRp7926
g1369
F1
ss(g2804
g1326
tp7927
g1
(g6
tRp7928
g6148
F1
ss(g3650
tp7929
g1
(g6
tRp7930
g7338
F0.5
sg5728
F0.5
ss(g1090
g699
tp7931
g1
(g6
tRp7932
S''
F1
ss(g6495
g5221
tp7933
g1
(g6
tRp7934
g965
F0.5
sg711
F0.5
ss(g4173
g3982
tp7935
g1
(g6
tRp7936
g2311
F1
ss(g4878
tp7937
g1
(g6
tRp7938
g1420
F0.055569545874255007
sg3414
F0.055569545874255007
sg3957
F0.055569545874255007
sg2133
F0.055569545874255007
sg1439
F0.055569545874255007
sg317
F0.055569545874255007
sg617
F0.055569545874255007
sg2573
F0.055569545874255007
sg29
F0.22202635776042975
sg1221
F0.055569545874255007
sg1440
F0.055569545874255007
sg2656
F0.055569545874255007
sg1441
F0.055569545874255007
sg2212
F0.055569545874255007
sg6495
F0.055569545874255007
ss(g4875
g1643
tp7939
g1
(g6
tRp7940
g4685
F1
ss(g3292
g3295
tp7941
g1
(g6
tRp7942
g5889
F1
ss(g6349
g5809
tp7943
g1
(g6
tRp7944
S'I'
F1
ss(g3411
g2656
tp7945
g1
(g6
tRp7946
g2657
F1
ss(g317
g320
tp7947
g1
(g6
tRp7948
g1282
F1
ss(g4333
g6063
tp7949
g1
(g6
tRp7950
S'sense'
p7951
F1
ss(g3498
g4762
tp7952
g1
(g6
tRp7953
g4651
F1
ss(g24
g3942
tp7954
g1
(g6
tRp7955
g1059
F1
ss(g757
g760
tp7956
g1
(g6
tRp7957
g5357
F1
ss(g3675
S'I'
tp7958
g1
(g6
tRp7959
g334
F0.5
sg5824
F0.5
ss(g1251
tp7960
g1
(g6
tRp7961
g4742
F1
ss(g3804
g1240
tp7962
g1
(g6
tRp7963
g1243
F1
ss(g3267
g2898
tp7964
g1
(g6
tRp7965
g5798
F1
ss(g726
g729
tp7966
g1
(g6
tRp7967
g4148
F1
ss(g145
g3461
tp7968
g1
(g6
tRp7969
g3462
F1
ss(g948
g2714
tp7970
g1
(g6
tRp7971
g1009
F1
ss(S'This'
g4889
tp7972
g1
(g6
tRp7973
S'a'
F0.49714285714285716
sg3985
F0.25142857142857145
sg6936
F0.25142857142857145
ss(S'a'
g641
tp7974
g1
(g6
tRp7975
g644
F1
ss(g3317
g3456
tp7976
g1
(g6
tRp7977
S''
F1
ss(g43
g5072
tp7978
g1
(g6
tRp7979
S'is'
p7980
F1
ss(g1372
tp7981
g1
(g6
tRp7982
g1373
F1
ss(S'I'
g7478
tp7983
g1
(g6
tRp7984
S'responsibility'
p7985
F1
ss(g4139
g4166
tp7986
g1
(g6
tRp7987
S'subject'
p7988
F1
ss(g3014
g74
tp7989
g1
(g6
tRp7990
g75
F0.5
sS''
F0.5
ss(g2564
g2465
tp7991
g1
(g6
tRp7992
g2466
F1
ss(S'for'
g595
tp7993
g1
(g6
tRp7994
S'record'
p7995
F1
ss(g6247
g4663
tp7996
g1
(g6
tRp7997
g1918
F1
ss(g614
g617
tp7998
g1
(g6
tRp7999
g966
F1
ss(g2725
tp8000
g1
(g6
tRp8001
S''
F0.20138888888888887
sg608
F0.20138888888888887
sg706
F0.59722222222222221
ss(g2201
tp8002
g1
(g6
tRp8003
g2202
F1
ss(g3658
S'does'
p8004
tp8005
g1
(g6
tRp8006
S'matter'
p8007
F1
ss(S'You'
g2877
tp8008
g1
(g6
tRp8009
g1172
F1
ss(g1314
g1317
tp8010
g1
(g6
tRp8011
g3346
F1
ss(g386
g389
tp8012
g1
(g6
tRp8013
g3074
F1
ss(g5390
g4024
tp8014
g1
(g6
tRp8015
g4025
F1
ss(g6584
tp8016
g1
(g6
tRp8017
g6075
F1
ss(g3793
g5122
tp8018
g1
(g6
tRp8019
g4842
F1
ss(g1355
tp8020
g1
(g6
tRp8021
g1358
F1
ss(g3317
tp8022
g1
(g6
tRp8023
g3456
F1
ss(g3045
g2424
tp8024
g1
(g6
tRp8025
g2425
F1
ss(g2760
tp8026
g1
(g6
tRp8027
g3528
F1
ss(g4162
g3816
tp8028
g1
(g6
tRp8029
S''
F1
ss(g1678
tp8030
g1
(g6
tRp8031
g3473
F0.5
sg5572
F0.5
ss(g2129
tp8032
g1
(g6
tRp8033
S''
F0.057136713215948154
sg6772
F0.028574681238615649
sg3271
F0.028574681238615649
sg4179
F0.028574681238615649
sg5949
F0.028574681238615649
sg26
F0.057136713215948154
sg299
F0.028574681238615649
sg6318
F0.028574681238615649
sg2453
F0.028574681238615649
sg3876
F0.028574681238615649
sg847
F0.11426077717061318
sg303
F0.057136713215948154
sg3346
F0.028574681238615649
sg5446
F0.028574681238615649
sg2379
F0.028574681238615649
sg4014
F0.028574681238615649
sg284
F0.028574681238615649
sg5066
F0.028574681238615649
sg4130
F0.028574681238615649
sg6443
F0.028574681238615649
sg2273
F0.028574681238615649
sg1707
F0.028574681238615649
sg2232
F0.028574681238615649
sg2882
F0.028574681238615649
sg2751
F0.057136713215948154
sg5962
F0.085698745193280662
ss(g7549
g3414
tp8034
g1
(g6
tRp8035
g5898
F1
ss(g1498
tp8036
g1
(g6
tRp8037
g1499
F1
ss(g391
g394
tp8038
g1
(g6
tRp8039
g2808
F0.5
sg7278
F0.5
ss(g936
g1293
tp8040
g1
(g6
tRp8041
g1294
F1
ss(g334
g337
tp8042
g1
(g6
tRp8043
S'I'
F1
ss(g4889
g6936
tp8044
g1
(g6
tRp8045
S''
F1
ss(g883
tp8046
g1
(g6
tRp8047
g4435
F1
ss(g1019
g1022
tp8048
g1
(g6
tRp8049
g1867
F1
ss(g1740
g2699
tp8050
g1
(g6
tRp8051
g7498
F1
ss(g4
g8
tp8052
g1
(g6
tRp8053
g3898
F0.5
sg3420
F0.5
ss(g2704
g2707
tp8054
g1
(g6
tRp8055
g5791
F1
ss(S'a'
S'U'
tp8056
g1
(g6
tRp8057
S''
F1
ss(g1222
tp8058
g1
(g6
tRp8059
g1223
F1
ss(g1872
g1875
tp8060
g1
(g6
tRp8061
g5503
F0.19999999999999998
sg5651
F0.19999999999999998
sg1572
F0.19999999999999998
sg6284
F0.19999999999999998
sg4426
F0.19999999999999998
ss(g1360
g1363
tp8062
g1
(g6
tRp8063
g1958
F1
ss(g1858
tp8064
g1
(g6
tRp8065
g1861
F1
ss(g3658
tp8066
g1
(g6
tRp8067
g4288
F0.11133333333333333
sg8004
F0.11133333333333333
sg5328
F0.11133333333333333
sg1120
F0.11133333333333333
sg3224
F0.44333333333333336
sg5470
F0.11133333333333333
ss(g2453
g2456
tp8068
g1
(g6
tRp8069
g4544
F1
ss(g151
g155
tp8070
g1
(g6
tRp8071
g6970
F1
ss(g4088
tp8072
g1
(g6
tRp8073
g1521
F1
ss(g2553
g2556
tp8074
g1
(g6
tRp8075
g4013
F1
ss(g289
tp8076
g1
(g6
tRp8077
S'a'
F0.047649793388429749
sg3841
F0.047649793388429749
sg4577
F0.047649793388429749
sg3950
F0.14282024793388429
sg2007
F0.047649793388429749
sg2307
F0.047649793388429749
sg4943
F0.095235020661157008
sg2527
F0.047649793388429749
sg1078
F0.047649793388429749
sg1780
F0.047649793388429749
sg2439
F0.38074638429752061
ss(g986
g1045
tp8078
g1
(g6
tRp8079
g4996
F1
ss(g470
g3249
tp8080
g1
(g6
tRp8081
g3250
F1
ss(g3790
g3793
tp8082
g1
(g6
tRp8083
g5122
F1
ss(g4899
g7256
tp8084
g1
(g6
tRp8085
g3482
F1
ss(g4143
g294
tp8086
g1
(g6
tRp8087
g6363
F1
ss(g4907
S'a'
tp8088
g1
(g6
tRp8089
g3514
F1
ss(g3094
g4157
tp8090
g1
(g6
tRp8091
S''
F0.5
sg4962
F0.5
ss(S'mistake'
g2244
tp8092
g1
(g6
tRp8093
S''
F1
ss(S'to'
g156
tp8094
g1
(g6
tRp8095
g159
F1
ss(g1687
g1690
tp8096
g1
(g6
tRp8097
g1948
F1
ss(g1471
g513
tp8098
g1
(g6
tRp8099
g516
F1
ss(g5687
tp8100
g1
(g6
tRp8101
g7377
F0.5
sg130
F0.5
ss(g1538
tp8102
g1
(g6
tRp8103
g977
F0.5
sg1848
F0.5
ss(g1103
g51
tp8104
g1
(g6
tRp8105
g2557
F1
ss(g1518
tp8106
g1
(g6
tRp8107
g1124
F1
ss(S'what'
g1987
tp8108
g1
(g6
tRp8109
g3122
F1
ss(g5736
g475
tp8110
g1
(g6
tRp8111
g6584
F0.33333333333333331
sg3013
F0.33333333333333331
sg5596
F0.33333333333333331
ss(g3971
g5214
tp8112
g1
(g6
tRp8113
S'a'
F0.5
sg5515
F0.5
ss(g7181
g6951
tp8114
g1
(g6
tRp8115
S''
F1
ss(S'But'
g3665
tp8116
g1
(g6
tRp8117
S'need'
p8118
F0.5
sg3666
F0.5
ss(g2838
tp8119
g1
(g6
tRp8120
S''
F1
ss(g1944
g1953
tp8121
g1
(g6
tRp8122
g6971
F1
ss(g2410
g2414
tp8123
g1
(g6
tRp8124
g3319
F1
ss(g3628
g1252
tp8125
g1
(g6
tRp8126
g1253
F1
ss(S'New'
g817
tp8127
g1
(g6
tRp8128
S'I'
F1
ss(g3213
g3216
tp8129
g1
(g6
tRp8130
g7555
F1
ss(g3835
g4047
tp8131
g1
(g6
tRp8132
g5045
F1
ss(g2466
S'I'
tp8133
g1
(g6
tRp8134
g2390
F0.49714285714285716
sg6217
F0.25142857142857145
sg1136
F0.25142857142857145
ss(g5086
g1513
tp8135
g1
(g6
tRp8136
g1517
F1
ss(g3664
tp8137
g1
(g6
tRp8138
g4956
F0.33333333333333331
sg5522
F0.33333333333333331
sg3270
F0.33333333333333331
ss(g2634
g3578
tp8139
g1
(g6
tRp8140
g5823
F1
ss(g2248
g2747
tp8141
g1
(g6
tRp8142
g2059
F1
ss(g3656
tp8143
g1
(g6
tRp8144
S''
F1
ss(g1049
tp8145
g1
(g6
tRp8146
g1808
F1
ss(g2396
g3695
tp8147
g1
(g6
tRp8148
g1837
F1
ss(g1762
S'a'
tp8149
g1
(g6
tRp8150
g1222
F1
ss(g2213
tp8151
g1
(g6
tRp8152
g5925
F0.058841099163679821
sS'a'
F0.058841099163679821
sg3080
F0.058841099163679821
sg2216
F0.058841099163679821
sg2898
F0.058841099163679821
sg1446
F0.058841099163679821
sg2899
F0.11758263639984072
sg2900
F0.058841099163679821
sg1632
F0.058841099163679821
sg1980
F0.11758263639984072
sg2897
F0.058841099163679821
sg4420
F0.058841099163679821
sg3103
F0.058841099163679821
sg1862
F0.11758263639984072
ss(g912
g1074
tp8153
g1
(g6
tRp8154
g1040
F1
ss(g2328
g1649
tp8155
g1
(g6
tRp8156
g1652
F1
ss(g475
g3013
tp8157
g1
(g6
tRp8158
g3014
F1
ss(g818
g1661
tp8159
g1
(g6
tRp8160
g1662
F1
ss(g586
g58
tp8161
g1
(g6
tRp8162
g2604
F0.5
sg73
F0.5
ss(g1628
g1631
tp8163
g1
(g6
tRp8164
g2736
F1
ss(g2812
g5925
tp8165
g1
(g6
tRp8166
g735
F1
ss(g5981
g3876
tp8167
g1
(g6
tRp8168
g2893
F1
ss(g1385
tp8169
g1
(g6
tRp8170
g1386
F1
ss(g3937
g2622
tp8171
g1
(g6
tRp8172
S''
F1
ss(g2708
tp8173
g1
(g6
tRp8174
g2709
F1
ss(g3660
tp8175
g1
(g6
tRp8176
g5103
F1
ss(g7552
g6584
tp8177
g1
(g6
tRp8178
g6075
F1
ss(g381
g384
tp8179
g1
(g6
tRp8180
g1962
F1
ss(g4067
tp8181
g1
(g6
tRp8182
S'I'
F1
ss(g1243
g2940
tp8183
g1
(g6
tRp8184
g1179
F1
ss(g3732
g3735
tp8185
g1
(g6
tRp8186
g4203
F1
ss(g2968
tp8187
g1
(g6
tRp8188
g2971
F1
ss(g6024
g757
tp8189
g1
(g6
tRp8190
g760
F1
ss(g4931
g4731
tp8191
g1
(g6
tRp8192
g4732
F1
ss(g3519
tp8193
g1
(g6
tRp8194
g5013
F0.5
sg1849
F0.5
ss(g1557
g6443
tp8195
g1
(g6
tRp8196
g3788
F1
ss(g2258
g3243
tp8197
g1
(g6
tRp8198
g473
F1
ss(S'And'
g146
tp8199
g1
(g6
tRp8200
g147
F1
ss(g5889
tp8201
g1
(g6
tRp8202
g3363
F0.33333333333333331
sg729
F0.33333333333333331
sg5890
F0.33333333333333331
ss(S'a'
g1222
tp8203
g1
(g6
tRp8204
g1223
F1
ss(g4871
g4523
tp8205
g1
(g6
tRp8206
g2357
F1
ss(g1287
g362
tp8207
g1
(g6
tRp8208
g363
F1
ss(g3195
tp8209
g1
(g6
tRp8210
g3198
F1
ss(g120
tp8211
g1
(g6
tRp8212
g3557
F1
ss(g1248
tp8213
g1
(g6
tRp8214
g3292
F1
ss(g6381
g1687
tp8215
g1
(g6
tRp8216
g1690
F1
ss(g5313
g3797
tp8217
g1
(g6
tRp8218
g3798
F1
ss(g6178
tp8219
g1
(g6
tRp8220
S''
F1
ss(g3004
tp8221
g1
(g6
tRp8222
g4656
F0.16734693877551018
sg5870
F0.49795918367346931
sg3005
F0.16734693877551018
sg5482
F0.16734693877551018
ss(S'that'
g1037
tp8223
g1
(g6
tRp8224
S'I'
F1
ss(S'a'
g903
tp8225
g1
(g6
tRp8226
g1343
F1
ss(g5298
g2439
tp8227
g1
(g6
tRp8228
g2440
F0.24955908289241624
sg5414
F0.12522045855379188
sg6066
F0.12522045855379188
sg4731
F0.12522045855379188
sg1765
F0.12522045855379188
sg1258
F0.24955908289241624
ss(g5175
g5439
tp8229
g1
(g6
tRp8230
g265
F1
ss(g1395
tp8231
g1
(g6
tRp8232
S''
F0.66439909297052147
sg1354
F0.16780045351473924
sg3804
F0.16780045351473924
ss(g2894
g2899
tp8233
g1
(g6
tRp8234
g2368
F1
ss(g990
g998
tp8235
g1
(g6
tRp8236
g5590
F1
ss(S'done'
g114
tp8237
g1
(g6
tRp8238
g5558
F1
ss(g3730
tp8239
g1
(g6
tRp8240
S''
F1
ss(g1970
g3171
tp8241
g1
(g6
tRp8242
S''
F0.33750000000000002
sg3172
F0.66249999999999998
ss(g5056
g968
tp8243
g1
(g6
tRp8244
g548
F1
ss(g3158
g2821
tp8245
g1
(g6
tRp8246
S'I'
F1
ss(g1492
tp8247
g1
(g6
tRp8248
g2538
F1
ss(g3372
g4254
tp8249
g1
(g6
tRp8250
g3386
F1
ss(g114
g5558
tp8251
g1
(g6
tRp8252
g3897
F1
ss(g776
S'a'
tp8253
g1
(g6
tRp8254
g691
F0.25
sg5903
F0.25
sg1741
F0.25
sg3513
F0.25
ss(g337
S'I'
tp8255
g1
(g6
tRp8256
g1406
F1
ss(g4968
g4332
tp8257
g1
(g6
tRp8258
g166
F1
ss(g1144
g4085
tp8259
g1
(g6
tRp8260
g7920
F1
ss(g3204
tp8261
g1
(g6
tRp8262
g3205
F1
ss(g2079
g547
tp8263
g1
(g6
tRp8264
g1292
F1
ss(g122
g125
tp8265
g1
(g6
tRp8266
g3879
F1
ss(g1168
tp8267
g1
(g6
tRp8268
g1171
F1
ss.